ARM GAS  /tmp/cchxaK2W.s 			page 1


   1              		.cpu cortex-m4
   2              		.arch armv7e-m
   3              		.fpu fpv4-sp-d16
   4              		.eabi_attribute 27, 1
   5              		.eabi_attribute 28, 1
   6              		.eabi_attribute 20, 1
   7              		.eabi_attribute 21, 1
   8              		.eabi_attribute 23, 3
   9              		.eabi_attribute 24, 1
  10              		.eabi_attribute 25, 1
  11              		.eabi_attribute 26, 1
  12              		.eabi_attribute 30, 1
  13              		.eabi_attribute 34, 1
  14              		.eabi_attribute 18, 4
  15              		.file	"gpio.c"
  16              		.text
  17              	.Ltext0:
  18              		.cfi_sections	.debug_frame
  19              		.section	.text.MX_GPIO_Init,"ax",%progbits
  20              		.align	1
  21              		.global	MX_GPIO_Init
  22              		.syntax unified
  23              		.thumb
  24              		.thumb_func
  26              	MX_GPIO_Init:
  27              	.LFB1438:
  28              		.file 1 "Core/Src/gpio.c"
   1:Core/Src/gpio.c **** /* USER CODE BEGIN Header */
   2:Core/Src/gpio.c **** /**
   3:Core/Src/gpio.c ****   ******************************************************************************
   4:Core/Src/gpio.c ****   * @file    gpio.c
   5:Core/Src/gpio.c ****   * @brief   This file provides code for the configuration
   6:Core/Src/gpio.c ****   *          of all used GPIO pins.
   7:Core/Src/gpio.c ****   ******************************************************************************
   8:Core/Src/gpio.c ****   * @attention
   9:Core/Src/gpio.c ****   *
  10:Core/Src/gpio.c ****   * Copyright (c) 2022 STMicroelectronics.
  11:Core/Src/gpio.c ****   * All rights reserved.
  12:Core/Src/gpio.c ****   *
  13:Core/Src/gpio.c ****   * This software is licensed under terms that can be found in the LICENSE file
  14:Core/Src/gpio.c ****   * in the root directory of this software component.
  15:Core/Src/gpio.c ****   * If no LICENSE file comes with this software, it is provided AS-IS.
  16:Core/Src/gpio.c ****   *
  17:Core/Src/gpio.c ****   ******************************************************************************
  18:Core/Src/gpio.c ****   */
  19:Core/Src/gpio.c **** /* USER CODE END Header */
  20:Core/Src/gpio.c **** 
  21:Core/Src/gpio.c **** /* Includes ------------------------------------------------------------------*/
  22:Core/Src/gpio.c **** #include "gpio.h"
  23:Core/Src/gpio.c **** 
  24:Core/Src/gpio.c **** /* USER CODE BEGIN 0 */
  25:Core/Src/gpio.c **** 
  26:Core/Src/gpio.c **** /* USER CODE END 0 */
  27:Core/Src/gpio.c **** 
  28:Core/Src/gpio.c **** /*----------------------------------------------------------------------------*/
  29:Core/Src/gpio.c **** /* Configure GPIO                                                             */
  30:Core/Src/gpio.c **** /*----------------------------------------------------------------------------*/
ARM GAS  /tmp/cchxaK2W.s 			page 2


  31:Core/Src/gpio.c **** /* USER CODE BEGIN 1 */
  32:Core/Src/gpio.c **** 
  33:Core/Src/gpio.c **** /* USER CODE END 1 */
  34:Core/Src/gpio.c **** 
  35:Core/Src/gpio.c **** /** Configure pins as
  36:Core/Src/gpio.c ****         * Analog
  37:Core/Src/gpio.c ****         * Input
  38:Core/Src/gpio.c ****         * Output
  39:Core/Src/gpio.c ****         * EVENT_OUT
  40:Core/Src/gpio.c ****         * EXTI
  41:Core/Src/gpio.c **** */
  42:Core/Src/gpio.c **** void MX_GPIO_Init(void)
  43:Core/Src/gpio.c **** {
  29              		.loc 1 43 1 view -0
  30              		.cfi_startproc
  31              		@ args = 0, pretend = 0, frame = 64
  32              		@ frame_needed = 0, uses_anonymous_args = 0
  33 0000 2DE9F04F 		push	{r4, r5, r6, r7, r8, r9, r10, fp, lr}
  34              	.LCFI0:
  35              		.cfi_def_cfa_offset 36
  36              		.cfi_offset 4, -36
  37              		.cfi_offset 5, -32
  38              		.cfi_offset 6, -28
  39              		.cfi_offset 7, -24
  40              		.cfi_offset 8, -20
  41              		.cfi_offset 9, -16
  42              		.cfi_offset 10, -12
  43              		.cfi_offset 11, -8
  44              		.cfi_offset 14, -4
  45 0004 91B0     		sub	sp, sp, #68
  46              	.LCFI1:
  47              		.cfi_def_cfa_offset 104
  44:Core/Src/gpio.c **** 
  45:Core/Src/gpio.c ****   LL_EXTI_InitTypeDef EXTI_InitStruct = {0};
  48              		.loc 1 45 3 view .LVU1
  49              		.loc 1 45 23 is_stmt 0 view .LVU2
  50 0006 0024     		movs	r4, #0
  51 0008 0D94     		str	r4, [sp, #52]
  52 000a 0E94     		str	r4, [sp, #56]
  53 000c 0F94     		str	r4, [sp, #60]
  46:Core/Src/gpio.c ****   LL_GPIO_InitTypeDef GPIO_InitStruct = {0};
  54              		.loc 1 46 3 is_stmt 1 view .LVU3
  55              		.loc 1 46 23 is_stmt 0 view .LVU4
  56 000e 0794     		str	r4, [sp, #28]
  57 0010 0894     		str	r4, [sp, #32]
  58 0012 0994     		str	r4, [sp, #36]
  59 0014 0A94     		str	r4, [sp, #40]
  60 0016 0B94     		str	r4, [sp, #44]
  61 0018 0C94     		str	r4, [sp, #48]
  47:Core/Src/gpio.c **** 
  48:Core/Src/gpio.c ****   /* GPIO Ports Clock Enable */
  49:Core/Src/gpio.c ****   LL_AHB2_GRP1_EnableClock(LL_AHB2_GRP1_PERIPH_GPIOE);
  62              		.loc 1 49 3 is_stmt 1 view .LVU5
  63              	.LVL0:
  64              	.LBB190:
  65              	.LBI190:
  66              		.file 2 "Drivers/STM32G4xx_HAL_Driver/Inc/stm32g4xx_ll_bus.h"
ARM GAS  /tmp/cchxaK2W.s 			page 3


   1:Drivers/STM32G4xx_HAL_Driver/Inc/stm32g4xx_ll_bus.h **** /**
   2:Drivers/STM32G4xx_HAL_Driver/Inc/stm32g4xx_ll_bus.h ****   ******************************************************************************
   3:Drivers/STM32G4xx_HAL_Driver/Inc/stm32g4xx_ll_bus.h ****   * @file    stm32g4xx_ll_bus.h
   4:Drivers/STM32G4xx_HAL_Driver/Inc/stm32g4xx_ll_bus.h ****   * @author  MCD Application Team
   5:Drivers/STM32G4xx_HAL_Driver/Inc/stm32g4xx_ll_bus.h ****   * @brief   Header file of BUS LL module.
   6:Drivers/STM32G4xx_HAL_Driver/Inc/stm32g4xx_ll_bus.h **** 
   7:Drivers/STM32G4xx_HAL_Driver/Inc/stm32g4xx_ll_bus.h ****   @verbatim
   8:Drivers/STM32G4xx_HAL_Driver/Inc/stm32g4xx_ll_bus.h ****                       ##### RCC Limitations #####
   9:Drivers/STM32G4xx_HAL_Driver/Inc/stm32g4xx_ll_bus.h ****   ==============================================================================
  10:Drivers/STM32G4xx_HAL_Driver/Inc/stm32g4xx_ll_bus.h ****     [..]
  11:Drivers/STM32G4xx_HAL_Driver/Inc/stm32g4xx_ll_bus.h ****       A delay between an RCC peripheral clock enable and the effective peripheral
  12:Drivers/STM32G4xx_HAL_Driver/Inc/stm32g4xx_ll_bus.h ****       enabling should be taken into account in order to manage the peripheral read/write
  13:Drivers/STM32G4xx_HAL_Driver/Inc/stm32g4xx_ll_bus.h ****       from/to registers.
  14:Drivers/STM32G4xx_HAL_Driver/Inc/stm32g4xx_ll_bus.h ****       (+) This delay depends on the peripheral mapping.
  15:Drivers/STM32G4xx_HAL_Driver/Inc/stm32g4xx_ll_bus.h ****         (++) AHB & APB peripherals, 1 dummy read is necessary
  16:Drivers/STM32G4xx_HAL_Driver/Inc/stm32g4xx_ll_bus.h **** 
  17:Drivers/STM32G4xx_HAL_Driver/Inc/stm32g4xx_ll_bus.h ****     [..]
  18:Drivers/STM32G4xx_HAL_Driver/Inc/stm32g4xx_ll_bus.h ****       Workarounds:
  19:Drivers/STM32G4xx_HAL_Driver/Inc/stm32g4xx_ll_bus.h ****       (#) For AHB & APB peripherals, a dummy read to the peripheral register has been
  20:Drivers/STM32G4xx_HAL_Driver/Inc/stm32g4xx_ll_bus.h ****           inserted in each LL_{BUS}_GRP{x}_EnableClock() function.
  21:Drivers/STM32G4xx_HAL_Driver/Inc/stm32g4xx_ll_bus.h **** 
  22:Drivers/STM32G4xx_HAL_Driver/Inc/stm32g4xx_ll_bus.h ****   @endverbatim
  23:Drivers/STM32G4xx_HAL_Driver/Inc/stm32g4xx_ll_bus.h ****   ******************************************************************************
  24:Drivers/STM32G4xx_HAL_Driver/Inc/stm32g4xx_ll_bus.h ****   * @attention
  25:Drivers/STM32G4xx_HAL_Driver/Inc/stm32g4xx_ll_bus.h ****   *
  26:Drivers/STM32G4xx_HAL_Driver/Inc/stm32g4xx_ll_bus.h ****   * Copyright (c) 2019 STMicroelectronics.
  27:Drivers/STM32G4xx_HAL_Driver/Inc/stm32g4xx_ll_bus.h ****   * All rights reserved.
  28:Drivers/STM32G4xx_HAL_Driver/Inc/stm32g4xx_ll_bus.h ****   *
  29:Drivers/STM32G4xx_HAL_Driver/Inc/stm32g4xx_ll_bus.h ****   * This software is licensed under terms that can be found in the LICENSE file in
  30:Drivers/STM32G4xx_HAL_Driver/Inc/stm32g4xx_ll_bus.h ****   * the root directory of this software component.
  31:Drivers/STM32G4xx_HAL_Driver/Inc/stm32g4xx_ll_bus.h ****   * If no LICENSE file comes with this software, it is provided AS-IS.
  32:Drivers/STM32G4xx_HAL_Driver/Inc/stm32g4xx_ll_bus.h ****   ******************************************************************************
  33:Drivers/STM32G4xx_HAL_Driver/Inc/stm32g4xx_ll_bus.h ****   */
  34:Drivers/STM32G4xx_HAL_Driver/Inc/stm32g4xx_ll_bus.h **** 
  35:Drivers/STM32G4xx_HAL_Driver/Inc/stm32g4xx_ll_bus.h **** /* Define to prevent recursive inclusion -------------------------------------*/
  36:Drivers/STM32G4xx_HAL_Driver/Inc/stm32g4xx_ll_bus.h **** #ifndef STM32G4xx_LL_BUS_H
  37:Drivers/STM32G4xx_HAL_Driver/Inc/stm32g4xx_ll_bus.h **** #define STM32G4xx_LL_BUS_H
  38:Drivers/STM32G4xx_HAL_Driver/Inc/stm32g4xx_ll_bus.h **** 
  39:Drivers/STM32G4xx_HAL_Driver/Inc/stm32g4xx_ll_bus.h **** #ifdef __cplusplus
  40:Drivers/STM32G4xx_HAL_Driver/Inc/stm32g4xx_ll_bus.h **** extern "C" {
  41:Drivers/STM32G4xx_HAL_Driver/Inc/stm32g4xx_ll_bus.h **** #endif
  42:Drivers/STM32G4xx_HAL_Driver/Inc/stm32g4xx_ll_bus.h **** 
  43:Drivers/STM32G4xx_HAL_Driver/Inc/stm32g4xx_ll_bus.h **** /* Includes ------------------------------------------------------------------*/
  44:Drivers/STM32G4xx_HAL_Driver/Inc/stm32g4xx_ll_bus.h **** #include "stm32g4xx.h"
  45:Drivers/STM32G4xx_HAL_Driver/Inc/stm32g4xx_ll_bus.h **** 
  46:Drivers/STM32G4xx_HAL_Driver/Inc/stm32g4xx_ll_bus.h **** /** @addtogroup STM32G4xx_LL_Driver
  47:Drivers/STM32G4xx_HAL_Driver/Inc/stm32g4xx_ll_bus.h ****   * @{
  48:Drivers/STM32G4xx_HAL_Driver/Inc/stm32g4xx_ll_bus.h ****   */
  49:Drivers/STM32G4xx_HAL_Driver/Inc/stm32g4xx_ll_bus.h **** 
  50:Drivers/STM32G4xx_HAL_Driver/Inc/stm32g4xx_ll_bus.h **** #if defined(RCC)
  51:Drivers/STM32G4xx_HAL_Driver/Inc/stm32g4xx_ll_bus.h **** 
  52:Drivers/STM32G4xx_HAL_Driver/Inc/stm32g4xx_ll_bus.h **** /** @defgroup BUS_LL BUS
  53:Drivers/STM32G4xx_HAL_Driver/Inc/stm32g4xx_ll_bus.h ****   * @{
  54:Drivers/STM32G4xx_HAL_Driver/Inc/stm32g4xx_ll_bus.h ****   */
  55:Drivers/STM32G4xx_HAL_Driver/Inc/stm32g4xx_ll_bus.h **** 
  56:Drivers/STM32G4xx_HAL_Driver/Inc/stm32g4xx_ll_bus.h **** /* Private types -------------------------------------------------------------*/
  57:Drivers/STM32G4xx_HAL_Driver/Inc/stm32g4xx_ll_bus.h **** /* Private variables ---------------------------------------------------------*/
ARM GAS  /tmp/cchxaK2W.s 			page 4


  58:Drivers/STM32G4xx_HAL_Driver/Inc/stm32g4xx_ll_bus.h **** 
  59:Drivers/STM32G4xx_HAL_Driver/Inc/stm32g4xx_ll_bus.h **** /* Private constants ---------------------------------------------------------*/
  60:Drivers/STM32G4xx_HAL_Driver/Inc/stm32g4xx_ll_bus.h **** 
  61:Drivers/STM32G4xx_HAL_Driver/Inc/stm32g4xx_ll_bus.h **** /* Private macros ------------------------------------------------------------*/
  62:Drivers/STM32G4xx_HAL_Driver/Inc/stm32g4xx_ll_bus.h **** 
  63:Drivers/STM32G4xx_HAL_Driver/Inc/stm32g4xx_ll_bus.h **** /* Exported types ------------------------------------------------------------*/
  64:Drivers/STM32G4xx_HAL_Driver/Inc/stm32g4xx_ll_bus.h **** /* Exported constants --------------------------------------------------------*/
  65:Drivers/STM32G4xx_HAL_Driver/Inc/stm32g4xx_ll_bus.h **** /** @defgroup BUS_LL_Exported_Constants BUS Exported Constants
  66:Drivers/STM32G4xx_HAL_Driver/Inc/stm32g4xx_ll_bus.h ****   * @{
  67:Drivers/STM32G4xx_HAL_Driver/Inc/stm32g4xx_ll_bus.h ****   */
  68:Drivers/STM32G4xx_HAL_Driver/Inc/stm32g4xx_ll_bus.h **** 
  69:Drivers/STM32G4xx_HAL_Driver/Inc/stm32g4xx_ll_bus.h **** /** @defgroup BUS_LL_EC_AHB1_GRP1_PERIPH  AHB1 GRP1 PERIPH
  70:Drivers/STM32G4xx_HAL_Driver/Inc/stm32g4xx_ll_bus.h ****   * @{
  71:Drivers/STM32G4xx_HAL_Driver/Inc/stm32g4xx_ll_bus.h ****   */
  72:Drivers/STM32G4xx_HAL_Driver/Inc/stm32g4xx_ll_bus.h **** #define LL_AHB1_GRP1_PERIPH_ALL            0xFFFFFFFFU
  73:Drivers/STM32G4xx_HAL_Driver/Inc/stm32g4xx_ll_bus.h **** #define LL_AHB1_GRP1_PERIPH_DMA1           RCC_AHB1ENR_DMA1EN
  74:Drivers/STM32G4xx_HAL_Driver/Inc/stm32g4xx_ll_bus.h **** #define LL_AHB1_GRP1_PERIPH_DMA2           RCC_AHB1ENR_DMA2EN
  75:Drivers/STM32G4xx_HAL_Driver/Inc/stm32g4xx_ll_bus.h **** #define LL_AHB1_GRP1_PERIPH_DMAMUX1        RCC_AHB1ENR_DMAMUX1EN
  76:Drivers/STM32G4xx_HAL_Driver/Inc/stm32g4xx_ll_bus.h **** #define LL_AHB1_GRP1_PERIPH_CORDIC         RCC_AHB1ENR_CORDICEN
  77:Drivers/STM32G4xx_HAL_Driver/Inc/stm32g4xx_ll_bus.h **** #define LL_AHB1_GRP1_PERIPH_FMAC           RCC_AHB1ENR_FMACEN
  78:Drivers/STM32G4xx_HAL_Driver/Inc/stm32g4xx_ll_bus.h **** #define LL_AHB1_GRP1_PERIPH_FLASH          RCC_AHB1ENR_FLASHEN
  79:Drivers/STM32G4xx_HAL_Driver/Inc/stm32g4xx_ll_bus.h **** #define LL_AHB1_GRP1_PERIPH_SRAM1          RCC_AHB1SMENR_SRAM1SMEN
  80:Drivers/STM32G4xx_HAL_Driver/Inc/stm32g4xx_ll_bus.h **** #define LL_AHB1_GRP1_PERIPH_CRC            RCC_AHB1ENR_CRCEN
  81:Drivers/STM32G4xx_HAL_Driver/Inc/stm32g4xx_ll_bus.h **** /**
  82:Drivers/STM32G4xx_HAL_Driver/Inc/stm32g4xx_ll_bus.h ****   * @}
  83:Drivers/STM32G4xx_HAL_Driver/Inc/stm32g4xx_ll_bus.h ****   */
  84:Drivers/STM32G4xx_HAL_Driver/Inc/stm32g4xx_ll_bus.h **** 
  85:Drivers/STM32G4xx_HAL_Driver/Inc/stm32g4xx_ll_bus.h **** /** @defgroup BUS_LL_EC_AHB2_GRP1_PERIPH  AHB2 GRP1 PERIPH
  86:Drivers/STM32G4xx_HAL_Driver/Inc/stm32g4xx_ll_bus.h ****   * @{
  87:Drivers/STM32G4xx_HAL_Driver/Inc/stm32g4xx_ll_bus.h ****   */
  88:Drivers/STM32G4xx_HAL_Driver/Inc/stm32g4xx_ll_bus.h **** #define LL_AHB2_GRP1_PERIPH_ALL            0xFFFFFFFFU
  89:Drivers/STM32G4xx_HAL_Driver/Inc/stm32g4xx_ll_bus.h **** #define LL_AHB2_GRP1_PERIPH_GPIOA          RCC_AHB2ENR_GPIOAEN
  90:Drivers/STM32G4xx_HAL_Driver/Inc/stm32g4xx_ll_bus.h **** #define LL_AHB2_GRP1_PERIPH_GPIOB          RCC_AHB2ENR_GPIOBEN
  91:Drivers/STM32G4xx_HAL_Driver/Inc/stm32g4xx_ll_bus.h **** #define LL_AHB2_GRP1_PERIPH_GPIOC          RCC_AHB2ENR_GPIOCEN
  92:Drivers/STM32G4xx_HAL_Driver/Inc/stm32g4xx_ll_bus.h **** #define LL_AHB2_GRP1_PERIPH_GPIOD          RCC_AHB2ENR_GPIODEN
  93:Drivers/STM32G4xx_HAL_Driver/Inc/stm32g4xx_ll_bus.h **** #define LL_AHB2_GRP1_PERIPH_GPIOE          RCC_AHB2ENR_GPIOEEN
  94:Drivers/STM32G4xx_HAL_Driver/Inc/stm32g4xx_ll_bus.h **** #define LL_AHB2_GRP1_PERIPH_GPIOF          RCC_AHB2ENR_GPIOFEN
  95:Drivers/STM32G4xx_HAL_Driver/Inc/stm32g4xx_ll_bus.h **** #define LL_AHB2_GRP1_PERIPH_GPIOG          RCC_AHB2ENR_GPIOGEN
  96:Drivers/STM32G4xx_HAL_Driver/Inc/stm32g4xx_ll_bus.h **** #define LL_AHB2_GRP1_PERIPH_CCM            RCC_AHB2SMENR_CCMSMEN
  97:Drivers/STM32G4xx_HAL_Driver/Inc/stm32g4xx_ll_bus.h **** #define LL_AHB2_GRP1_PERIPH_SRAM2          RCC_AHB2SMENR_SRAM2SMEN
  98:Drivers/STM32G4xx_HAL_Driver/Inc/stm32g4xx_ll_bus.h **** #define LL_AHB2_GRP1_PERIPH_ADC12          RCC_AHB2ENR_ADC12EN
  99:Drivers/STM32G4xx_HAL_Driver/Inc/stm32g4xx_ll_bus.h **** #if defined(ADC345_COMMON)
 100:Drivers/STM32G4xx_HAL_Driver/Inc/stm32g4xx_ll_bus.h **** #define LL_AHB2_GRP1_PERIPH_ADC345         RCC_AHB2ENR_ADC345EN
 101:Drivers/STM32G4xx_HAL_Driver/Inc/stm32g4xx_ll_bus.h **** #endif /* ADC345_COMMON */
 102:Drivers/STM32G4xx_HAL_Driver/Inc/stm32g4xx_ll_bus.h **** #define LL_AHB2_GRP1_PERIPH_DAC1           RCC_AHB2ENR_DAC1EN
 103:Drivers/STM32G4xx_HAL_Driver/Inc/stm32g4xx_ll_bus.h **** #if defined(DAC2)
 104:Drivers/STM32G4xx_HAL_Driver/Inc/stm32g4xx_ll_bus.h **** #define LL_AHB2_GRP1_PERIPH_DAC2           RCC_AHB2ENR_DAC2EN
 105:Drivers/STM32G4xx_HAL_Driver/Inc/stm32g4xx_ll_bus.h **** #endif /* DAC2 */
 106:Drivers/STM32G4xx_HAL_Driver/Inc/stm32g4xx_ll_bus.h **** #define LL_AHB2_GRP1_PERIPH_DAC3           RCC_AHB2ENR_DAC3EN
 107:Drivers/STM32G4xx_HAL_Driver/Inc/stm32g4xx_ll_bus.h **** #if defined(DAC4)
 108:Drivers/STM32G4xx_HAL_Driver/Inc/stm32g4xx_ll_bus.h **** #define LL_AHB2_GRP1_PERIPH_DAC4           RCC_AHB2ENR_DAC4EN
 109:Drivers/STM32G4xx_HAL_Driver/Inc/stm32g4xx_ll_bus.h **** #endif /* DAC4 */
 110:Drivers/STM32G4xx_HAL_Driver/Inc/stm32g4xx_ll_bus.h **** #if defined(AES)
 111:Drivers/STM32G4xx_HAL_Driver/Inc/stm32g4xx_ll_bus.h **** #define LL_AHB2_GRP1_PERIPH_AES            RCC_AHB2ENR_AESEN
 112:Drivers/STM32G4xx_HAL_Driver/Inc/stm32g4xx_ll_bus.h **** #endif /* AES */
 113:Drivers/STM32G4xx_HAL_Driver/Inc/stm32g4xx_ll_bus.h **** #define LL_AHB2_GRP1_PERIPH_RNG            RCC_AHB2ENR_RNGEN
 114:Drivers/STM32G4xx_HAL_Driver/Inc/stm32g4xx_ll_bus.h **** /**
ARM GAS  /tmp/cchxaK2W.s 			page 5


 115:Drivers/STM32G4xx_HAL_Driver/Inc/stm32g4xx_ll_bus.h ****   * @}
 116:Drivers/STM32G4xx_HAL_Driver/Inc/stm32g4xx_ll_bus.h ****   */
 117:Drivers/STM32G4xx_HAL_Driver/Inc/stm32g4xx_ll_bus.h **** 
 118:Drivers/STM32G4xx_HAL_Driver/Inc/stm32g4xx_ll_bus.h **** /** @defgroup BUS_LL_EC_AHB3_GRP1_PERIPH  AHB3 GRP1 PERIPH
 119:Drivers/STM32G4xx_HAL_Driver/Inc/stm32g4xx_ll_bus.h ****   * @{
 120:Drivers/STM32G4xx_HAL_Driver/Inc/stm32g4xx_ll_bus.h ****   */
 121:Drivers/STM32G4xx_HAL_Driver/Inc/stm32g4xx_ll_bus.h **** #define LL_AHB3_GRP1_PERIPH_ALL            0xFFFFFFFFU
 122:Drivers/STM32G4xx_HAL_Driver/Inc/stm32g4xx_ll_bus.h **** #if defined(FMC_Bank1_R)
 123:Drivers/STM32G4xx_HAL_Driver/Inc/stm32g4xx_ll_bus.h **** #define LL_AHB3_GRP1_PERIPH_FMC            RCC_AHB3ENR_FMCEN
 124:Drivers/STM32G4xx_HAL_Driver/Inc/stm32g4xx_ll_bus.h **** #endif /* FMC_Bank1_R */
 125:Drivers/STM32G4xx_HAL_Driver/Inc/stm32g4xx_ll_bus.h **** #if defined(QUADSPI)
 126:Drivers/STM32G4xx_HAL_Driver/Inc/stm32g4xx_ll_bus.h **** #define LL_AHB3_GRP1_PERIPH_QSPI           RCC_AHB3ENR_QSPIEN
 127:Drivers/STM32G4xx_HAL_Driver/Inc/stm32g4xx_ll_bus.h **** #endif /* QUADSPI */
 128:Drivers/STM32G4xx_HAL_Driver/Inc/stm32g4xx_ll_bus.h **** /**
 129:Drivers/STM32G4xx_HAL_Driver/Inc/stm32g4xx_ll_bus.h ****   * @}
 130:Drivers/STM32G4xx_HAL_Driver/Inc/stm32g4xx_ll_bus.h ****   */
 131:Drivers/STM32G4xx_HAL_Driver/Inc/stm32g4xx_ll_bus.h **** 
 132:Drivers/STM32G4xx_HAL_Driver/Inc/stm32g4xx_ll_bus.h **** /** @defgroup BUS_LL_EC_APB1_GRP1_PERIPH  APB1 GRP1 PERIPH
 133:Drivers/STM32G4xx_HAL_Driver/Inc/stm32g4xx_ll_bus.h ****   * @{
 134:Drivers/STM32G4xx_HAL_Driver/Inc/stm32g4xx_ll_bus.h ****   */
 135:Drivers/STM32G4xx_HAL_Driver/Inc/stm32g4xx_ll_bus.h **** #define LL_APB1_GRP1_PERIPH_ALL            0xFFFFFFFFU
 136:Drivers/STM32G4xx_HAL_Driver/Inc/stm32g4xx_ll_bus.h **** #define LL_APB1_GRP1_PERIPH_TIM2           RCC_APB1ENR1_TIM2EN
 137:Drivers/STM32G4xx_HAL_Driver/Inc/stm32g4xx_ll_bus.h **** #define LL_APB1_GRP1_PERIPH_TIM3           RCC_APB1ENR1_TIM3EN
 138:Drivers/STM32G4xx_HAL_Driver/Inc/stm32g4xx_ll_bus.h **** #define LL_APB1_GRP1_PERIPH_TIM4           RCC_APB1ENR1_TIM4EN
 139:Drivers/STM32G4xx_HAL_Driver/Inc/stm32g4xx_ll_bus.h **** #if defined(TIM5)
 140:Drivers/STM32G4xx_HAL_Driver/Inc/stm32g4xx_ll_bus.h **** #define LL_APB1_GRP1_PERIPH_TIM5           RCC_APB1ENR1_TIM5EN
 141:Drivers/STM32G4xx_HAL_Driver/Inc/stm32g4xx_ll_bus.h **** #endif /* TIM5 */
 142:Drivers/STM32G4xx_HAL_Driver/Inc/stm32g4xx_ll_bus.h **** #define LL_APB1_GRP1_PERIPH_TIM6           RCC_APB1ENR1_TIM6EN
 143:Drivers/STM32G4xx_HAL_Driver/Inc/stm32g4xx_ll_bus.h **** #define LL_APB1_GRP1_PERIPH_TIM7           RCC_APB1ENR1_TIM7EN
 144:Drivers/STM32G4xx_HAL_Driver/Inc/stm32g4xx_ll_bus.h **** #define LL_APB1_GRP1_PERIPH_CRS            RCC_APB1ENR1_CRSEN
 145:Drivers/STM32G4xx_HAL_Driver/Inc/stm32g4xx_ll_bus.h **** #define LL_APB1_GRP1_PERIPH_RTCAPB         RCC_APB1ENR1_RTCAPBEN
 146:Drivers/STM32G4xx_HAL_Driver/Inc/stm32g4xx_ll_bus.h **** #define LL_APB1_GRP1_PERIPH_WWDG           RCC_APB1ENR1_WWDGEN
 147:Drivers/STM32G4xx_HAL_Driver/Inc/stm32g4xx_ll_bus.h **** #define LL_APB1_GRP1_PERIPH_SPI2           RCC_APB1ENR1_SPI2EN
 148:Drivers/STM32G4xx_HAL_Driver/Inc/stm32g4xx_ll_bus.h **** #define LL_APB1_GRP1_PERIPH_SPI3           RCC_APB1ENR1_SPI3EN
 149:Drivers/STM32G4xx_HAL_Driver/Inc/stm32g4xx_ll_bus.h **** #define LL_APB1_GRP1_PERIPH_USART2         RCC_APB1ENR1_USART2EN
 150:Drivers/STM32G4xx_HAL_Driver/Inc/stm32g4xx_ll_bus.h **** #define LL_APB1_GRP1_PERIPH_USART3         RCC_APB1ENR1_USART3EN
 151:Drivers/STM32G4xx_HAL_Driver/Inc/stm32g4xx_ll_bus.h **** #if defined(UART4)
 152:Drivers/STM32G4xx_HAL_Driver/Inc/stm32g4xx_ll_bus.h **** #define LL_APB1_GRP1_PERIPH_UART4          RCC_APB1ENR1_UART4EN
 153:Drivers/STM32G4xx_HAL_Driver/Inc/stm32g4xx_ll_bus.h **** #endif /* UART4 */
 154:Drivers/STM32G4xx_HAL_Driver/Inc/stm32g4xx_ll_bus.h **** #if defined(UART5)
 155:Drivers/STM32G4xx_HAL_Driver/Inc/stm32g4xx_ll_bus.h **** #define LL_APB1_GRP1_PERIPH_UART5          RCC_APB1ENR1_UART5EN
 156:Drivers/STM32G4xx_HAL_Driver/Inc/stm32g4xx_ll_bus.h **** #endif /* UART5 */
 157:Drivers/STM32G4xx_HAL_Driver/Inc/stm32g4xx_ll_bus.h **** #define LL_APB1_GRP1_PERIPH_I2C1           RCC_APB1ENR1_I2C1EN
 158:Drivers/STM32G4xx_HAL_Driver/Inc/stm32g4xx_ll_bus.h **** #define LL_APB1_GRP1_PERIPH_I2C2           RCC_APB1ENR1_I2C2EN
 159:Drivers/STM32G4xx_HAL_Driver/Inc/stm32g4xx_ll_bus.h **** #define LL_APB1_GRP1_PERIPH_USB            RCC_APB1ENR1_USBEN
 160:Drivers/STM32G4xx_HAL_Driver/Inc/stm32g4xx_ll_bus.h **** #if defined(FDCAN1)
 161:Drivers/STM32G4xx_HAL_Driver/Inc/stm32g4xx_ll_bus.h **** #define LL_APB1_GRP1_PERIPH_FDCAN          RCC_APB1ENR1_FDCANEN
 162:Drivers/STM32G4xx_HAL_Driver/Inc/stm32g4xx_ll_bus.h **** #endif /* FDCAN1 */
 163:Drivers/STM32G4xx_HAL_Driver/Inc/stm32g4xx_ll_bus.h **** #define LL_APB1_GRP1_PERIPH_PWR            RCC_APB1ENR1_PWREN
 164:Drivers/STM32G4xx_HAL_Driver/Inc/stm32g4xx_ll_bus.h **** #define LL_APB1_GRP1_PERIPH_I2C3           RCC_APB1ENR1_I2C3EN
 165:Drivers/STM32G4xx_HAL_Driver/Inc/stm32g4xx_ll_bus.h **** #define LL_APB1_GRP1_PERIPH_LPTIM1         RCC_APB1ENR1_LPTIM1EN
 166:Drivers/STM32G4xx_HAL_Driver/Inc/stm32g4xx_ll_bus.h **** /**
 167:Drivers/STM32G4xx_HAL_Driver/Inc/stm32g4xx_ll_bus.h ****   * @}
 168:Drivers/STM32G4xx_HAL_Driver/Inc/stm32g4xx_ll_bus.h ****   */
 169:Drivers/STM32G4xx_HAL_Driver/Inc/stm32g4xx_ll_bus.h **** 
 170:Drivers/STM32G4xx_HAL_Driver/Inc/stm32g4xx_ll_bus.h **** 
 171:Drivers/STM32G4xx_HAL_Driver/Inc/stm32g4xx_ll_bus.h **** /** @defgroup BUS_LL_EC_APB1_GRP2_PERIPH  APB1 GRP2 PERIPH
ARM GAS  /tmp/cchxaK2W.s 			page 6


 172:Drivers/STM32G4xx_HAL_Driver/Inc/stm32g4xx_ll_bus.h ****   * @{
 173:Drivers/STM32G4xx_HAL_Driver/Inc/stm32g4xx_ll_bus.h ****   */
 174:Drivers/STM32G4xx_HAL_Driver/Inc/stm32g4xx_ll_bus.h **** #define LL_APB1_GRP2_PERIPH_ALL            0xFFFFFFFFU
 175:Drivers/STM32G4xx_HAL_Driver/Inc/stm32g4xx_ll_bus.h **** #define LL_APB1_GRP2_PERIPH_LPUART1        RCC_APB1ENR2_LPUART1EN
 176:Drivers/STM32G4xx_HAL_Driver/Inc/stm32g4xx_ll_bus.h **** #if defined(I2C4)
 177:Drivers/STM32G4xx_HAL_Driver/Inc/stm32g4xx_ll_bus.h **** #define LL_APB1_GRP2_PERIPH_I2C4           RCC_APB1ENR2_I2C4EN
 178:Drivers/STM32G4xx_HAL_Driver/Inc/stm32g4xx_ll_bus.h **** #endif /* I2C4 */
 179:Drivers/STM32G4xx_HAL_Driver/Inc/stm32g4xx_ll_bus.h **** #define LL_APB1_GRP2_PERIPH_UCPD1         RCC_APB1ENR2_UCPD1EN
 180:Drivers/STM32G4xx_HAL_Driver/Inc/stm32g4xx_ll_bus.h **** /**
 181:Drivers/STM32G4xx_HAL_Driver/Inc/stm32g4xx_ll_bus.h ****   * @}
 182:Drivers/STM32G4xx_HAL_Driver/Inc/stm32g4xx_ll_bus.h ****   */
 183:Drivers/STM32G4xx_HAL_Driver/Inc/stm32g4xx_ll_bus.h **** 
 184:Drivers/STM32G4xx_HAL_Driver/Inc/stm32g4xx_ll_bus.h **** /** @defgroup BUS_LL_EC_APB2_GRP1_PERIPH  APB2 GRP1 PERIPH
 185:Drivers/STM32G4xx_HAL_Driver/Inc/stm32g4xx_ll_bus.h ****   * @{
 186:Drivers/STM32G4xx_HAL_Driver/Inc/stm32g4xx_ll_bus.h ****   */
 187:Drivers/STM32G4xx_HAL_Driver/Inc/stm32g4xx_ll_bus.h **** #define LL_APB2_GRP1_PERIPH_ALL            0xFFFFFFFFU
 188:Drivers/STM32G4xx_HAL_Driver/Inc/stm32g4xx_ll_bus.h **** #define LL_APB2_GRP1_PERIPH_SYSCFG         RCC_APB2ENR_SYSCFGEN
 189:Drivers/STM32G4xx_HAL_Driver/Inc/stm32g4xx_ll_bus.h **** #define LL_APB2_GRP1_PERIPH_TIM1           RCC_APB2ENR_TIM1EN
 190:Drivers/STM32G4xx_HAL_Driver/Inc/stm32g4xx_ll_bus.h **** #define LL_APB2_GRP1_PERIPH_SPI1           RCC_APB2ENR_SPI1EN
 191:Drivers/STM32G4xx_HAL_Driver/Inc/stm32g4xx_ll_bus.h **** #define LL_APB2_GRP1_PERIPH_TIM8           RCC_APB2ENR_TIM8EN
 192:Drivers/STM32G4xx_HAL_Driver/Inc/stm32g4xx_ll_bus.h **** #define LL_APB2_GRP1_PERIPH_USART1         RCC_APB2ENR_USART1EN
 193:Drivers/STM32G4xx_HAL_Driver/Inc/stm32g4xx_ll_bus.h **** #if defined(SPI4)
 194:Drivers/STM32G4xx_HAL_Driver/Inc/stm32g4xx_ll_bus.h **** #define LL_APB2_GRP1_PERIPH_SPI4           RCC_APB2ENR_SPI4EN
 195:Drivers/STM32G4xx_HAL_Driver/Inc/stm32g4xx_ll_bus.h **** #endif /* SPI4 */
 196:Drivers/STM32G4xx_HAL_Driver/Inc/stm32g4xx_ll_bus.h **** #define LL_APB2_GRP1_PERIPH_TIM15          RCC_APB2ENR_TIM15EN
 197:Drivers/STM32G4xx_HAL_Driver/Inc/stm32g4xx_ll_bus.h **** #define LL_APB2_GRP1_PERIPH_TIM16          RCC_APB2ENR_TIM16EN
 198:Drivers/STM32G4xx_HAL_Driver/Inc/stm32g4xx_ll_bus.h **** #define LL_APB2_GRP1_PERIPH_TIM17          RCC_APB2ENR_TIM17EN
 199:Drivers/STM32G4xx_HAL_Driver/Inc/stm32g4xx_ll_bus.h **** #if defined(TIM20)
 200:Drivers/STM32G4xx_HAL_Driver/Inc/stm32g4xx_ll_bus.h **** #define LL_APB2_GRP1_PERIPH_TIM20          RCC_APB2ENR_TIM20EN
 201:Drivers/STM32G4xx_HAL_Driver/Inc/stm32g4xx_ll_bus.h **** #endif /* TIM20 */
 202:Drivers/STM32G4xx_HAL_Driver/Inc/stm32g4xx_ll_bus.h **** #define LL_APB2_GRP1_PERIPH_SAI1           RCC_APB2ENR_SAI1EN
 203:Drivers/STM32G4xx_HAL_Driver/Inc/stm32g4xx_ll_bus.h **** #if defined(HRTIM1)
 204:Drivers/STM32G4xx_HAL_Driver/Inc/stm32g4xx_ll_bus.h **** #define LL_APB2_GRP1_PERIPH_HRTIM1         RCC_APB2ENR_HRTIM1EN
 205:Drivers/STM32G4xx_HAL_Driver/Inc/stm32g4xx_ll_bus.h **** #endif /* HRTIM1 */
 206:Drivers/STM32G4xx_HAL_Driver/Inc/stm32g4xx_ll_bus.h **** /**
 207:Drivers/STM32G4xx_HAL_Driver/Inc/stm32g4xx_ll_bus.h ****   * @}
 208:Drivers/STM32G4xx_HAL_Driver/Inc/stm32g4xx_ll_bus.h ****   */
 209:Drivers/STM32G4xx_HAL_Driver/Inc/stm32g4xx_ll_bus.h **** 
 210:Drivers/STM32G4xx_HAL_Driver/Inc/stm32g4xx_ll_bus.h **** /**
 211:Drivers/STM32G4xx_HAL_Driver/Inc/stm32g4xx_ll_bus.h ****   * @}
 212:Drivers/STM32G4xx_HAL_Driver/Inc/stm32g4xx_ll_bus.h ****   */
 213:Drivers/STM32G4xx_HAL_Driver/Inc/stm32g4xx_ll_bus.h **** 
 214:Drivers/STM32G4xx_HAL_Driver/Inc/stm32g4xx_ll_bus.h **** /* Exported macro ------------------------------------------------------------*/
 215:Drivers/STM32G4xx_HAL_Driver/Inc/stm32g4xx_ll_bus.h **** /* Exported functions --------------------------------------------------------*/
 216:Drivers/STM32G4xx_HAL_Driver/Inc/stm32g4xx_ll_bus.h **** /** @defgroup BUS_LL_Exported_Functions BUS Exported Functions
 217:Drivers/STM32G4xx_HAL_Driver/Inc/stm32g4xx_ll_bus.h ****   * @{
 218:Drivers/STM32G4xx_HAL_Driver/Inc/stm32g4xx_ll_bus.h ****   */
 219:Drivers/STM32G4xx_HAL_Driver/Inc/stm32g4xx_ll_bus.h **** 
 220:Drivers/STM32G4xx_HAL_Driver/Inc/stm32g4xx_ll_bus.h **** /** @defgroup BUS_LL_EF_AHB1 AHB1
 221:Drivers/STM32G4xx_HAL_Driver/Inc/stm32g4xx_ll_bus.h ****   * @{
 222:Drivers/STM32G4xx_HAL_Driver/Inc/stm32g4xx_ll_bus.h ****   */
 223:Drivers/STM32G4xx_HAL_Driver/Inc/stm32g4xx_ll_bus.h **** 
 224:Drivers/STM32G4xx_HAL_Driver/Inc/stm32g4xx_ll_bus.h **** /**
 225:Drivers/STM32G4xx_HAL_Driver/Inc/stm32g4xx_ll_bus.h ****   * @brief  Enable AHB1 peripherals clock.
 226:Drivers/STM32G4xx_HAL_Driver/Inc/stm32g4xx_ll_bus.h ****   * @rmtoll AHB1ENR      DMA1EN        LL_AHB1_GRP1_EnableClock\n
 227:Drivers/STM32G4xx_HAL_Driver/Inc/stm32g4xx_ll_bus.h ****   *         AHB1ENR      DMA2EN        LL_AHB1_GRP1_EnableClock\n
 228:Drivers/STM32G4xx_HAL_Driver/Inc/stm32g4xx_ll_bus.h ****   *         AHB1ENR      DMAMMUXEN     LL_AHB1_GRP1_EnableClock\n
ARM GAS  /tmp/cchxaK2W.s 			page 7


 229:Drivers/STM32G4xx_HAL_Driver/Inc/stm32g4xx_ll_bus.h ****   *         AHB1ENR      CORDICEN      LL_AHB1_GRP1_EnableClock\n
 230:Drivers/STM32G4xx_HAL_Driver/Inc/stm32g4xx_ll_bus.h ****   *         AHB1ENR      FMACEN        LL_AHB1_GRP1_EnableClock\n
 231:Drivers/STM32G4xx_HAL_Driver/Inc/stm32g4xx_ll_bus.h ****   *         AHB1ENR      FLASHEN       LL_AHB1_GRP1_EnableClock\n
 232:Drivers/STM32G4xx_HAL_Driver/Inc/stm32g4xx_ll_bus.h ****   *         AHB1ENR      CRCEN         LL_AHB1_GRP1_EnableClock
 233:Drivers/STM32G4xx_HAL_Driver/Inc/stm32g4xx_ll_bus.h ****   * @param  Periphs This parameter can be a combination of the following values:
 234:Drivers/STM32G4xx_HAL_Driver/Inc/stm32g4xx_ll_bus.h ****   *         @arg @ref LL_AHB1_GRP1_PERIPH_DMA1
 235:Drivers/STM32G4xx_HAL_Driver/Inc/stm32g4xx_ll_bus.h ****   *         @arg @ref LL_AHB1_GRP1_PERIPH_DMA2
 236:Drivers/STM32G4xx_HAL_Driver/Inc/stm32g4xx_ll_bus.h ****   *         @arg @ref LL_AHB1_GRP1_PERIPH_DMAMUX1
 237:Drivers/STM32G4xx_HAL_Driver/Inc/stm32g4xx_ll_bus.h ****   *         @arg @ref LL_AHB1_GRP1_PERIPH_CORDIC
 238:Drivers/STM32G4xx_HAL_Driver/Inc/stm32g4xx_ll_bus.h ****   *         @arg @ref LL_AHB1_GRP1_PERIPH_FMAC
 239:Drivers/STM32G4xx_HAL_Driver/Inc/stm32g4xx_ll_bus.h ****   *         @arg @ref LL_AHB1_GRP1_PERIPH_FLASH
 240:Drivers/STM32G4xx_HAL_Driver/Inc/stm32g4xx_ll_bus.h ****   *         @arg @ref LL_AHB1_GRP1_PERIPH_CRC
 241:Drivers/STM32G4xx_HAL_Driver/Inc/stm32g4xx_ll_bus.h ****   * @retval None
 242:Drivers/STM32G4xx_HAL_Driver/Inc/stm32g4xx_ll_bus.h ****   */
 243:Drivers/STM32G4xx_HAL_Driver/Inc/stm32g4xx_ll_bus.h **** __STATIC_INLINE void LL_AHB1_GRP1_EnableClock(uint32_t Periphs)
 244:Drivers/STM32G4xx_HAL_Driver/Inc/stm32g4xx_ll_bus.h **** {
 245:Drivers/STM32G4xx_HAL_Driver/Inc/stm32g4xx_ll_bus.h ****   __IO uint32_t tmpreg;
 246:Drivers/STM32G4xx_HAL_Driver/Inc/stm32g4xx_ll_bus.h ****   SET_BIT(RCC->AHB1ENR, Periphs);
 247:Drivers/STM32G4xx_HAL_Driver/Inc/stm32g4xx_ll_bus.h ****   /* Delay after an RCC peripheral clock enabling */
 248:Drivers/STM32G4xx_HAL_Driver/Inc/stm32g4xx_ll_bus.h ****   tmpreg = READ_BIT(RCC->AHB1ENR, Periphs);
 249:Drivers/STM32G4xx_HAL_Driver/Inc/stm32g4xx_ll_bus.h ****   (void)tmpreg;
 250:Drivers/STM32G4xx_HAL_Driver/Inc/stm32g4xx_ll_bus.h **** }
 251:Drivers/STM32G4xx_HAL_Driver/Inc/stm32g4xx_ll_bus.h **** 
 252:Drivers/STM32G4xx_HAL_Driver/Inc/stm32g4xx_ll_bus.h **** /**
 253:Drivers/STM32G4xx_HAL_Driver/Inc/stm32g4xx_ll_bus.h ****   * @brief  Check if AHB1 peripheral clock is enabled or not
 254:Drivers/STM32G4xx_HAL_Driver/Inc/stm32g4xx_ll_bus.h ****   * @rmtoll AHB1ENR      DMA1EN        LL_AHB1_GRP1_IsEnabledClock\n
 255:Drivers/STM32G4xx_HAL_Driver/Inc/stm32g4xx_ll_bus.h ****   *         AHB1ENR      DMA2EN        LL_AHB1_GRP1_IsEnabledClock\n
 256:Drivers/STM32G4xx_HAL_Driver/Inc/stm32g4xx_ll_bus.h ****   *         AHB1ENR      DMAMUXEN      LL_AHB1_GRP1_IsEnabledClock\n
 257:Drivers/STM32G4xx_HAL_Driver/Inc/stm32g4xx_ll_bus.h ****   *         AHB1ENR      CORDICEN      LL_AHB1_GRP1_IsEnabledClock\n
 258:Drivers/STM32G4xx_HAL_Driver/Inc/stm32g4xx_ll_bus.h ****   *         AHB1ENR      FMACEN        LL_AHB1_GRP1_IsEnabledClock\n
 259:Drivers/STM32G4xx_HAL_Driver/Inc/stm32g4xx_ll_bus.h ****   *         AHB1ENR      FLASHEN       LL_AHB1_GRP1_IsEnabledClock\n
 260:Drivers/STM32G4xx_HAL_Driver/Inc/stm32g4xx_ll_bus.h ****   *         AHB1ENR      CRCEN         LL_AHB1_GRP1_IsEnabledClock
 261:Drivers/STM32G4xx_HAL_Driver/Inc/stm32g4xx_ll_bus.h ****   * @param  Periphs This parameter can be a combination of the following values:
 262:Drivers/STM32G4xx_HAL_Driver/Inc/stm32g4xx_ll_bus.h ****   *         @arg @ref LL_AHB1_GRP1_PERIPH_DMA1
 263:Drivers/STM32G4xx_HAL_Driver/Inc/stm32g4xx_ll_bus.h ****   *         @arg @ref LL_AHB1_GRP1_PERIPH_DMA2
 264:Drivers/STM32G4xx_HAL_Driver/Inc/stm32g4xx_ll_bus.h ****   *         @arg @ref LL_AHB1_GRP1_PERIPH_DMAMUX1
 265:Drivers/STM32G4xx_HAL_Driver/Inc/stm32g4xx_ll_bus.h ****   *         @arg @ref LL_AHB1_GRP1_PERIPH_CORDIC
 266:Drivers/STM32G4xx_HAL_Driver/Inc/stm32g4xx_ll_bus.h ****   *         @arg @ref LL_AHB1_GRP1_PERIPH_FMAC
 267:Drivers/STM32G4xx_HAL_Driver/Inc/stm32g4xx_ll_bus.h ****   *         @arg @ref LL_AHB1_GRP1_PERIPH_FLASH
 268:Drivers/STM32G4xx_HAL_Driver/Inc/stm32g4xx_ll_bus.h ****   *         @arg @ref LL_AHB1_GRP1_PERIPH_CRC
 269:Drivers/STM32G4xx_HAL_Driver/Inc/stm32g4xx_ll_bus.h ****   * @retval State of Periphs (1 or 0).
 270:Drivers/STM32G4xx_HAL_Driver/Inc/stm32g4xx_ll_bus.h ****   */
 271:Drivers/STM32G4xx_HAL_Driver/Inc/stm32g4xx_ll_bus.h **** __STATIC_INLINE uint32_t LL_AHB1_GRP1_IsEnabledClock(uint32_t Periphs)
 272:Drivers/STM32G4xx_HAL_Driver/Inc/stm32g4xx_ll_bus.h **** {
 273:Drivers/STM32G4xx_HAL_Driver/Inc/stm32g4xx_ll_bus.h ****   return ((READ_BIT(RCC->AHB1ENR, Periphs) == Periphs) ? 1UL : 0UL);
 274:Drivers/STM32G4xx_HAL_Driver/Inc/stm32g4xx_ll_bus.h **** }
 275:Drivers/STM32G4xx_HAL_Driver/Inc/stm32g4xx_ll_bus.h **** 
 276:Drivers/STM32G4xx_HAL_Driver/Inc/stm32g4xx_ll_bus.h **** /**
 277:Drivers/STM32G4xx_HAL_Driver/Inc/stm32g4xx_ll_bus.h ****   * @brief  Disable AHB1 peripherals clock.
 278:Drivers/STM32G4xx_HAL_Driver/Inc/stm32g4xx_ll_bus.h ****   * @rmtoll AHB1ENR      DMA1EN        LL_AHB1_GRP1_DisableClock\n
 279:Drivers/STM32G4xx_HAL_Driver/Inc/stm32g4xx_ll_bus.h ****   *         AHB1ENR      DMA2EN        LL_AHB1_GRP1_DisableClock\n
 280:Drivers/STM32G4xx_HAL_Driver/Inc/stm32g4xx_ll_bus.h ****   *         AHB1ENR      DMAMUXEN      LL_AHB1_GRP1_DisableClock\n
 281:Drivers/STM32G4xx_HAL_Driver/Inc/stm32g4xx_ll_bus.h ****   *         AHB1ENR      CORDICEN      LL_AHB1_GRP1_DisableClock\n
 282:Drivers/STM32G4xx_HAL_Driver/Inc/stm32g4xx_ll_bus.h ****   *         AHB1ENR      FMACEN        LL_AHB1_GRP1_DisableClock\n
 283:Drivers/STM32G4xx_HAL_Driver/Inc/stm32g4xx_ll_bus.h ****   *         AHB1ENR      FLASHEN       LL_AHB1_GRP1_DisableClock\n
 284:Drivers/STM32G4xx_HAL_Driver/Inc/stm32g4xx_ll_bus.h ****   *         AHB1ENR      CRCEN         LL_AHB1_GRP1_DisableClock
 285:Drivers/STM32G4xx_HAL_Driver/Inc/stm32g4xx_ll_bus.h ****   * @param  Periphs This parameter can be a combination of the following values:
ARM GAS  /tmp/cchxaK2W.s 			page 8


 286:Drivers/STM32G4xx_HAL_Driver/Inc/stm32g4xx_ll_bus.h ****   *         @arg @ref LL_AHB1_GRP1_PERIPH_DMA1
 287:Drivers/STM32G4xx_HAL_Driver/Inc/stm32g4xx_ll_bus.h ****   *         @arg @ref LL_AHB1_GRP1_PERIPH_DMA2
 288:Drivers/STM32G4xx_HAL_Driver/Inc/stm32g4xx_ll_bus.h ****   *         @arg @ref LL_AHB1_GRP1_PERIPH_DMAMUX1
 289:Drivers/STM32G4xx_HAL_Driver/Inc/stm32g4xx_ll_bus.h ****   *         @arg @ref LL_AHB1_GRP1_PERIPH_CORDIC
 290:Drivers/STM32G4xx_HAL_Driver/Inc/stm32g4xx_ll_bus.h ****   *         @arg @ref LL_AHB1_GRP1_PERIPH_FMAC
 291:Drivers/STM32G4xx_HAL_Driver/Inc/stm32g4xx_ll_bus.h ****   *         @arg @ref LL_AHB1_GRP1_PERIPH_FLASH
 292:Drivers/STM32G4xx_HAL_Driver/Inc/stm32g4xx_ll_bus.h ****   *         @arg @ref LL_AHB1_GRP1_PERIPH_CRC
 293:Drivers/STM32G4xx_HAL_Driver/Inc/stm32g4xx_ll_bus.h ****   * @retval None
 294:Drivers/STM32G4xx_HAL_Driver/Inc/stm32g4xx_ll_bus.h ****   */
 295:Drivers/STM32G4xx_HAL_Driver/Inc/stm32g4xx_ll_bus.h **** __STATIC_INLINE void LL_AHB1_GRP1_DisableClock(uint32_t Periphs)
 296:Drivers/STM32G4xx_HAL_Driver/Inc/stm32g4xx_ll_bus.h **** {
 297:Drivers/STM32G4xx_HAL_Driver/Inc/stm32g4xx_ll_bus.h ****   CLEAR_BIT(RCC->AHB1ENR, Periphs);
 298:Drivers/STM32G4xx_HAL_Driver/Inc/stm32g4xx_ll_bus.h **** }
 299:Drivers/STM32G4xx_HAL_Driver/Inc/stm32g4xx_ll_bus.h **** 
 300:Drivers/STM32G4xx_HAL_Driver/Inc/stm32g4xx_ll_bus.h **** /**
 301:Drivers/STM32G4xx_HAL_Driver/Inc/stm32g4xx_ll_bus.h ****   * @brief  Force AHB1 peripherals reset.
 302:Drivers/STM32G4xx_HAL_Driver/Inc/stm32g4xx_ll_bus.h ****   * @rmtoll AHB1RSTR     DMA1RST       LL_AHB1_GRP1_ForceReset\n
 303:Drivers/STM32G4xx_HAL_Driver/Inc/stm32g4xx_ll_bus.h ****   *         AHB1RSTR     DMA2RST       LL_AHB1_GRP1_ForceReset\n
 304:Drivers/STM32G4xx_HAL_Driver/Inc/stm32g4xx_ll_bus.h ****   *         AHB1RSTR     DMAMUXRST     LL_AHB1_GRP1_ForceReset\n
 305:Drivers/STM32G4xx_HAL_Driver/Inc/stm32g4xx_ll_bus.h ****   *         AHB1RSTR     CORDICRST     LL_AHB1_GRP1_ForceReset\n
 306:Drivers/STM32G4xx_HAL_Driver/Inc/stm32g4xx_ll_bus.h ****   *         AHB1RSTR     FMACRST       LL_AHB1_GRP1_ForceReset\n
 307:Drivers/STM32G4xx_HAL_Driver/Inc/stm32g4xx_ll_bus.h ****   *         AHB1RSTR     FLASHRST      LL_AHB1_GRP1_ForceReset\n
 308:Drivers/STM32G4xx_HAL_Driver/Inc/stm32g4xx_ll_bus.h ****   *         AHB1RSTR     CRCRST        LL_AHB1_GRP1_ForceReset
 309:Drivers/STM32G4xx_HAL_Driver/Inc/stm32g4xx_ll_bus.h ****   * @param  Periphs This parameter can be a combination of the following values:
 310:Drivers/STM32G4xx_HAL_Driver/Inc/stm32g4xx_ll_bus.h ****   *         @arg @ref LL_AHB1_GRP1_PERIPH_ALL
 311:Drivers/STM32G4xx_HAL_Driver/Inc/stm32g4xx_ll_bus.h ****   *         @arg @ref LL_AHB1_GRP1_PERIPH_DMA1
 312:Drivers/STM32G4xx_HAL_Driver/Inc/stm32g4xx_ll_bus.h ****   *         @arg @ref LL_AHB1_GRP1_PERIPH_DMA2
 313:Drivers/STM32G4xx_HAL_Driver/Inc/stm32g4xx_ll_bus.h ****   *         @arg @ref LL_AHB1_GRP1_PERIPH_DMAMUX1
 314:Drivers/STM32G4xx_HAL_Driver/Inc/stm32g4xx_ll_bus.h ****   *         @arg @ref LL_AHB1_GRP1_PERIPH_CORDIC
 315:Drivers/STM32G4xx_HAL_Driver/Inc/stm32g4xx_ll_bus.h ****   *         @arg @ref LL_AHB1_GRP1_PERIPH_FMAC
 316:Drivers/STM32G4xx_HAL_Driver/Inc/stm32g4xx_ll_bus.h ****   *         @arg @ref LL_AHB1_GRP1_PERIPH_FLASH
 317:Drivers/STM32G4xx_HAL_Driver/Inc/stm32g4xx_ll_bus.h ****   *         @arg @ref LL_AHB1_GRP1_PERIPH_CRC
 318:Drivers/STM32G4xx_HAL_Driver/Inc/stm32g4xx_ll_bus.h ****   * @retval None
 319:Drivers/STM32G4xx_HAL_Driver/Inc/stm32g4xx_ll_bus.h ****   */
 320:Drivers/STM32G4xx_HAL_Driver/Inc/stm32g4xx_ll_bus.h **** __STATIC_INLINE void LL_AHB1_GRP1_ForceReset(uint32_t Periphs)
 321:Drivers/STM32G4xx_HAL_Driver/Inc/stm32g4xx_ll_bus.h **** {
 322:Drivers/STM32G4xx_HAL_Driver/Inc/stm32g4xx_ll_bus.h ****   SET_BIT(RCC->AHB1RSTR, Periphs);
 323:Drivers/STM32G4xx_HAL_Driver/Inc/stm32g4xx_ll_bus.h **** }
 324:Drivers/STM32G4xx_HAL_Driver/Inc/stm32g4xx_ll_bus.h **** 
 325:Drivers/STM32G4xx_HAL_Driver/Inc/stm32g4xx_ll_bus.h **** /**
 326:Drivers/STM32G4xx_HAL_Driver/Inc/stm32g4xx_ll_bus.h ****   * @brief  Release AHB1 peripherals reset.
 327:Drivers/STM32G4xx_HAL_Driver/Inc/stm32g4xx_ll_bus.h ****   * @rmtoll AHB1RSTR     DMA1RST       LL_AHB1_GRP1_ReleaseReset\n
 328:Drivers/STM32G4xx_HAL_Driver/Inc/stm32g4xx_ll_bus.h ****   *         AHB1RSTR     DMA2RST       LL_AHB1_GRP1_ReleaseReset\n
 329:Drivers/STM32G4xx_HAL_Driver/Inc/stm32g4xx_ll_bus.h ****   *         AHB1RSTR     DMAMUXRST     LL_AHB1_GRP1_ReleaseReset\n
 330:Drivers/STM32G4xx_HAL_Driver/Inc/stm32g4xx_ll_bus.h ****   *         AHB1RSTR     CORDICRST     LL_AHB1_GRP1_ReleaseReset\n
 331:Drivers/STM32G4xx_HAL_Driver/Inc/stm32g4xx_ll_bus.h ****   *         AHB1RSTR     FMACRST       LL_AHB1_GRP1_ReleaseReset\n
 332:Drivers/STM32G4xx_HAL_Driver/Inc/stm32g4xx_ll_bus.h ****   *         AHB1RSTR     FLASHRST      LL_AHB1_GRP1_ReleaseReset\n
 333:Drivers/STM32G4xx_HAL_Driver/Inc/stm32g4xx_ll_bus.h ****   *         AHB1RSTR     CRCRST        LL_AHB1_GRP1_ReleaseReset
 334:Drivers/STM32G4xx_HAL_Driver/Inc/stm32g4xx_ll_bus.h ****   * @param  Periphs This parameter can be a combination of the following values:
 335:Drivers/STM32G4xx_HAL_Driver/Inc/stm32g4xx_ll_bus.h ****   *         @arg @ref LL_AHB1_GRP1_PERIPH_ALL
 336:Drivers/STM32G4xx_HAL_Driver/Inc/stm32g4xx_ll_bus.h ****   *         @arg @ref LL_AHB1_GRP1_PERIPH_DMA1
 337:Drivers/STM32G4xx_HAL_Driver/Inc/stm32g4xx_ll_bus.h ****   *         @arg @ref LL_AHB1_GRP1_PERIPH_DMA2
 338:Drivers/STM32G4xx_HAL_Driver/Inc/stm32g4xx_ll_bus.h ****   *         @arg @ref LL_AHB1_GRP1_PERIPH_DMAMUX1
 339:Drivers/STM32G4xx_HAL_Driver/Inc/stm32g4xx_ll_bus.h ****   *         @arg @ref LL_AHB1_GRP1_PERIPH_CORDIC
 340:Drivers/STM32G4xx_HAL_Driver/Inc/stm32g4xx_ll_bus.h ****   *         @arg @ref LL_AHB1_GRP1_PERIPH_FMAC
 341:Drivers/STM32G4xx_HAL_Driver/Inc/stm32g4xx_ll_bus.h ****   *         @arg @ref LL_AHB1_GRP1_PERIPH_FLASH
 342:Drivers/STM32G4xx_HAL_Driver/Inc/stm32g4xx_ll_bus.h ****   *         @arg @ref LL_AHB1_GRP1_PERIPH_CRC
ARM GAS  /tmp/cchxaK2W.s 			page 9


 343:Drivers/STM32G4xx_HAL_Driver/Inc/stm32g4xx_ll_bus.h ****   * @retval None
 344:Drivers/STM32G4xx_HAL_Driver/Inc/stm32g4xx_ll_bus.h ****   */
 345:Drivers/STM32G4xx_HAL_Driver/Inc/stm32g4xx_ll_bus.h **** __STATIC_INLINE void LL_AHB1_GRP1_ReleaseReset(uint32_t Periphs)
 346:Drivers/STM32G4xx_HAL_Driver/Inc/stm32g4xx_ll_bus.h **** {
 347:Drivers/STM32G4xx_HAL_Driver/Inc/stm32g4xx_ll_bus.h ****   CLEAR_BIT(RCC->AHB1RSTR, Periphs);
 348:Drivers/STM32G4xx_HAL_Driver/Inc/stm32g4xx_ll_bus.h **** }
 349:Drivers/STM32G4xx_HAL_Driver/Inc/stm32g4xx_ll_bus.h **** 
 350:Drivers/STM32G4xx_HAL_Driver/Inc/stm32g4xx_ll_bus.h **** /**
 351:Drivers/STM32G4xx_HAL_Driver/Inc/stm32g4xx_ll_bus.h ****   * @brief  Enable AHB1 peripheral clocks in Sleep and Stop modes
 352:Drivers/STM32G4xx_HAL_Driver/Inc/stm32g4xx_ll_bus.h ****   * @rmtoll AHB1SMENR    DMA1SMEN      LL_AHB1_GRP1_EnableClockStopSleep\n
 353:Drivers/STM32G4xx_HAL_Driver/Inc/stm32g4xx_ll_bus.h ****   *         AHB1SMENR    DMA2SMEN      LL_AHB1_GRP1_EnableClockStopSleep\n
 354:Drivers/STM32G4xx_HAL_Driver/Inc/stm32g4xx_ll_bus.h ****   *         AHB1SMENR    DMAMUXSMEN    LL_AHB1_GRP1_EnableClockStopSleep\n
 355:Drivers/STM32G4xx_HAL_Driver/Inc/stm32g4xx_ll_bus.h ****   *         AHB1SMENR    CORDICSMEN    LL_AHB1_GRP1_EnableClockStopSleep\n
 356:Drivers/STM32G4xx_HAL_Driver/Inc/stm32g4xx_ll_bus.h ****   *         AHB1SMENR    FMACSMEN      LL_AHB1_GRP1_EnableClockStopSleep\n
 357:Drivers/STM32G4xx_HAL_Driver/Inc/stm32g4xx_ll_bus.h ****   *         AHB1SMENR    FLASHSMEN     LL_AHB1_GRP1_EnableClockStopSleep\n
 358:Drivers/STM32G4xx_HAL_Driver/Inc/stm32g4xx_ll_bus.h ****   *         AHB1SMENR    SRAM1SMEN     LL_AHB1_GRP1_DisableClockStopSleep\n
 359:Drivers/STM32G4xx_HAL_Driver/Inc/stm32g4xx_ll_bus.h ****   *         AHB1SMENR    CRCSMEN       LL_AHB1_GRP1_EnableClockStopSleep
 360:Drivers/STM32G4xx_HAL_Driver/Inc/stm32g4xx_ll_bus.h ****   * @param  Periphs This parameter can be a combination of the following values:
 361:Drivers/STM32G4xx_HAL_Driver/Inc/stm32g4xx_ll_bus.h ****   *         @arg @ref LL_AHB1_GRP1_PERIPH_DMA1
 362:Drivers/STM32G4xx_HAL_Driver/Inc/stm32g4xx_ll_bus.h ****   *         @arg @ref LL_AHB1_GRP1_PERIPH_DMA2
 363:Drivers/STM32G4xx_HAL_Driver/Inc/stm32g4xx_ll_bus.h ****   *         @arg @ref LL_AHB1_GRP1_PERIPH_DMAMUX1
 364:Drivers/STM32G4xx_HAL_Driver/Inc/stm32g4xx_ll_bus.h ****   *         @arg @ref LL_AHB1_GRP1_PERIPH_CORDIC
 365:Drivers/STM32G4xx_HAL_Driver/Inc/stm32g4xx_ll_bus.h ****   *         @arg @ref LL_AHB1_GRP1_PERIPH_FMAC
 366:Drivers/STM32G4xx_HAL_Driver/Inc/stm32g4xx_ll_bus.h ****   *         @arg @ref LL_AHB1_GRP1_PERIPH_FLASH
 367:Drivers/STM32G4xx_HAL_Driver/Inc/stm32g4xx_ll_bus.h ****   *         @arg @ref LL_AHB1_GRP1_PERIPH_SRAM1
 368:Drivers/STM32G4xx_HAL_Driver/Inc/stm32g4xx_ll_bus.h ****   *         @arg @ref LL_AHB1_GRP1_PERIPH_CRC
 369:Drivers/STM32G4xx_HAL_Driver/Inc/stm32g4xx_ll_bus.h ****   * @retval None
 370:Drivers/STM32G4xx_HAL_Driver/Inc/stm32g4xx_ll_bus.h ****   */
 371:Drivers/STM32G4xx_HAL_Driver/Inc/stm32g4xx_ll_bus.h **** __STATIC_INLINE void LL_AHB1_GRP1_EnableClockStopSleep(uint32_t Periphs)
 372:Drivers/STM32G4xx_HAL_Driver/Inc/stm32g4xx_ll_bus.h **** {
 373:Drivers/STM32G4xx_HAL_Driver/Inc/stm32g4xx_ll_bus.h ****   __IO uint32_t tmpreg;
 374:Drivers/STM32G4xx_HAL_Driver/Inc/stm32g4xx_ll_bus.h ****   SET_BIT(RCC->AHB1SMENR, Periphs);
 375:Drivers/STM32G4xx_HAL_Driver/Inc/stm32g4xx_ll_bus.h ****   /* Delay after an RCC peripheral clock enabling */
 376:Drivers/STM32G4xx_HAL_Driver/Inc/stm32g4xx_ll_bus.h ****   tmpreg = READ_BIT(RCC->AHB1SMENR, Periphs);
 377:Drivers/STM32G4xx_HAL_Driver/Inc/stm32g4xx_ll_bus.h ****   (void)tmpreg;
 378:Drivers/STM32G4xx_HAL_Driver/Inc/stm32g4xx_ll_bus.h **** }
 379:Drivers/STM32G4xx_HAL_Driver/Inc/stm32g4xx_ll_bus.h **** 
 380:Drivers/STM32G4xx_HAL_Driver/Inc/stm32g4xx_ll_bus.h **** /**
 381:Drivers/STM32G4xx_HAL_Driver/Inc/stm32g4xx_ll_bus.h ****   * @brief  Disable AHB1 peripheral clocks in Sleep and Stop modes
 382:Drivers/STM32G4xx_HAL_Driver/Inc/stm32g4xx_ll_bus.h ****   * @rmtoll AHB1SMENR    DMA1SMEN      LL_AHB1_GRP1_DisableClockStopSleep\n
 383:Drivers/STM32G4xx_HAL_Driver/Inc/stm32g4xx_ll_bus.h ****   *         AHB1SMENR    DMA2SMEN      LL_AHB1_GRP1_DisableClockStopSleep\n
 384:Drivers/STM32G4xx_HAL_Driver/Inc/stm32g4xx_ll_bus.h ****   *         AHB1SMENR    DMAMUXSMEN    LL_AHB1_GRP1_DisableClockStopSleep\n
 385:Drivers/STM32G4xx_HAL_Driver/Inc/stm32g4xx_ll_bus.h ****   *         AHB1SMENR    CORDICSMEN    LL_AHB1_GRP1_DisableClockStopSleep\n
 386:Drivers/STM32G4xx_HAL_Driver/Inc/stm32g4xx_ll_bus.h ****   *         AHB1SMENR    FMACSMEN      LL_AHB1_GRP1_DisableClockStopSleep\n
 387:Drivers/STM32G4xx_HAL_Driver/Inc/stm32g4xx_ll_bus.h ****   *         AHB1SMENR    FLASHSMEN     LL_AHB1_GRP1_DisableClockStopSleep\n
 388:Drivers/STM32G4xx_HAL_Driver/Inc/stm32g4xx_ll_bus.h ****   *         AHB1SMENR    SRAM1SMEN     LL_AHB1_GRP1_DisableClockStopSleep\n
 389:Drivers/STM32G4xx_HAL_Driver/Inc/stm32g4xx_ll_bus.h ****   *         AHB1SMENR    CRCSMEN       LL_AHB1_GRP1_DisableClockStopSleep
 390:Drivers/STM32G4xx_HAL_Driver/Inc/stm32g4xx_ll_bus.h ****   * @param  Periphs This parameter can be a combination of the following values:
 391:Drivers/STM32G4xx_HAL_Driver/Inc/stm32g4xx_ll_bus.h ****   *         @arg @ref LL_AHB1_GRP1_PERIPH_DMA1
 392:Drivers/STM32G4xx_HAL_Driver/Inc/stm32g4xx_ll_bus.h ****   *         @arg @ref LL_AHB1_GRP1_PERIPH_DMA2
 393:Drivers/STM32G4xx_HAL_Driver/Inc/stm32g4xx_ll_bus.h ****   *         @arg @ref LL_AHB1_GRP1_PERIPH_DMAMUX1
 394:Drivers/STM32G4xx_HAL_Driver/Inc/stm32g4xx_ll_bus.h ****   *         @arg @ref LL_AHB1_GRP1_PERIPH_CORDIC
 395:Drivers/STM32G4xx_HAL_Driver/Inc/stm32g4xx_ll_bus.h ****   *         @arg @ref LL_AHB1_GRP1_PERIPH_FMAC
 396:Drivers/STM32G4xx_HAL_Driver/Inc/stm32g4xx_ll_bus.h ****   *         @arg @ref LL_AHB1_GRP1_PERIPH_FLASH
 397:Drivers/STM32G4xx_HAL_Driver/Inc/stm32g4xx_ll_bus.h ****   *         @arg @ref LL_AHB1_GRP1_PERIPH_SRAM1
 398:Drivers/STM32G4xx_HAL_Driver/Inc/stm32g4xx_ll_bus.h ****   *         @arg @ref LL_AHB1_GRP1_PERIPH_CRC
 399:Drivers/STM32G4xx_HAL_Driver/Inc/stm32g4xx_ll_bus.h ****   * @retval None
ARM GAS  /tmp/cchxaK2W.s 			page 10


 400:Drivers/STM32G4xx_HAL_Driver/Inc/stm32g4xx_ll_bus.h ****   */
 401:Drivers/STM32G4xx_HAL_Driver/Inc/stm32g4xx_ll_bus.h **** __STATIC_INLINE void LL_AHB1_GRP1_DisableClockStopSleep(uint32_t Periphs)
 402:Drivers/STM32G4xx_HAL_Driver/Inc/stm32g4xx_ll_bus.h **** {
 403:Drivers/STM32G4xx_HAL_Driver/Inc/stm32g4xx_ll_bus.h ****   CLEAR_BIT(RCC->AHB1SMENR, Periphs);
 404:Drivers/STM32G4xx_HAL_Driver/Inc/stm32g4xx_ll_bus.h **** }
 405:Drivers/STM32G4xx_HAL_Driver/Inc/stm32g4xx_ll_bus.h **** 
 406:Drivers/STM32G4xx_HAL_Driver/Inc/stm32g4xx_ll_bus.h **** /**
 407:Drivers/STM32G4xx_HAL_Driver/Inc/stm32g4xx_ll_bus.h ****   * @}
 408:Drivers/STM32G4xx_HAL_Driver/Inc/stm32g4xx_ll_bus.h ****   */
 409:Drivers/STM32G4xx_HAL_Driver/Inc/stm32g4xx_ll_bus.h **** 
 410:Drivers/STM32G4xx_HAL_Driver/Inc/stm32g4xx_ll_bus.h **** /** @defgroup BUS_LL_EF_AHB2 AHB2
 411:Drivers/STM32G4xx_HAL_Driver/Inc/stm32g4xx_ll_bus.h ****   * @{
 412:Drivers/STM32G4xx_HAL_Driver/Inc/stm32g4xx_ll_bus.h ****   */
 413:Drivers/STM32G4xx_HAL_Driver/Inc/stm32g4xx_ll_bus.h **** 
 414:Drivers/STM32G4xx_HAL_Driver/Inc/stm32g4xx_ll_bus.h **** /**
 415:Drivers/STM32G4xx_HAL_Driver/Inc/stm32g4xx_ll_bus.h ****   * @brief  Enable AHB2 peripherals clock.
 416:Drivers/STM32G4xx_HAL_Driver/Inc/stm32g4xx_ll_bus.h ****   * @rmtoll AHB2ENR      GPIOAEN       LL_AHB2_GRP1_EnableClock\n
 417:Drivers/STM32G4xx_HAL_Driver/Inc/stm32g4xx_ll_bus.h ****   *         AHB2ENR      GPIOBEN       LL_AHB2_GRP1_EnableClock\n
 418:Drivers/STM32G4xx_HAL_Driver/Inc/stm32g4xx_ll_bus.h ****   *         AHB2ENR      GPIOCEN       LL_AHB2_GRP1_EnableClock\n
 419:Drivers/STM32G4xx_HAL_Driver/Inc/stm32g4xx_ll_bus.h ****   *         AHB2ENR      GPIODEN       LL_AHB2_GRP1_EnableClock\n
 420:Drivers/STM32G4xx_HAL_Driver/Inc/stm32g4xx_ll_bus.h ****   *         AHB2ENR      GPIOEEN       LL_AHB2_GRP1_EnableClock\n
 421:Drivers/STM32G4xx_HAL_Driver/Inc/stm32g4xx_ll_bus.h ****   *         AHB2ENR      GPIOFEN       LL_AHB2_GRP1_EnableClock\n
 422:Drivers/STM32G4xx_HAL_Driver/Inc/stm32g4xx_ll_bus.h ****   *         AHB2ENR      GPIOGEN       LL_AHB2_GRP1_EnableClock\n
 423:Drivers/STM32G4xx_HAL_Driver/Inc/stm32g4xx_ll_bus.h ****   *         AHB2ENR      ADC12EN       LL_AHB2_GRP1_EnableClock\n
 424:Drivers/STM32G4xx_HAL_Driver/Inc/stm32g4xx_ll_bus.h ****   *         AHB2ENR      ADC345EN      LL_AHB2_GRP1_EnableClock\n
 425:Drivers/STM32G4xx_HAL_Driver/Inc/stm32g4xx_ll_bus.h ****   *         AHB2ENR      DAC1EN        LL_AHB2_GRP1_EnableClock\n
 426:Drivers/STM32G4xx_HAL_Driver/Inc/stm32g4xx_ll_bus.h ****   *         AHB2ENR      DAC2EN        LL_AHB2_GRP1_EnableClock\n
 427:Drivers/STM32G4xx_HAL_Driver/Inc/stm32g4xx_ll_bus.h ****   *         AHB2ENR      DAC3EN        LL_AHB2_GRP1_EnableClock\n
 428:Drivers/STM32G4xx_HAL_Driver/Inc/stm32g4xx_ll_bus.h ****   *         AHB2ENR      DAC4EN        LL_AHB2_GRP1_EnableClock\n
 429:Drivers/STM32G4xx_HAL_Driver/Inc/stm32g4xx_ll_bus.h ****   *         AHB2ENR      AESEN         LL_AHB2_GRP1_EnableClock\n
 430:Drivers/STM32G4xx_HAL_Driver/Inc/stm32g4xx_ll_bus.h ****   *         AHB2ENR      RNGEN         LL_AHB2_GRP1_EnableClock
 431:Drivers/STM32G4xx_HAL_Driver/Inc/stm32g4xx_ll_bus.h ****   * @param  Periphs This parameter can be a combination of the following values:
 432:Drivers/STM32G4xx_HAL_Driver/Inc/stm32g4xx_ll_bus.h ****   *         @arg @ref LL_AHB2_GRP1_PERIPH_GPIOA
 433:Drivers/STM32G4xx_HAL_Driver/Inc/stm32g4xx_ll_bus.h ****   *         @arg @ref LL_AHB2_GRP1_PERIPH_GPIOB
 434:Drivers/STM32G4xx_HAL_Driver/Inc/stm32g4xx_ll_bus.h ****   *         @arg @ref LL_AHB2_GRP1_PERIPH_GPIOC
 435:Drivers/STM32G4xx_HAL_Driver/Inc/stm32g4xx_ll_bus.h ****   *         @arg @ref LL_AHB2_GRP1_PERIPH_GPIOD
 436:Drivers/STM32G4xx_HAL_Driver/Inc/stm32g4xx_ll_bus.h ****   *         @arg @ref LL_AHB2_GRP1_PERIPH_GPIOE
 437:Drivers/STM32G4xx_HAL_Driver/Inc/stm32g4xx_ll_bus.h ****   *         @arg @ref LL_AHB2_GRP1_PERIPH_GPIOF
 438:Drivers/STM32G4xx_HAL_Driver/Inc/stm32g4xx_ll_bus.h ****   *         @arg @ref LL_AHB2_GRP1_PERIPH_GPIOG
 439:Drivers/STM32G4xx_HAL_Driver/Inc/stm32g4xx_ll_bus.h ****   *         @arg @ref LL_AHB2_GRP1_PERIPH_ADC12
 440:Drivers/STM32G4xx_HAL_Driver/Inc/stm32g4xx_ll_bus.h ****   *         @arg @ref LL_AHB2_GRP1_PERIPH_ADC345 (*)
 441:Drivers/STM32G4xx_HAL_Driver/Inc/stm32g4xx_ll_bus.h ****   *         @arg @ref LL_AHB2_GRP1_PERIPH_DAC1
 442:Drivers/STM32G4xx_HAL_Driver/Inc/stm32g4xx_ll_bus.h ****   *         @arg @ref LL_AHB2_GRP1_PERIPH_DAC2 (*)
 443:Drivers/STM32G4xx_HAL_Driver/Inc/stm32g4xx_ll_bus.h ****   *         @arg @ref LL_AHB2_GRP1_PERIPH_DAC3
 444:Drivers/STM32G4xx_HAL_Driver/Inc/stm32g4xx_ll_bus.h ****   *         @arg @ref LL_AHB2_GRP1_PERIPH_DAC4 (*)
 445:Drivers/STM32G4xx_HAL_Driver/Inc/stm32g4xx_ll_bus.h ****   *         @arg @ref LL_AHB2_GRP1_PERIPH_AES (*)
 446:Drivers/STM32G4xx_HAL_Driver/Inc/stm32g4xx_ll_bus.h ****   *         @arg @ref LL_AHB2_GRP1_PERIPH_RNG
 447:Drivers/STM32G4xx_HAL_Driver/Inc/stm32g4xx_ll_bus.h ****   *
 448:Drivers/STM32G4xx_HAL_Driver/Inc/stm32g4xx_ll_bus.h ****   *         (*) value not defined in all devices.
 449:Drivers/STM32G4xx_HAL_Driver/Inc/stm32g4xx_ll_bus.h ****   * @retval None
 450:Drivers/STM32G4xx_HAL_Driver/Inc/stm32g4xx_ll_bus.h ****   */
 451:Drivers/STM32G4xx_HAL_Driver/Inc/stm32g4xx_ll_bus.h **** __STATIC_INLINE void LL_AHB2_GRP1_EnableClock(uint32_t Periphs)
  67              		.loc 2 451 22 view .LVU6
  68              	.LBB191:
 452:Drivers/STM32G4xx_HAL_Driver/Inc/stm32g4xx_ll_bus.h **** {
 453:Drivers/STM32G4xx_HAL_Driver/Inc/stm32g4xx_ll_bus.h ****   __IO uint32_t tmpreg;
  69              		.loc 2 453 3 view .LVU7
ARM GAS  /tmp/cchxaK2W.s 			page 11


 454:Drivers/STM32G4xx_HAL_Driver/Inc/stm32g4xx_ll_bus.h ****   SET_BIT(RCC->AHB2ENR, Periphs);
  70              		.loc 2 454 3 view .LVU8
  71 001a AB4B     		ldr	r3, .L19
  72 001c DA6C     		ldr	r2, [r3, #76]
  73 001e 42F01002 		orr	r2, r2, #16
  74 0022 DA64     		str	r2, [r3, #76]
 455:Drivers/STM32G4xx_HAL_Driver/Inc/stm32g4xx_ll_bus.h ****   /* Delay after an RCC peripheral clock enabling */
 456:Drivers/STM32G4xx_HAL_Driver/Inc/stm32g4xx_ll_bus.h ****   tmpreg = READ_BIT(RCC->AHB2ENR, Periphs);
  75              		.loc 2 456 3 view .LVU9
  76              		.loc 2 456 12 is_stmt 0 view .LVU10
  77 0024 DA6C     		ldr	r2, [r3, #76]
  78 0026 02F01002 		and	r2, r2, #16
  79              		.loc 2 456 10 view .LVU11
  80 002a 0692     		str	r2, [sp, #24]
 457:Drivers/STM32G4xx_HAL_Driver/Inc/stm32g4xx_ll_bus.h ****   (void)tmpreg;
  81              		.loc 2 457 3 is_stmt 1 view .LVU12
  82 002c 069A     		ldr	r2, [sp, #24]
  83              	.LVL1:
  84              		.loc 2 457 3 is_stmt 0 view .LVU13
  85              	.LBE191:
  86              	.LBE190:
  50:Core/Src/gpio.c ****   LL_AHB2_GRP1_EnableClock(LL_AHB2_GRP1_PERIPH_GPIOC);
  87              		.loc 1 50 3 is_stmt 1 view .LVU14
  88              	.LBB192:
  89              	.LBI192:
 451:Drivers/STM32G4xx_HAL_Driver/Inc/stm32g4xx_ll_bus.h **** {
  90              		.loc 2 451 22 view .LVU15
  91              	.LBB193:
 453:Drivers/STM32G4xx_HAL_Driver/Inc/stm32g4xx_ll_bus.h ****   SET_BIT(RCC->AHB2ENR, Periphs);
  92              		.loc 2 453 3 view .LVU16
 454:Drivers/STM32G4xx_HAL_Driver/Inc/stm32g4xx_ll_bus.h ****   /* Delay after an RCC peripheral clock enabling */
  93              		.loc 2 454 3 view .LVU17
  94 002e DA6C     		ldr	r2, [r3, #76]
  95 0030 42F00402 		orr	r2, r2, #4
  96 0034 DA64     		str	r2, [r3, #76]
 456:Drivers/STM32G4xx_HAL_Driver/Inc/stm32g4xx_ll_bus.h ****   (void)tmpreg;
  97              		.loc 2 456 3 view .LVU18
 456:Drivers/STM32G4xx_HAL_Driver/Inc/stm32g4xx_ll_bus.h ****   (void)tmpreg;
  98              		.loc 2 456 12 is_stmt 0 view .LVU19
  99 0036 DA6C     		ldr	r2, [r3, #76]
 100 0038 02F00402 		and	r2, r2, #4
 456:Drivers/STM32G4xx_HAL_Driver/Inc/stm32g4xx_ll_bus.h ****   (void)tmpreg;
 101              		.loc 2 456 10 view .LVU20
 102 003c 0592     		str	r2, [sp, #20]
 103              		.loc 2 457 3 is_stmt 1 view .LVU21
 104 003e 059A     		ldr	r2, [sp, #20]
 105              	.LVL2:
 106              		.loc 2 457 3 is_stmt 0 view .LVU22
 107              	.LBE193:
 108              	.LBE192:
  51:Core/Src/gpio.c ****   LL_AHB2_GRP1_EnableClock(LL_AHB2_GRP1_PERIPH_GPIOF);
 109              		.loc 1 51 3 is_stmt 1 view .LVU23
 110              	.LBB194:
 111              	.LBI194:
 451:Drivers/STM32G4xx_HAL_Driver/Inc/stm32g4xx_ll_bus.h **** {
 112              		.loc 2 451 22 view .LVU24
 113              	.LBB195:
ARM GAS  /tmp/cchxaK2W.s 			page 12


 453:Drivers/STM32G4xx_HAL_Driver/Inc/stm32g4xx_ll_bus.h ****   SET_BIT(RCC->AHB2ENR, Periphs);
 114              		.loc 2 453 3 view .LVU25
 454:Drivers/STM32G4xx_HAL_Driver/Inc/stm32g4xx_ll_bus.h ****   /* Delay after an RCC peripheral clock enabling */
 115              		.loc 2 454 3 view .LVU26
 116 0040 DA6C     		ldr	r2, [r3, #76]
 117 0042 42F02002 		orr	r2, r2, #32
 118 0046 DA64     		str	r2, [r3, #76]
 456:Drivers/STM32G4xx_HAL_Driver/Inc/stm32g4xx_ll_bus.h ****   (void)tmpreg;
 119              		.loc 2 456 3 view .LVU27
 456:Drivers/STM32G4xx_HAL_Driver/Inc/stm32g4xx_ll_bus.h ****   (void)tmpreg;
 120              		.loc 2 456 12 is_stmt 0 view .LVU28
 121 0048 DA6C     		ldr	r2, [r3, #76]
 122 004a 02F02002 		and	r2, r2, #32
 456:Drivers/STM32G4xx_HAL_Driver/Inc/stm32g4xx_ll_bus.h ****   (void)tmpreg;
 123              		.loc 2 456 10 view .LVU29
 124 004e 0492     		str	r2, [sp, #16]
 125              		.loc 2 457 3 is_stmt 1 view .LVU30
 126 0050 049A     		ldr	r2, [sp, #16]
 127              	.LVL3:
 128              		.loc 2 457 3 is_stmt 0 view .LVU31
 129              	.LBE195:
 130              	.LBE194:
  52:Core/Src/gpio.c ****   LL_AHB2_GRP1_EnableClock(LL_AHB2_GRP1_PERIPH_GPIOA);
 131              		.loc 1 52 3 is_stmt 1 view .LVU32
 132              	.LBB196:
 133              	.LBI196:
 451:Drivers/STM32G4xx_HAL_Driver/Inc/stm32g4xx_ll_bus.h **** {
 134              		.loc 2 451 22 view .LVU33
 135              	.LBB197:
 453:Drivers/STM32G4xx_HAL_Driver/Inc/stm32g4xx_ll_bus.h ****   SET_BIT(RCC->AHB2ENR, Periphs);
 136              		.loc 2 453 3 view .LVU34
 454:Drivers/STM32G4xx_HAL_Driver/Inc/stm32g4xx_ll_bus.h ****   /* Delay after an RCC peripheral clock enabling */
 137              		.loc 2 454 3 view .LVU35
 138 0052 DA6C     		ldr	r2, [r3, #76]
 139 0054 42F00102 		orr	r2, r2, #1
 140 0058 DA64     		str	r2, [r3, #76]
 456:Drivers/STM32G4xx_HAL_Driver/Inc/stm32g4xx_ll_bus.h ****   (void)tmpreg;
 141              		.loc 2 456 3 view .LVU36
 456:Drivers/STM32G4xx_HAL_Driver/Inc/stm32g4xx_ll_bus.h ****   (void)tmpreg;
 142              		.loc 2 456 12 is_stmt 0 view .LVU37
 143 005a DA6C     		ldr	r2, [r3, #76]
 144 005c 02F00102 		and	r2, r2, #1
 456:Drivers/STM32G4xx_HAL_Driver/Inc/stm32g4xx_ll_bus.h ****   (void)tmpreg;
 145              		.loc 2 456 10 view .LVU38
 146 0060 0392     		str	r2, [sp, #12]
 147              		.loc 2 457 3 is_stmt 1 view .LVU39
 148 0062 039A     		ldr	r2, [sp, #12]
 149              	.LVL4:
 150              		.loc 2 457 3 is_stmt 0 view .LVU40
 151              	.LBE197:
 152              	.LBE196:
  53:Core/Src/gpio.c ****   LL_AHB2_GRP1_EnableClock(LL_AHB2_GRP1_PERIPH_GPIOB);
 153              		.loc 1 53 3 is_stmt 1 view .LVU41
 154              	.LBB198:
 155              	.LBI198:
 451:Drivers/STM32G4xx_HAL_Driver/Inc/stm32g4xx_ll_bus.h **** {
 156              		.loc 2 451 22 view .LVU42
ARM GAS  /tmp/cchxaK2W.s 			page 13


 157              	.LBB199:
 453:Drivers/STM32G4xx_HAL_Driver/Inc/stm32g4xx_ll_bus.h ****   SET_BIT(RCC->AHB2ENR, Periphs);
 158              		.loc 2 453 3 view .LVU43
 454:Drivers/STM32G4xx_HAL_Driver/Inc/stm32g4xx_ll_bus.h ****   /* Delay after an RCC peripheral clock enabling */
 159              		.loc 2 454 3 view .LVU44
 160 0064 DA6C     		ldr	r2, [r3, #76]
 161 0066 42F00202 		orr	r2, r2, #2
 162 006a DA64     		str	r2, [r3, #76]
 456:Drivers/STM32G4xx_HAL_Driver/Inc/stm32g4xx_ll_bus.h ****   (void)tmpreg;
 163              		.loc 2 456 3 view .LVU45
 456:Drivers/STM32G4xx_HAL_Driver/Inc/stm32g4xx_ll_bus.h ****   (void)tmpreg;
 164              		.loc 2 456 12 is_stmt 0 view .LVU46
 165 006c DA6C     		ldr	r2, [r3, #76]
 166 006e 02F00202 		and	r2, r2, #2
 456:Drivers/STM32G4xx_HAL_Driver/Inc/stm32g4xx_ll_bus.h ****   (void)tmpreg;
 167              		.loc 2 456 10 view .LVU47
 168 0072 0292     		str	r2, [sp, #8]
 169              		.loc 2 457 3 is_stmt 1 view .LVU48
 170 0074 029A     		ldr	r2, [sp, #8]
 171              	.LVL5:
 172              		.loc 2 457 3 is_stmt 0 view .LVU49
 173              	.LBE199:
 174              	.LBE198:
  54:Core/Src/gpio.c ****   LL_AHB2_GRP1_EnableClock(LL_AHB2_GRP1_PERIPH_GPIOD);
 175              		.loc 1 54 3 is_stmt 1 view .LVU50
 176              	.LBB200:
 177              	.LBI200:
 451:Drivers/STM32G4xx_HAL_Driver/Inc/stm32g4xx_ll_bus.h **** {
 178              		.loc 2 451 22 view .LVU51
 179              	.LBB201:
 453:Drivers/STM32G4xx_HAL_Driver/Inc/stm32g4xx_ll_bus.h ****   SET_BIT(RCC->AHB2ENR, Periphs);
 180              		.loc 2 453 3 view .LVU52
 454:Drivers/STM32G4xx_HAL_Driver/Inc/stm32g4xx_ll_bus.h ****   /* Delay after an RCC peripheral clock enabling */
 181              		.loc 2 454 3 view .LVU53
 182 0076 DA6C     		ldr	r2, [r3, #76]
 183 0078 42F00802 		orr	r2, r2, #8
 184 007c DA64     		str	r2, [r3, #76]
 456:Drivers/STM32G4xx_HAL_Driver/Inc/stm32g4xx_ll_bus.h ****   (void)tmpreg;
 185              		.loc 2 456 3 view .LVU54
 456:Drivers/STM32G4xx_HAL_Driver/Inc/stm32g4xx_ll_bus.h ****   (void)tmpreg;
 186              		.loc 2 456 12 is_stmt 0 view .LVU55
 187 007e DA6C     		ldr	r2, [r3, #76]
 188 0080 02F00802 		and	r2, r2, #8
 456:Drivers/STM32G4xx_HAL_Driver/Inc/stm32g4xx_ll_bus.h ****   (void)tmpreg;
 189              		.loc 2 456 10 view .LVU56
 190 0084 0192     		str	r2, [sp, #4]
 191              		.loc 2 457 3 is_stmt 1 view .LVU57
 192 0086 019A     		ldr	r2, [sp, #4]
 193              	.LVL6:
 194              		.loc 2 457 3 is_stmt 0 view .LVU58
 195              	.LBE201:
 196              	.LBE200:
  55:Core/Src/gpio.c ****   LL_AHB2_GRP1_EnableClock(LL_AHB2_GRP1_PERIPH_GPIOG);
 197              		.loc 1 55 3 is_stmt 1 view .LVU59
 198              	.LBB202:
 199              	.LBI202:
 451:Drivers/STM32G4xx_HAL_Driver/Inc/stm32g4xx_ll_bus.h **** {
ARM GAS  /tmp/cchxaK2W.s 			page 14


 200              		.loc 2 451 22 view .LVU60
 201              	.LBB203:
 453:Drivers/STM32G4xx_HAL_Driver/Inc/stm32g4xx_ll_bus.h ****   SET_BIT(RCC->AHB2ENR, Periphs);
 202              		.loc 2 453 3 view .LVU61
 454:Drivers/STM32G4xx_HAL_Driver/Inc/stm32g4xx_ll_bus.h ****   /* Delay after an RCC peripheral clock enabling */
 203              		.loc 2 454 3 view .LVU62
 204 0088 DA6C     		ldr	r2, [r3, #76]
 205 008a 42F04002 		orr	r2, r2, #64
 206 008e DA64     		str	r2, [r3, #76]
 456:Drivers/STM32G4xx_HAL_Driver/Inc/stm32g4xx_ll_bus.h ****   (void)tmpreg;
 207              		.loc 2 456 3 view .LVU63
 456:Drivers/STM32G4xx_HAL_Driver/Inc/stm32g4xx_ll_bus.h ****   (void)tmpreg;
 208              		.loc 2 456 12 is_stmt 0 view .LVU64
 209 0090 DB6C     		ldr	r3, [r3, #76]
 210 0092 03F04003 		and	r3, r3, #64
 456:Drivers/STM32G4xx_HAL_Driver/Inc/stm32g4xx_ll_bus.h ****   (void)tmpreg;
 211              		.loc 2 456 10 view .LVU65
 212 0096 0093     		str	r3, [sp]
 213              		.loc 2 457 3 is_stmt 1 view .LVU66
 214 0098 009B     		ldr	r3, [sp]
 215              	.LVL7:
 216              		.loc 2 457 3 is_stmt 0 view .LVU67
 217              	.LBE203:
 218              	.LBE202:
  56:Core/Src/gpio.c **** 
  57:Core/Src/gpio.c ****   /**/
  58:Core/Src/gpio.c ****   LL_GPIO_ResetOutputPin(LED1_GPIO_Port, LED1_Pin);
 219              		.loc 1 58 3 is_stmt 1 view .LVU68
 220              	.LBB204:
 221              	.LBI204:
 222              		.file 3 "Drivers/STM32G4xx_HAL_Driver/Inc/stm32g4xx_ll_gpio.h"
   1:Drivers/STM32G4xx_HAL_Driver/Inc/stm32g4xx_ll_gpio.h **** /**
   2:Drivers/STM32G4xx_HAL_Driver/Inc/stm32g4xx_ll_gpio.h ****   ******************************************************************************
   3:Drivers/STM32G4xx_HAL_Driver/Inc/stm32g4xx_ll_gpio.h ****   * @file    stm32g4xx_ll_gpio.h
   4:Drivers/STM32G4xx_HAL_Driver/Inc/stm32g4xx_ll_gpio.h ****   * @author  MCD Application Team
   5:Drivers/STM32G4xx_HAL_Driver/Inc/stm32g4xx_ll_gpio.h ****   * @brief   Header file of GPIO LL module.
   6:Drivers/STM32G4xx_HAL_Driver/Inc/stm32g4xx_ll_gpio.h ****   ******************************************************************************
   7:Drivers/STM32G4xx_HAL_Driver/Inc/stm32g4xx_ll_gpio.h ****   * @attention
   8:Drivers/STM32G4xx_HAL_Driver/Inc/stm32g4xx_ll_gpio.h ****   *
   9:Drivers/STM32G4xx_HAL_Driver/Inc/stm32g4xx_ll_gpio.h ****   * Copyright (c) 2019 STMicroelectronics.
  10:Drivers/STM32G4xx_HAL_Driver/Inc/stm32g4xx_ll_gpio.h ****   * All rights reserved.
  11:Drivers/STM32G4xx_HAL_Driver/Inc/stm32g4xx_ll_gpio.h ****   *
  12:Drivers/STM32G4xx_HAL_Driver/Inc/stm32g4xx_ll_gpio.h ****   * This software is licensed under terms that can be found in the LICENSE file
  13:Drivers/STM32G4xx_HAL_Driver/Inc/stm32g4xx_ll_gpio.h ****   * in the root directory of this software component.
  14:Drivers/STM32G4xx_HAL_Driver/Inc/stm32g4xx_ll_gpio.h ****   * If no LICENSE file comes with this software, it is provided AS-IS.
  15:Drivers/STM32G4xx_HAL_Driver/Inc/stm32g4xx_ll_gpio.h ****   *
  16:Drivers/STM32G4xx_HAL_Driver/Inc/stm32g4xx_ll_gpio.h ****   ******************************************************************************
  17:Drivers/STM32G4xx_HAL_Driver/Inc/stm32g4xx_ll_gpio.h ****   */
  18:Drivers/STM32G4xx_HAL_Driver/Inc/stm32g4xx_ll_gpio.h **** 
  19:Drivers/STM32G4xx_HAL_Driver/Inc/stm32g4xx_ll_gpio.h **** /* Define to prevent recursive inclusion -------------------------------------*/
  20:Drivers/STM32G4xx_HAL_Driver/Inc/stm32g4xx_ll_gpio.h **** #ifndef STM32G4xx_LL_GPIO_H
  21:Drivers/STM32G4xx_HAL_Driver/Inc/stm32g4xx_ll_gpio.h **** #define STM32G4xx_LL_GPIO_H
  22:Drivers/STM32G4xx_HAL_Driver/Inc/stm32g4xx_ll_gpio.h **** 
  23:Drivers/STM32G4xx_HAL_Driver/Inc/stm32g4xx_ll_gpio.h **** #ifdef __cplusplus
  24:Drivers/STM32G4xx_HAL_Driver/Inc/stm32g4xx_ll_gpio.h **** extern "C" {
  25:Drivers/STM32G4xx_HAL_Driver/Inc/stm32g4xx_ll_gpio.h **** #endif
  26:Drivers/STM32G4xx_HAL_Driver/Inc/stm32g4xx_ll_gpio.h **** 
ARM GAS  /tmp/cchxaK2W.s 			page 15


  27:Drivers/STM32G4xx_HAL_Driver/Inc/stm32g4xx_ll_gpio.h **** /* Includes ------------------------------------------------------------------*/
  28:Drivers/STM32G4xx_HAL_Driver/Inc/stm32g4xx_ll_gpio.h **** #include "stm32g4xx.h"
  29:Drivers/STM32G4xx_HAL_Driver/Inc/stm32g4xx_ll_gpio.h **** 
  30:Drivers/STM32G4xx_HAL_Driver/Inc/stm32g4xx_ll_gpio.h **** /** @addtogroup STM32G4xx_LL_Driver
  31:Drivers/STM32G4xx_HAL_Driver/Inc/stm32g4xx_ll_gpio.h ****   * @{
  32:Drivers/STM32G4xx_HAL_Driver/Inc/stm32g4xx_ll_gpio.h ****   */
  33:Drivers/STM32G4xx_HAL_Driver/Inc/stm32g4xx_ll_gpio.h **** 
  34:Drivers/STM32G4xx_HAL_Driver/Inc/stm32g4xx_ll_gpio.h **** #if defined (GPIOA) || defined (GPIOB) || defined (GPIOC) || defined (GPIOD) || defined (GPIOE) || 
  35:Drivers/STM32G4xx_HAL_Driver/Inc/stm32g4xx_ll_gpio.h **** 
  36:Drivers/STM32G4xx_HAL_Driver/Inc/stm32g4xx_ll_gpio.h **** /** @defgroup GPIO_LL GPIO
  37:Drivers/STM32G4xx_HAL_Driver/Inc/stm32g4xx_ll_gpio.h ****   * @{
  38:Drivers/STM32G4xx_HAL_Driver/Inc/stm32g4xx_ll_gpio.h ****   */
  39:Drivers/STM32G4xx_HAL_Driver/Inc/stm32g4xx_ll_gpio.h **** /** MISRA C:2012 deviation rule has been granted for following rules:
  40:Drivers/STM32G4xx_HAL_Driver/Inc/stm32g4xx_ll_gpio.h ****   * Rule-18.1_d - Medium: Array pointer `GPIOx' is accessed with index [..,..]
  41:Drivers/STM32G4xx_HAL_Driver/Inc/stm32g4xx_ll_gpio.h ****   * which may be out of array bounds [..,UNKNOWN] in following APIs:
  42:Drivers/STM32G4xx_HAL_Driver/Inc/stm32g4xx_ll_gpio.h ****   * LL_GPIO_GetAFPin_0_7
  43:Drivers/STM32G4xx_HAL_Driver/Inc/stm32g4xx_ll_gpio.h ****   * LL_GPIO_SetAFPin_0_7
  44:Drivers/STM32G4xx_HAL_Driver/Inc/stm32g4xx_ll_gpio.h ****   * LL_GPIO_SetAFPin_8_15
  45:Drivers/STM32G4xx_HAL_Driver/Inc/stm32g4xx_ll_gpio.h ****   * LL_GPIO_GetAFPin_8_15
  46:Drivers/STM32G4xx_HAL_Driver/Inc/stm32g4xx_ll_gpio.h ****   */
  47:Drivers/STM32G4xx_HAL_Driver/Inc/stm32g4xx_ll_gpio.h **** 
  48:Drivers/STM32G4xx_HAL_Driver/Inc/stm32g4xx_ll_gpio.h **** /* Private types -------------------------------------------------------------*/
  49:Drivers/STM32G4xx_HAL_Driver/Inc/stm32g4xx_ll_gpio.h **** /* Private variables ---------------------------------------------------------*/
  50:Drivers/STM32G4xx_HAL_Driver/Inc/stm32g4xx_ll_gpio.h **** /* Private constants ---------------------------------------------------------*/
  51:Drivers/STM32G4xx_HAL_Driver/Inc/stm32g4xx_ll_gpio.h **** /* Private macros ------------------------------------------------------------*/
  52:Drivers/STM32G4xx_HAL_Driver/Inc/stm32g4xx_ll_gpio.h **** #if defined(USE_FULL_LL_DRIVER)
  53:Drivers/STM32G4xx_HAL_Driver/Inc/stm32g4xx_ll_gpio.h **** /** @defgroup GPIO_LL_Private_Macros GPIO Private Macros
  54:Drivers/STM32G4xx_HAL_Driver/Inc/stm32g4xx_ll_gpio.h ****   * @{
  55:Drivers/STM32G4xx_HAL_Driver/Inc/stm32g4xx_ll_gpio.h ****   */
  56:Drivers/STM32G4xx_HAL_Driver/Inc/stm32g4xx_ll_gpio.h **** 
  57:Drivers/STM32G4xx_HAL_Driver/Inc/stm32g4xx_ll_gpio.h **** /**
  58:Drivers/STM32G4xx_HAL_Driver/Inc/stm32g4xx_ll_gpio.h ****   * @}
  59:Drivers/STM32G4xx_HAL_Driver/Inc/stm32g4xx_ll_gpio.h ****   */
  60:Drivers/STM32G4xx_HAL_Driver/Inc/stm32g4xx_ll_gpio.h **** #endif /*USE_FULL_LL_DRIVER*/
  61:Drivers/STM32G4xx_HAL_Driver/Inc/stm32g4xx_ll_gpio.h **** 
  62:Drivers/STM32G4xx_HAL_Driver/Inc/stm32g4xx_ll_gpio.h **** /* Exported types ------------------------------------------------------------*/
  63:Drivers/STM32G4xx_HAL_Driver/Inc/stm32g4xx_ll_gpio.h **** #if defined(USE_FULL_LL_DRIVER)
  64:Drivers/STM32G4xx_HAL_Driver/Inc/stm32g4xx_ll_gpio.h **** /** @defgroup GPIO_LL_ES_INIT GPIO Exported Init structures
  65:Drivers/STM32G4xx_HAL_Driver/Inc/stm32g4xx_ll_gpio.h ****   * @{
  66:Drivers/STM32G4xx_HAL_Driver/Inc/stm32g4xx_ll_gpio.h ****   */
  67:Drivers/STM32G4xx_HAL_Driver/Inc/stm32g4xx_ll_gpio.h **** 
  68:Drivers/STM32G4xx_HAL_Driver/Inc/stm32g4xx_ll_gpio.h **** /**
  69:Drivers/STM32G4xx_HAL_Driver/Inc/stm32g4xx_ll_gpio.h ****   * @brief LL GPIO Init Structure definition
  70:Drivers/STM32G4xx_HAL_Driver/Inc/stm32g4xx_ll_gpio.h ****   */
  71:Drivers/STM32G4xx_HAL_Driver/Inc/stm32g4xx_ll_gpio.h **** typedef struct
  72:Drivers/STM32G4xx_HAL_Driver/Inc/stm32g4xx_ll_gpio.h **** {
  73:Drivers/STM32G4xx_HAL_Driver/Inc/stm32g4xx_ll_gpio.h ****   uint32_t Pin;          /*!< Specifies the GPIO pins to be configured.
  74:Drivers/STM32G4xx_HAL_Driver/Inc/stm32g4xx_ll_gpio.h ****                               This parameter can be any value of @ref GPIO_LL_EC_PIN */
  75:Drivers/STM32G4xx_HAL_Driver/Inc/stm32g4xx_ll_gpio.h **** 
  76:Drivers/STM32G4xx_HAL_Driver/Inc/stm32g4xx_ll_gpio.h ****   uint32_t Mode;         /*!< Specifies the operating mode for the selected pins.
  77:Drivers/STM32G4xx_HAL_Driver/Inc/stm32g4xx_ll_gpio.h ****                               This parameter can be a value of @ref GPIO_LL_EC_MODE.
  78:Drivers/STM32G4xx_HAL_Driver/Inc/stm32g4xx_ll_gpio.h **** 
  79:Drivers/STM32G4xx_HAL_Driver/Inc/stm32g4xx_ll_gpio.h ****                               GPIO HW configuration can be modified afterwards using unitary functi
  80:Drivers/STM32G4xx_HAL_Driver/Inc/stm32g4xx_ll_gpio.h **** 
  81:Drivers/STM32G4xx_HAL_Driver/Inc/stm32g4xx_ll_gpio.h ****   uint32_t Speed;        /*!< Specifies the speed for the selected pins.
  82:Drivers/STM32G4xx_HAL_Driver/Inc/stm32g4xx_ll_gpio.h ****                               This parameter can be a value of @ref GPIO_LL_EC_SPEED.
  83:Drivers/STM32G4xx_HAL_Driver/Inc/stm32g4xx_ll_gpio.h **** 
ARM GAS  /tmp/cchxaK2W.s 			page 16


  84:Drivers/STM32G4xx_HAL_Driver/Inc/stm32g4xx_ll_gpio.h ****                               GPIO HW configuration can be modified afterwards using unitary functi
  85:Drivers/STM32G4xx_HAL_Driver/Inc/stm32g4xx_ll_gpio.h **** 
  86:Drivers/STM32G4xx_HAL_Driver/Inc/stm32g4xx_ll_gpio.h ****   uint32_t OutputType;   /*!< Specifies the operating output type for the selected pins.
  87:Drivers/STM32G4xx_HAL_Driver/Inc/stm32g4xx_ll_gpio.h ****                               This parameter can be a value of @ref GPIO_LL_EC_OUTPUT.
  88:Drivers/STM32G4xx_HAL_Driver/Inc/stm32g4xx_ll_gpio.h **** 
  89:Drivers/STM32G4xx_HAL_Driver/Inc/stm32g4xx_ll_gpio.h ****                               GPIO HW configuration can be modified afterwards using unitary functi
  90:Drivers/STM32G4xx_HAL_Driver/Inc/stm32g4xx_ll_gpio.h **** 
  91:Drivers/STM32G4xx_HAL_Driver/Inc/stm32g4xx_ll_gpio.h ****   uint32_t Pull;         /*!< Specifies the operating Pull-up/Pull down for the selected pins.
  92:Drivers/STM32G4xx_HAL_Driver/Inc/stm32g4xx_ll_gpio.h ****                               This parameter can be a value of @ref GPIO_LL_EC_PULL.
  93:Drivers/STM32G4xx_HAL_Driver/Inc/stm32g4xx_ll_gpio.h **** 
  94:Drivers/STM32G4xx_HAL_Driver/Inc/stm32g4xx_ll_gpio.h ****                               GPIO HW configuration can be modified afterwards using unitary functi
  95:Drivers/STM32G4xx_HAL_Driver/Inc/stm32g4xx_ll_gpio.h **** 
  96:Drivers/STM32G4xx_HAL_Driver/Inc/stm32g4xx_ll_gpio.h ****   uint32_t Alternate;    /*!< Specifies the Peripheral to be connected to the selected pins.
  97:Drivers/STM32G4xx_HAL_Driver/Inc/stm32g4xx_ll_gpio.h ****                               This parameter can be a value of @ref GPIO_LL_EC_AF.
  98:Drivers/STM32G4xx_HAL_Driver/Inc/stm32g4xx_ll_gpio.h **** 
  99:Drivers/STM32G4xx_HAL_Driver/Inc/stm32g4xx_ll_gpio.h ****                               GPIO HW configuration can be modified afterwards using unitary functi
 100:Drivers/STM32G4xx_HAL_Driver/Inc/stm32g4xx_ll_gpio.h **** } LL_GPIO_InitTypeDef;
 101:Drivers/STM32G4xx_HAL_Driver/Inc/stm32g4xx_ll_gpio.h **** 
 102:Drivers/STM32G4xx_HAL_Driver/Inc/stm32g4xx_ll_gpio.h **** /**
 103:Drivers/STM32G4xx_HAL_Driver/Inc/stm32g4xx_ll_gpio.h ****   * @}
 104:Drivers/STM32G4xx_HAL_Driver/Inc/stm32g4xx_ll_gpio.h ****   */
 105:Drivers/STM32G4xx_HAL_Driver/Inc/stm32g4xx_ll_gpio.h **** #endif /* USE_FULL_LL_DRIVER */
 106:Drivers/STM32G4xx_HAL_Driver/Inc/stm32g4xx_ll_gpio.h **** 
 107:Drivers/STM32G4xx_HAL_Driver/Inc/stm32g4xx_ll_gpio.h **** /* Exported constants --------------------------------------------------------*/
 108:Drivers/STM32G4xx_HAL_Driver/Inc/stm32g4xx_ll_gpio.h **** /** @defgroup GPIO_LL_Exported_Constants GPIO Exported Constants
 109:Drivers/STM32G4xx_HAL_Driver/Inc/stm32g4xx_ll_gpio.h ****   * @{
 110:Drivers/STM32G4xx_HAL_Driver/Inc/stm32g4xx_ll_gpio.h ****   */
 111:Drivers/STM32G4xx_HAL_Driver/Inc/stm32g4xx_ll_gpio.h **** 
 112:Drivers/STM32G4xx_HAL_Driver/Inc/stm32g4xx_ll_gpio.h **** /** @defgroup GPIO_LL_EC_PIN PIN
 113:Drivers/STM32G4xx_HAL_Driver/Inc/stm32g4xx_ll_gpio.h ****   * @{
 114:Drivers/STM32G4xx_HAL_Driver/Inc/stm32g4xx_ll_gpio.h ****   */
 115:Drivers/STM32G4xx_HAL_Driver/Inc/stm32g4xx_ll_gpio.h **** #define LL_GPIO_PIN_0                      GPIO_BSRR_BS0 /*!< Select pin 0 */
 116:Drivers/STM32G4xx_HAL_Driver/Inc/stm32g4xx_ll_gpio.h **** #define LL_GPIO_PIN_1                      GPIO_BSRR_BS1 /*!< Select pin 1 */
 117:Drivers/STM32G4xx_HAL_Driver/Inc/stm32g4xx_ll_gpio.h **** #define LL_GPIO_PIN_2                      GPIO_BSRR_BS2 /*!< Select pin 2 */
 118:Drivers/STM32G4xx_HAL_Driver/Inc/stm32g4xx_ll_gpio.h **** #define LL_GPIO_PIN_3                      GPIO_BSRR_BS3 /*!< Select pin 3 */
 119:Drivers/STM32G4xx_HAL_Driver/Inc/stm32g4xx_ll_gpio.h **** #define LL_GPIO_PIN_4                      GPIO_BSRR_BS4 /*!< Select pin 4 */
 120:Drivers/STM32G4xx_HAL_Driver/Inc/stm32g4xx_ll_gpio.h **** #define LL_GPIO_PIN_5                      GPIO_BSRR_BS5 /*!< Select pin 5 */
 121:Drivers/STM32G4xx_HAL_Driver/Inc/stm32g4xx_ll_gpio.h **** #define LL_GPIO_PIN_6                      GPIO_BSRR_BS6 /*!< Select pin 6 */
 122:Drivers/STM32G4xx_HAL_Driver/Inc/stm32g4xx_ll_gpio.h **** #define LL_GPIO_PIN_7                      GPIO_BSRR_BS7 /*!< Select pin 7 */
 123:Drivers/STM32G4xx_HAL_Driver/Inc/stm32g4xx_ll_gpio.h **** #define LL_GPIO_PIN_8                      GPIO_BSRR_BS8 /*!< Select pin 8 */
 124:Drivers/STM32G4xx_HAL_Driver/Inc/stm32g4xx_ll_gpio.h **** #define LL_GPIO_PIN_9                      GPIO_BSRR_BS9 /*!< Select pin 9 */
 125:Drivers/STM32G4xx_HAL_Driver/Inc/stm32g4xx_ll_gpio.h **** #define LL_GPIO_PIN_10                     GPIO_BSRR_BS10 /*!< Select pin 10 */
 126:Drivers/STM32G4xx_HAL_Driver/Inc/stm32g4xx_ll_gpio.h **** #define LL_GPIO_PIN_11                     GPIO_BSRR_BS11 /*!< Select pin 11 */
 127:Drivers/STM32G4xx_HAL_Driver/Inc/stm32g4xx_ll_gpio.h **** #define LL_GPIO_PIN_12                     GPIO_BSRR_BS12 /*!< Select pin 12 */
 128:Drivers/STM32G4xx_HAL_Driver/Inc/stm32g4xx_ll_gpio.h **** #define LL_GPIO_PIN_13                     GPIO_BSRR_BS13 /*!< Select pin 13 */
 129:Drivers/STM32G4xx_HAL_Driver/Inc/stm32g4xx_ll_gpio.h **** #define LL_GPIO_PIN_14                     GPIO_BSRR_BS14 /*!< Select pin 14 */
 130:Drivers/STM32G4xx_HAL_Driver/Inc/stm32g4xx_ll_gpio.h **** #define LL_GPIO_PIN_15                     GPIO_BSRR_BS15 /*!< Select pin 15 */
 131:Drivers/STM32G4xx_HAL_Driver/Inc/stm32g4xx_ll_gpio.h **** #define LL_GPIO_PIN_ALL                    (GPIO_BSRR_BS0 | GPIO_BSRR_BS1  | GPIO_BSRR_BS2  | \
 132:Drivers/STM32G4xx_HAL_Driver/Inc/stm32g4xx_ll_gpio.h ****                                            GPIO_BSRR_BS3  | GPIO_BSRR_BS4  | GPIO_BSRR_BS5  | \
 133:Drivers/STM32G4xx_HAL_Driver/Inc/stm32g4xx_ll_gpio.h ****                                            GPIO_BSRR_BS6  | GPIO_BSRR_BS7  | GPIO_BSRR_BS8  | \
 134:Drivers/STM32G4xx_HAL_Driver/Inc/stm32g4xx_ll_gpio.h ****                                            GPIO_BSRR_BS9  | GPIO_BSRR_BS10 | GPIO_BSRR_BS11 | \
 135:Drivers/STM32G4xx_HAL_Driver/Inc/stm32g4xx_ll_gpio.h ****                                            GPIO_BSRR_BS12 | GPIO_BSRR_BS13 | GPIO_BSRR_BS14 | \
 136:Drivers/STM32G4xx_HAL_Driver/Inc/stm32g4xx_ll_gpio.h ****                                            GPIO_BSRR_BS15) /*!< Select all pins */
 137:Drivers/STM32G4xx_HAL_Driver/Inc/stm32g4xx_ll_gpio.h **** /**
 138:Drivers/STM32G4xx_HAL_Driver/Inc/stm32g4xx_ll_gpio.h ****   * @}
 139:Drivers/STM32G4xx_HAL_Driver/Inc/stm32g4xx_ll_gpio.h ****   */
 140:Drivers/STM32G4xx_HAL_Driver/Inc/stm32g4xx_ll_gpio.h **** 
ARM GAS  /tmp/cchxaK2W.s 			page 17


 141:Drivers/STM32G4xx_HAL_Driver/Inc/stm32g4xx_ll_gpio.h **** /** @defgroup GPIO_LL_EC_MODE Mode
 142:Drivers/STM32G4xx_HAL_Driver/Inc/stm32g4xx_ll_gpio.h ****   * @{
 143:Drivers/STM32G4xx_HAL_Driver/Inc/stm32g4xx_ll_gpio.h ****   */
 144:Drivers/STM32G4xx_HAL_Driver/Inc/stm32g4xx_ll_gpio.h **** #define LL_GPIO_MODE_INPUT                 (0x00000000U) /*!< Select input mode */
 145:Drivers/STM32G4xx_HAL_Driver/Inc/stm32g4xx_ll_gpio.h **** #define LL_GPIO_MODE_OUTPUT                GPIO_MODER_MODE0_0  /*!< Select output mode */
 146:Drivers/STM32G4xx_HAL_Driver/Inc/stm32g4xx_ll_gpio.h **** #define LL_GPIO_MODE_ALTERNATE             GPIO_MODER_MODE0_1  /*!< Select alternate function mode 
 147:Drivers/STM32G4xx_HAL_Driver/Inc/stm32g4xx_ll_gpio.h **** #define LL_GPIO_MODE_ANALOG                GPIO_MODER_MODE0    /*!< Select analog mode */
 148:Drivers/STM32G4xx_HAL_Driver/Inc/stm32g4xx_ll_gpio.h **** /**
 149:Drivers/STM32G4xx_HAL_Driver/Inc/stm32g4xx_ll_gpio.h ****   * @}
 150:Drivers/STM32G4xx_HAL_Driver/Inc/stm32g4xx_ll_gpio.h ****   */
 151:Drivers/STM32G4xx_HAL_Driver/Inc/stm32g4xx_ll_gpio.h **** 
 152:Drivers/STM32G4xx_HAL_Driver/Inc/stm32g4xx_ll_gpio.h **** /** @defgroup GPIO_LL_EC_OUTPUT Output Type
 153:Drivers/STM32G4xx_HAL_Driver/Inc/stm32g4xx_ll_gpio.h ****   * @{
 154:Drivers/STM32G4xx_HAL_Driver/Inc/stm32g4xx_ll_gpio.h ****   */
 155:Drivers/STM32G4xx_HAL_Driver/Inc/stm32g4xx_ll_gpio.h **** #define LL_GPIO_OUTPUT_PUSHPULL            (0x00000000U) /*!< Select push-pull as output type */
 156:Drivers/STM32G4xx_HAL_Driver/Inc/stm32g4xx_ll_gpio.h **** #define LL_GPIO_OUTPUT_OPENDRAIN           GPIO_OTYPER_OT0 /*!< Select open-drain as output type */
 157:Drivers/STM32G4xx_HAL_Driver/Inc/stm32g4xx_ll_gpio.h **** /**
 158:Drivers/STM32G4xx_HAL_Driver/Inc/stm32g4xx_ll_gpio.h ****   * @}
 159:Drivers/STM32G4xx_HAL_Driver/Inc/stm32g4xx_ll_gpio.h ****   */
 160:Drivers/STM32G4xx_HAL_Driver/Inc/stm32g4xx_ll_gpio.h **** 
 161:Drivers/STM32G4xx_HAL_Driver/Inc/stm32g4xx_ll_gpio.h **** /** @defgroup GPIO_LL_EC_SPEED Output Speed
 162:Drivers/STM32G4xx_HAL_Driver/Inc/stm32g4xx_ll_gpio.h ****   * @{
 163:Drivers/STM32G4xx_HAL_Driver/Inc/stm32g4xx_ll_gpio.h ****   */
 164:Drivers/STM32G4xx_HAL_Driver/Inc/stm32g4xx_ll_gpio.h **** #define LL_GPIO_SPEED_FREQ_LOW             (0x00000000U) /*!< Select I/O low output speed    */
 165:Drivers/STM32G4xx_HAL_Driver/Inc/stm32g4xx_ll_gpio.h **** #define LL_GPIO_SPEED_FREQ_MEDIUM          GPIO_OSPEEDR_OSPEED0_0 /*!< Select I/O medium output spe
 166:Drivers/STM32G4xx_HAL_Driver/Inc/stm32g4xx_ll_gpio.h **** #define LL_GPIO_SPEED_FREQ_HIGH            GPIO_OSPEEDR_OSPEED0_1 /*!< Select I/O fast output speed
 167:Drivers/STM32G4xx_HAL_Driver/Inc/stm32g4xx_ll_gpio.h **** #define LL_GPIO_SPEED_FREQ_VERY_HIGH       GPIO_OSPEEDR_OSPEED0   /*!< Select I/O high output speed
 168:Drivers/STM32G4xx_HAL_Driver/Inc/stm32g4xx_ll_gpio.h **** /**
 169:Drivers/STM32G4xx_HAL_Driver/Inc/stm32g4xx_ll_gpio.h ****   * @}
 170:Drivers/STM32G4xx_HAL_Driver/Inc/stm32g4xx_ll_gpio.h ****   */
 171:Drivers/STM32G4xx_HAL_Driver/Inc/stm32g4xx_ll_gpio.h **** #define LL_GPIO_SPEED_LOW                  LL_GPIO_SPEED_FREQ_LOW
 172:Drivers/STM32G4xx_HAL_Driver/Inc/stm32g4xx_ll_gpio.h **** #define LL_GPIO_SPEED_MEDIUM               LL_GPIO_SPEED_FREQ_MEDIUM
 173:Drivers/STM32G4xx_HAL_Driver/Inc/stm32g4xx_ll_gpio.h **** #define LL_GPIO_SPEED_FAST                 LL_GPIO_SPEED_FREQ_HIGH
 174:Drivers/STM32G4xx_HAL_Driver/Inc/stm32g4xx_ll_gpio.h **** #define LL_GPIO_SPEED_HIGH                 LL_GPIO_SPEED_FREQ_VERY_HIGH
 175:Drivers/STM32G4xx_HAL_Driver/Inc/stm32g4xx_ll_gpio.h **** 
 176:Drivers/STM32G4xx_HAL_Driver/Inc/stm32g4xx_ll_gpio.h **** /** @defgroup GPIO_LL_EC_PULL Pull Up Pull Down
 177:Drivers/STM32G4xx_HAL_Driver/Inc/stm32g4xx_ll_gpio.h ****   * @{
 178:Drivers/STM32G4xx_HAL_Driver/Inc/stm32g4xx_ll_gpio.h ****   */
 179:Drivers/STM32G4xx_HAL_Driver/Inc/stm32g4xx_ll_gpio.h **** #define LL_GPIO_PULL_NO                    (0x00000000U) /*!< Select I/O no pull */
 180:Drivers/STM32G4xx_HAL_Driver/Inc/stm32g4xx_ll_gpio.h **** #define LL_GPIO_PULL_UP                    GPIO_PUPDR_PUPD0_0 /*!< Select I/O pull up */
 181:Drivers/STM32G4xx_HAL_Driver/Inc/stm32g4xx_ll_gpio.h **** #define LL_GPIO_PULL_DOWN                  GPIO_PUPDR_PUPD0_1 /*!< Select I/O pull down */
 182:Drivers/STM32G4xx_HAL_Driver/Inc/stm32g4xx_ll_gpio.h **** /**
 183:Drivers/STM32G4xx_HAL_Driver/Inc/stm32g4xx_ll_gpio.h ****   * @}
 184:Drivers/STM32G4xx_HAL_Driver/Inc/stm32g4xx_ll_gpio.h ****   */
 185:Drivers/STM32G4xx_HAL_Driver/Inc/stm32g4xx_ll_gpio.h **** 
 186:Drivers/STM32G4xx_HAL_Driver/Inc/stm32g4xx_ll_gpio.h **** /** @defgroup GPIO_LL_EC_AF Alternate Function
 187:Drivers/STM32G4xx_HAL_Driver/Inc/stm32g4xx_ll_gpio.h ****   * @{
 188:Drivers/STM32G4xx_HAL_Driver/Inc/stm32g4xx_ll_gpio.h ****   */
 189:Drivers/STM32G4xx_HAL_Driver/Inc/stm32g4xx_ll_gpio.h **** #define LL_GPIO_AF_0                       (0x0000000U) /*!< Select alternate function 0 */
 190:Drivers/STM32G4xx_HAL_Driver/Inc/stm32g4xx_ll_gpio.h **** #define LL_GPIO_AF_1                       (0x0000001U) /*!< Select alternate function 1 */
 191:Drivers/STM32G4xx_HAL_Driver/Inc/stm32g4xx_ll_gpio.h **** #define LL_GPIO_AF_2                       (0x0000002U) /*!< Select alternate function 2 */
 192:Drivers/STM32G4xx_HAL_Driver/Inc/stm32g4xx_ll_gpio.h **** #define LL_GPIO_AF_3                       (0x0000003U) /*!< Select alternate function 3 */
 193:Drivers/STM32G4xx_HAL_Driver/Inc/stm32g4xx_ll_gpio.h **** #define LL_GPIO_AF_4                       (0x0000004U) /*!< Select alternate function 4 */
 194:Drivers/STM32G4xx_HAL_Driver/Inc/stm32g4xx_ll_gpio.h **** #define LL_GPIO_AF_5                       (0x0000005U) /*!< Select alternate function 5 */
 195:Drivers/STM32G4xx_HAL_Driver/Inc/stm32g4xx_ll_gpio.h **** #define LL_GPIO_AF_6                       (0x0000006U) /*!< Select alternate function 6 */
 196:Drivers/STM32G4xx_HAL_Driver/Inc/stm32g4xx_ll_gpio.h **** #define LL_GPIO_AF_7                       (0x0000007U) /*!< Select alternate function 7 */
 197:Drivers/STM32G4xx_HAL_Driver/Inc/stm32g4xx_ll_gpio.h **** #define LL_GPIO_AF_8                       (0x0000008U) /*!< Select alternate function 8 */
ARM GAS  /tmp/cchxaK2W.s 			page 18


 198:Drivers/STM32G4xx_HAL_Driver/Inc/stm32g4xx_ll_gpio.h **** #define LL_GPIO_AF_9                       (0x0000009U) /*!< Select alternate function 9 */
 199:Drivers/STM32G4xx_HAL_Driver/Inc/stm32g4xx_ll_gpio.h **** #define LL_GPIO_AF_10                      (0x000000AU) /*!< Select alternate function 10 */
 200:Drivers/STM32G4xx_HAL_Driver/Inc/stm32g4xx_ll_gpio.h **** #define LL_GPIO_AF_11                      (0x000000BU) /*!< Select alternate function 11 */
 201:Drivers/STM32G4xx_HAL_Driver/Inc/stm32g4xx_ll_gpio.h **** #define LL_GPIO_AF_12                      (0x000000CU) /*!< Select alternate function 12 */
 202:Drivers/STM32G4xx_HAL_Driver/Inc/stm32g4xx_ll_gpio.h **** #define LL_GPIO_AF_13                      (0x000000DU) /*!< Select alternate function 13 */
 203:Drivers/STM32G4xx_HAL_Driver/Inc/stm32g4xx_ll_gpio.h **** #define LL_GPIO_AF_14                      (0x000000EU) /*!< Select alternate function 14 */
 204:Drivers/STM32G4xx_HAL_Driver/Inc/stm32g4xx_ll_gpio.h **** #define LL_GPIO_AF_15                      (0x000000FU) /*!< Select alternate function 15 */
 205:Drivers/STM32G4xx_HAL_Driver/Inc/stm32g4xx_ll_gpio.h **** /**
 206:Drivers/STM32G4xx_HAL_Driver/Inc/stm32g4xx_ll_gpio.h ****   * @}
 207:Drivers/STM32G4xx_HAL_Driver/Inc/stm32g4xx_ll_gpio.h ****   */
 208:Drivers/STM32G4xx_HAL_Driver/Inc/stm32g4xx_ll_gpio.h **** 
 209:Drivers/STM32G4xx_HAL_Driver/Inc/stm32g4xx_ll_gpio.h **** /**
 210:Drivers/STM32G4xx_HAL_Driver/Inc/stm32g4xx_ll_gpio.h ****   * @}
 211:Drivers/STM32G4xx_HAL_Driver/Inc/stm32g4xx_ll_gpio.h ****   */
 212:Drivers/STM32G4xx_HAL_Driver/Inc/stm32g4xx_ll_gpio.h **** 
 213:Drivers/STM32G4xx_HAL_Driver/Inc/stm32g4xx_ll_gpio.h **** /* Exported macro ------------------------------------------------------------*/
 214:Drivers/STM32G4xx_HAL_Driver/Inc/stm32g4xx_ll_gpio.h **** /** @defgroup GPIO_LL_Exported_Macros GPIO Exported Macros
 215:Drivers/STM32G4xx_HAL_Driver/Inc/stm32g4xx_ll_gpio.h ****   * @{
 216:Drivers/STM32G4xx_HAL_Driver/Inc/stm32g4xx_ll_gpio.h ****   */
 217:Drivers/STM32G4xx_HAL_Driver/Inc/stm32g4xx_ll_gpio.h **** 
 218:Drivers/STM32G4xx_HAL_Driver/Inc/stm32g4xx_ll_gpio.h **** /** @defgroup GPIO_LL_EM_WRITE_READ Common Write and read registers Macros
 219:Drivers/STM32G4xx_HAL_Driver/Inc/stm32g4xx_ll_gpio.h ****   * @{
 220:Drivers/STM32G4xx_HAL_Driver/Inc/stm32g4xx_ll_gpio.h ****   */
 221:Drivers/STM32G4xx_HAL_Driver/Inc/stm32g4xx_ll_gpio.h **** 
 222:Drivers/STM32G4xx_HAL_Driver/Inc/stm32g4xx_ll_gpio.h **** /**
 223:Drivers/STM32G4xx_HAL_Driver/Inc/stm32g4xx_ll_gpio.h ****   * @brief  Write a value in GPIO register
 224:Drivers/STM32G4xx_HAL_Driver/Inc/stm32g4xx_ll_gpio.h ****   * @param  __INSTANCE__ GPIO Instance
 225:Drivers/STM32G4xx_HAL_Driver/Inc/stm32g4xx_ll_gpio.h ****   * @param  __REG__ Register to be written
 226:Drivers/STM32G4xx_HAL_Driver/Inc/stm32g4xx_ll_gpio.h ****   * @param  __VALUE__ Value to be written in the register
 227:Drivers/STM32G4xx_HAL_Driver/Inc/stm32g4xx_ll_gpio.h ****   * @retval None
 228:Drivers/STM32G4xx_HAL_Driver/Inc/stm32g4xx_ll_gpio.h ****   */
 229:Drivers/STM32G4xx_HAL_Driver/Inc/stm32g4xx_ll_gpio.h **** #define LL_GPIO_WriteReg(__INSTANCE__, __REG__, __VALUE__) WRITE_REG(__INSTANCE__->__REG__, (__VALU
 230:Drivers/STM32G4xx_HAL_Driver/Inc/stm32g4xx_ll_gpio.h **** 
 231:Drivers/STM32G4xx_HAL_Driver/Inc/stm32g4xx_ll_gpio.h **** /**
 232:Drivers/STM32G4xx_HAL_Driver/Inc/stm32g4xx_ll_gpio.h ****   * @brief  Read a value in GPIO register
 233:Drivers/STM32G4xx_HAL_Driver/Inc/stm32g4xx_ll_gpio.h ****   * @param  __INSTANCE__ GPIO Instance
 234:Drivers/STM32G4xx_HAL_Driver/Inc/stm32g4xx_ll_gpio.h ****   * @param  __REG__ Register to be read
 235:Drivers/STM32G4xx_HAL_Driver/Inc/stm32g4xx_ll_gpio.h ****   * @retval Register value
 236:Drivers/STM32G4xx_HAL_Driver/Inc/stm32g4xx_ll_gpio.h ****   */
 237:Drivers/STM32G4xx_HAL_Driver/Inc/stm32g4xx_ll_gpio.h **** #define LL_GPIO_ReadReg(__INSTANCE__, __REG__) READ_REG(__INSTANCE__->__REG__)
 238:Drivers/STM32G4xx_HAL_Driver/Inc/stm32g4xx_ll_gpio.h **** /**
 239:Drivers/STM32G4xx_HAL_Driver/Inc/stm32g4xx_ll_gpio.h ****   * @}
 240:Drivers/STM32G4xx_HAL_Driver/Inc/stm32g4xx_ll_gpio.h ****   */
 241:Drivers/STM32G4xx_HAL_Driver/Inc/stm32g4xx_ll_gpio.h **** 
 242:Drivers/STM32G4xx_HAL_Driver/Inc/stm32g4xx_ll_gpio.h **** /**
 243:Drivers/STM32G4xx_HAL_Driver/Inc/stm32g4xx_ll_gpio.h ****   * @}
 244:Drivers/STM32G4xx_HAL_Driver/Inc/stm32g4xx_ll_gpio.h ****   */
 245:Drivers/STM32G4xx_HAL_Driver/Inc/stm32g4xx_ll_gpio.h **** 
 246:Drivers/STM32G4xx_HAL_Driver/Inc/stm32g4xx_ll_gpio.h **** /* Exported functions --------------------------------------------------------*/
 247:Drivers/STM32G4xx_HAL_Driver/Inc/stm32g4xx_ll_gpio.h **** /** @defgroup GPIO_LL_Exported_Functions GPIO Exported Functions
 248:Drivers/STM32G4xx_HAL_Driver/Inc/stm32g4xx_ll_gpio.h ****   * @{
 249:Drivers/STM32G4xx_HAL_Driver/Inc/stm32g4xx_ll_gpio.h ****   */
 250:Drivers/STM32G4xx_HAL_Driver/Inc/stm32g4xx_ll_gpio.h **** 
 251:Drivers/STM32G4xx_HAL_Driver/Inc/stm32g4xx_ll_gpio.h **** /** @defgroup GPIO_LL_EF_Port_Configuration Port Configuration
 252:Drivers/STM32G4xx_HAL_Driver/Inc/stm32g4xx_ll_gpio.h ****   * @{
 253:Drivers/STM32G4xx_HAL_Driver/Inc/stm32g4xx_ll_gpio.h ****   */
 254:Drivers/STM32G4xx_HAL_Driver/Inc/stm32g4xx_ll_gpio.h **** 
ARM GAS  /tmp/cchxaK2W.s 			page 19


 255:Drivers/STM32G4xx_HAL_Driver/Inc/stm32g4xx_ll_gpio.h **** /**
 256:Drivers/STM32G4xx_HAL_Driver/Inc/stm32g4xx_ll_gpio.h ****   * @brief  Configure gpio mode for a dedicated pin on dedicated port.
 257:Drivers/STM32G4xx_HAL_Driver/Inc/stm32g4xx_ll_gpio.h ****   * @note   I/O mode can be Input mode, General purpose output, Alternate function mode or Analog.
 258:Drivers/STM32G4xx_HAL_Driver/Inc/stm32g4xx_ll_gpio.h ****   * @note   Warning: only one pin can be passed as parameter.
 259:Drivers/STM32G4xx_HAL_Driver/Inc/stm32g4xx_ll_gpio.h ****   * @rmtoll MODER        MODEy         LL_GPIO_SetPinMode
 260:Drivers/STM32G4xx_HAL_Driver/Inc/stm32g4xx_ll_gpio.h ****   * @param  GPIOx GPIO Port
 261:Drivers/STM32G4xx_HAL_Driver/Inc/stm32g4xx_ll_gpio.h ****   * @param  Pin This parameter can be one of the following values:
 262:Drivers/STM32G4xx_HAL_Driver/Inc/stm32g4xx_ll_gpio.h ****   *         @arg @ref LL_GPIO_PIN_0
 263:Drivers/STM32G4xx_HAL_Driver/Inc/stm32g4xx_ll_gpio.h ****   *         @arg @ref LL_GPIO_PIN_1
 264:Drivers/STM32G4xx_HAL_Driver/Inc/stm32g4xx_ll_gpio.h ****   *         @arg @ref LL_GPIO_PIN_2
 265:Drivers/STM32G4xx_HAL_Driver/Inc/stm32g4xx_ll_gpio.h ****   *         @arg @ref LL_GPIO_PIN_3
 266:Drivers/STM32G4xx_HAL_Driver/Inc/stm32g4xx_ll_gpio.h ****   *         @arg @ref LL_GPIO_PIN_4
 267:Drivers/STM32G4xx_HAL_Driver/Inc/stm32g4xx_ll_gpio.h ****   *         @arg @ref LL_GPIO_PIN_5
 268:Drivers/STM32G4xx_HAL_Driver/Inc/stm32g4xx_ll_gpio.h ****   *         @arg @ref LL_GPIO_PIN_6
 269:Drivers/STM32G4xx_HAL_Driver/Inc/stm32g4xx_ll_gpio.h ****   *         @arg @ref LL_GPIO_PIN_7
 270:Drivers/STM32G4xx_HAL_Driver/Inc/stm32g4xx_ll_gpio.h ****   *         @arg @ref LL_GPIO_PIN_8
 271:Drivers/STM32G4xx_HAL_Driver/Inc/stm32g4xx_ll_gpio.h ****   *         @arg @ref LL_GPIO_PIN_9
 272:Drivers/STM32G4xx_HAL_Driver/Inc/stm32g4xx_ll_gpio.h ****   *         @arg @ref LL_GPIO_PIN_10
 273:Drivers/STM32G4xx_HAL_Driver/Inc/stm32g4xx_ll_gpio.h ****   *         @arg @ref LL_GPIO_PIN_11
 274:Drivers/STM32G4xx_HAL_Driver/Inc/stm32g4xx_ll_gpio.h ****   *         @arg @ref LL_GPIO_PIN_12
 275:Drivers/STM32G4xx_HAL_Driver/Inc/stm32g4xx_ll_gpio.h ****   *         @arg @ref LL_GPIO_PIN_13
 276:Drivers/STM32G4xx_HAL_Driver/Inc/stm32g4xx_ll_gpio.h ****   *         @arg @ref LL_GPIO_PIN_14
 277:Drivers/STM32G4xx_HAL_Driver/Inc/stm32g4xx_ll_gpio.h ****   *         @arg @ref LL_GPIO_PIN_15
 278:Drivers/STM32G4xx_HAL_Driver/Inc/stm32g4xx_ll_gpio.h ****   * @param  Mode This parameter can be one of the following values:
 279:Drivers/STM32G4xx_HAL_Driver/Inc/stm32g4xx_ll_gpio.h ****   *         @arg @ref LL_GPIO_MODE_INPUT
 280:Drivers/STM32G4xx_HAL_Driver/Inc/stm32g4xx_ll_gpio.h ****   *         @arg @ref LL_GPIO_MODE_OUTPUT
 281:Drivers/STM32G4xx_HAL_Driver/Inc/stm32g4xx_ll_gpio.h ****   *         @arg @ref LL_GPIO_MODE_ALTERNATE
 282:Drivers/STM32G4xx_HAL_Driver/Inc/stm32g4xx_ll_gpio.h ****   *         @arg @ref LL_GPIO_MODE_ANALOG
 283:Drivers/STM32G4xx_HAL_Driver/Inc/stm32g4xx_ll_gpio.h ****   * @retval None
 284:Drivers/STM32G4xx_HAL_Driver/Inc/stm32g4xx_ll_gpio.h ****   */
 285:Drivers/STM32G4xx_HAL_Driver/Inc/stm32g4xx_ll_gpio.h **** __STATIC_INLINE void LL_GPIO_SetPinMode(GPIO_TypeDef *GPIOx, uint32_t Pin, uint32_t Mode)
 286:Drivers/STM32G4xx_HAL_Driver/Inc/stm32g4xx_ll_gpio.h **** {
 287:Drivers/STM32G4xx_HAL_Driver/Inc/stm32g4xx_ll_gpio.h ****   MODIFY_REG(GPIOx->MODER, (GPIO_MODER_MODE0 << (POSITION_VAL(Pin) * 2U)), (Mode << (POSITION_VAL(P
 288:Drivers/STM32G4xx_HAL_Driver/Inc/stm32g4xx_ll_gpio.h **** }
 289:Drivers/STM32G4xx_HAL_Driver/Inc/stm32g4xx_ll_gpio.h **** 
 290:Drivers/STM32G4xx_HAL_Driver/Inc/stm32g4xx_ll_gpio.h **** /**
 291:Drivers/STM32G4xx_HAL_Driver/Inc/stm32g4xx_ll_gpio.h ****   * @brief  Return gpio mode for a dedicated pin on dedicated port.
 292:Drivers/STM32G4xx_HAL_Driver/Inc/stm32g4xx_ll_gpio.h ****   * @note   I/O mode can be Input mode, General purpose output, Alternate function mode or Analog.
 293:Drivers/STM32G4xx_HAL_Driver/Inc/stm32g4xx_ll_gpio.h ****   * @note   Warning: only one pin can be passed as parameter.
 294:Drivers/STM32G4xx_HAL_Driver/Inc/stm32g4xx_ll_gpio.h ****   * @rmtoll MODER        MODEy         LL_GPIO_GetPinMode
 295:Drivers/STM32G4xx_HAL_Driver/Inc/stm32g4xx_ll_gpio.h ****   * @param  GPIOx GPIO Port
 296:Drivers/STM32G4xx_HAL_Driver/Inc/stm32g4xx_ll_gpio.h ****   * @param  Pin This parameter can be one of the following values:
 297:Drivers/STM32G4xx_HAL_Driver/Inc/stm32g4xx_ll_gpio.h ****   *         @arg @ref LL_GPIO_PIN_0
 298:Drivers/STM32G4xx_HAL_Driver/Inc/stm32g4xx_ll_gpio.h ****   *         @arg @ref LL_GPIO_PIN_1
 299:Drivers/STM32G4xx_HAL_Driver/Inc/stm32g4xx_ll_gpio.h ****   *         @arg @ref LL_GPIO_PIN_2
 300:Drivers/STM32G4xx_HAL_Driver/Inc/stm32g4xx_ll_gpio.h ****   *         @arg @ref LL_GPIO_PIN_3
 301:Drivers/STM32G4xx_HAL_Driver/Inc/stm32g4xx_ll_gpio.h ****   *         @arg @ref LL_GPIO_PIN_4
 302:Drivers/STM32G4xx_HAL_Driver/Inc/stm32g4xx_ll_gpio.h ****   *         @arg @ref LL_GPIO_PIN_5
 303:Drivers/STM32G4xx_HAL_Driver/Inc/stm32g4xx_ll_gpio.h ****   *         @arg @ref LL_GPIO_PIN_6
 304:Drivers/STM32G4xx_HAL_Driver/Inc/stm32g4xx_ll_gpio.h ****   *         @arg @ref LL_GPIO_PIN_7
 305:Drivers/STM32G4xx_HAL_Driver/Inc/stm32g4xx_ll_gpio.h ****   *         @arg @ref LL_GPIO_PIN_8
 306:Drivers/STM32G4xx_HAL_Driver/Inc/stm32g4xx_ll_gpio.h ****   *         @arg @ref LL_GPIO_PIN_9
 307:Drivers/STM32G4xx_HAL_Driver/Inc/stm32g4xx_ll_gpio.h ****   *         @arg @ref LL_GPIO_PIN_10
 308:Drivers/STM32G4xx_HAL_Driver/Inc/stm32g4xx_ll_gpio.h ****   *         @arg @ref LL_GPIO_PIN_11
 309:Drivers/STM32G4xx_HAL_Driver/Inc/stm32g4xx_ll_gpio.h ****   *         @arg @ref LL_GPIO_PIN_12
 310:Drivers/STM32G4xx_HAL_Driver/Inc/stm32g4xx_ll_gpio.h ****   *         @arg @ref LL_GPIO_PIN_13
 311:Drivers/STM32G4xx_HAL_Driver/Inc/stm32g4xx_ll_gpio.h ****   *         @arg @ref LL_GPIO_PIN_14
ARM GAS  /tmp/cchxaK2W.s 			page 20


 312:Drivers/STM32G4xx_HAL_Driver/Inc/stm32g4xx_ll_gpio.h ****   *         @arg @ref LL_GPIO_PIN_15
 313:Drivers/STM32G4xx_HAL_Driver/Inc/stm32g4xx_ll_gpio.h ****   * @retval Returned value can be one of the following values:
 314:Drivers/STM32G4xx_HAL_Driver/Inc/stm32g4xx_ll_gpio.h ****   *         @arg @ref LL_GPIO_MODE_INPUT
 315:Drivers/STM32G4xx_HAL_Driver/Inc/stm32g4xx_ll_gpio.h ****   *         @arg @ref LL_GPIO_MODE_OUTPUT
 316:Drivers/STM32G4xx_HAL_Driver/Inc/stm32g4xx_ll_gpio.h ****   *         @arg @ref LL_GPIO_MODE_ALTERNATE
 317:Drivers/STM32G4xx_HAL_Driver/Inc/stm32g4xx_ll_gpio.h ****   *         @arg @ref LL_GPIO_MODE_ANALOG
 318:Drivers/STM32G4xx_HAL_Driver/Inc/stm32g4xx_ll_gpio.h ****   */
 319:Drivers/STM32G4xx_HAL_Driver/Inc/stm32g4xx_ll_gpio.h **** __STATIC_INLINE uint32_t LL_GPIO_GetPinMode(GPIO_TypeDef *GPIOx, uint32_t Pin)
 320:Drivers/STM32G4xx_HAL_Driver/Inc/stm32g4xx_ll_gpio.h **** {
 321:Drivers/STM32G4xx_HAL_Driver/Inc/stm32g4xx_ll_gpio.h ****   return (uint32_t)(READ_BIT(GPIOx->MODER,
 322:Drivers/STM32G4xx_HAL_Driver/Inc/stm32g4xx_ll_gpio.h ****                              (GPIO_MODER_MODE0 << (POSITION_VAL(Pin) * 2U))) >> (POSITION_VAL(Pin) 
 323:Drivers/STM32G4xx_HAL_Driver/Inc/stm32g4xx_ll_gpio.h **** }
 324:Drivers/STM32G4xx_HAL_Driver/Inc/stm32g4xx_ll_gpio.h **** 
 325:Drivers/STM32G4xx_HAL_Driver/Inc/stm32g4xx_ll_gpio.h **** /**
 326:Drivers/STM32G4xx_HAL_Driver/Inc/stm32g4xx_ll_gpio.h ****   * @brief  Configure gpio output type for several pins on dedicated port.
 327:Drivers/STM32G4xx_HAL_Driver/Inc/stm32g4xx_ll_gpio.h ****   * @note   Output type as to be set when gpio pin is in output or
 328:Drivers/STM32G4xx_HAL_Driver/Inc/stm32g4xx_ll_gpio.h ****   *         alternate modes. Possible type are Push-pull or Open-drain.
 329:Drivers/STM32G4xx_HAL_Driver/Inc/stm32g4xx_ll_gpio.h ****   * @rmtoll OTYPER       OTy           LL_GPIO_SetPinOutputType
 330:Drivers/STM32G4xx_HAL_Driver/Inc/stm32g4xx_ll_gpio.h ****   * @param  GPIOx GPIO Port
 331:Drivers/STM32G4xx_HAL_Driver/Inc/stm32g4xx_ll_gpio.h ****   * @param  PinMask This parameter can be a combination of the following values:
 332:Drivers/STM32G4xx_HAL_Driver/Inc/stm32g4xx_ll_gpio.h ****   *         @arg @ref LL_GPIO_PIN_0
 333:Drivers/STM32G4xx_HAL_Driver/Inc/stm32g4xx_ll_gpio.h ****   *         @arg @ref LL_GPIO_PIN_1
 334:Drivers/STM32G4xx_HAL_Driver/Inc/stm32g4xx_ll_gpio.h ****   *         @arg @ref LL_GPIO_PIN_2
 335:Drivers/STM32G4xx_HAL_Driver/Inc/stm32g4xx_ll_gpio.h ****   *         @arg @ref LL_GPIO_PIN_3
 336:Drivers/STM32G4xx_HAL_Driver/Inc/stm32g4xx_ll_gpio.h ****   *         @arg @ref LL_GPIO_PIN_4
 337:Drivers/STM32G4xx_HAL_Driver/Inc/stm32g4xx_ll_gpio.h ****   *         @arg @ref LL_GPIO_PIN_5
 338:Drivers/STM32G4xx_HAL_Driver/Inc/stm32g4xx_ll_gpio.h ****   *         @arg @ref LL_GPIO_PIN_6
 339:Drivers/STM32G4xx_HAL_Driver/Inc/stm32g4xx_ll_gpio.h ****   *         @arg @ref LL_GPIO_PIN_7
 340:Drivers/STM32G4xx_HAL_Driver/Inc/stm32g4xx_ll_gpio.h ****   *         @arg @ref LL_GPIO_PIN_8
 341:Drivers/STM32G4xx_HAL_Driver/Inc/stm32g4xx_ll_gpio.h ****   *         @arg @ref LL_GPIO_PIN_9
 342:Drivers/STM32G4xx_HAL_Driver/Inc/stm32g4xx_ll_gpio.h ****   *         @arg @ref LL_GPIO_PIN_10
 343:Drivers/STM32G4xx_HAL_Driver/Inc/stm32g4xx_ll_gpio.h ****   *         @arg @ref LL_GPIO_PIN_11
 344:Drivers/STM32G4xx_HAL_Driver/Inc/stm32g4xx_ll_gpio.h ****   *         @arg @ref LL_GPIO_PIN_12
 345:Drivers/STM32G4xx_HAL_Driver/Inc/stm32g4xx_ll_gpio.h ****   *         @arg @ref LL_GPIO_PIN_13
 346:Drivers/STM32G4xx_HAL_Driver/Inc/stm32g4xx_ll_gpio.h ****   *         @arg @ref LL_GPIO_PIN_14
 347:Drivers/STM32G4xx_HAL_Driver/Inc/stm32g4xx_ll_gpio.h ****   *         @arg @ref LL_GPIO_PIN_15
 348:Drivers/STM32G4xx_HAL_Driver/Inc/stm32g4xx_ll_gpio.h ****   *         @arg @ref LL_GPIO_PIN_ALL
 349:Drivers/STM32G4xx_HAL_Driver/Inc/stm32g4xx_ll_gpio.h ****   * @param  OutputType This parameter can be one of the following values:
 350:Drivers/STM32G4xx_HAL_Driver/Inc/stm32g4xx_ll_gpio.h ****   *         @arg @ref LL_GPIO_OUTPUT_PUSHPULL
 351:Drivers/STM32G4xx_HAL_Driver/Inc/stm32g4xx_ll_gpio.h ****   *         @arg @ref LL_GPIO_OUTPUT_OPENDRAIN
 352:Drivers/STM32G4xx_HAL_Driver/Inc/stm32g4xx_ll_gpio.h ****   * @retval None
 353:Drivers/STM32G4xx_HAL_Driver/Inc/stm32g4xx_ll_gpio.h ****   */
 354:Drivers/STM32G4xx_HAL_Driver/Inc/stm32g4xx_ll_gpio.h **** __STATIC_INLINE void LL_GPIO_SetPinOutputType(GPIO_TypeDef *GPIOx, uint32_t PinMask, uint32_t Outpu
 355:Drivers/STM32G4xx_HAL_Driver/Inc/stm32g4xx_ll_gpio.h **** {
 356:Drivers/STM32G4xx_HAL_Driver/Inc/stm32g4xx_ll_gpio.h ****   MODIFY_REG(GPIOx->OTYPER, PinMask, (PinMask * OutputType));
 357:Drivers/STM32G4xx_HAL_Driver/Inc/stm32g4xx_ll_gpio.h **** }
 358:Drivers/STM32G4xx_HAL_Driver/Inc/stm32g4xx_ll_gpio.h **** 
 359:Drivers/STM32G4xx_HAL_Driver/Inc/stm32g4xx_ll_gpio.h **** /**
 360:Drivers/STM32G4xx_HAL_Driver/Inc/stm32g4xx_ll_gpio.h ****   * @brief  Return gpio output type for several pins on dedicated port.
 361:Drivers/STM32G4xx_HAL_Driver/Inc/stm32g4xx_ll_gpio.h ****   * @note   Output type as to be set when gpio pin is in output or
 362:Drivers/STM32G4xx_HAL_Driver/Inc/stm32g4xx_ll_gpio.h ****   *         alternate modes. Possible type are Push-pull or Open-drain.
 363:Drivers/STM32G4xx_HAL_Driver/Inc/stm32g4xx_ll_gpio.h ****   * @note   Warning: only one pin can be passed as parameter.
 364:Drivers/STM32G4xx_HAL_Driver/Inc/stm32g4xx_ll_gpio.h ****   * @rmtoll OTYPER       OTy           LL_GPIO_GetPinOutputType
 365:Drivers/STM32G4xx_HAL_Driver/Inc/stm32g4xx_ll_gpio.h ****   * @param  GPIOx GPIO Port
 366:Drivers/STM32G4xx_HAL_Driver/Inc/stm32g4xx_ll_gpio.h ****   * @param  Pin This parameter can be one of the following values:
 367:Drivers/STM32G4xx_HAL_Driver/Inc/stm32g4xx_ll_gpio.h ****   *         @arg @ref LL_GPIO_PIN_0
 368:Drivers/STM32G4xx_HAL_Driver/Inc/stm32g4xx_ll_gpio.h ****   *         @arg @ref LL_GPIO_PIN_1
ARM GAS  /tmp/cchxaK2W.s 			page 21


 369:Drivers/STM32G4xx_HAL_Driver/Inc/stm32g4xx_ll_gpio.h ****   *         @arg @ref LL_GPIO_PIN_2
 370:Drivers/STM32G4xx_HAL_Driver/Inc/stm32g4xx_ll_gpio.h ****   *         @arg @ref LL_GPIO_PIN_3
 371:Drivers/STM32G4xx_HAL_Driver/Inc/stm32g4xx_ll_gpio.h ****   *         @arg @ref LL_GPIO_PIN_4
 372:Drivers/STM32G4xx_HAL_Driver/Inc/stm32g4xx_ll_gpio.h ****   *         @arg @ref LL_GPIO_PIN_5
 373:Drivers/STM32G4xx_HAL_Driver/Inc/stm32g4xx_ll_gpio.h ****   *         @arg @ref LL_GPIO_PIN_6
 374:Drivers/STM32G4xx_HAL_Driver/Inc/stm32g4xx_ll_gpio.h ****   *         @arg @ref LL_GPIO_PIN_7
 375:Drivers/STM32G4xx_HAL_Driver/Inc/stm32g4xx_ll_gpio.h ****   *         @arg @ref LL_GPIO_PIN_8
 376:Drivers/STM32G4xx_HAL_Driver/Inc/stm32g4xx_ll_gpio.h ****   *         @arg @ref LL_GPIO_PIN_9
 377:Drivers/STM32G4xx_HAL_Driver/Inc/stm32g4xx_ll_gpio.h ****   *         @arg @ref LL_GPIO_PIN_10
 378:Drivers/STM32G4xx_HAL_Driver/Inc/stm32g4xx_ll_gpio.h ****   *         @arg @ref LL_GPIO_PIN_11
 379:Drivers/STM32G4xx_HAL_Driver/Inc/stm32g4xx_ll_gpio.h ****   *         @arg @ref LL_GPIO_PIN_12
 380:Drivers/STM32G4xx_HAL_Driver/Inc/stm32g4xx_ll_gpio.h ****   *         @arg @ref LL_GPIO_PIN_13
 381:Drivers/STM32G4xx_HAL_Driver/Inc/stm32g4xx_ll_gpio.h ****   *         @arg @ref LL_GPIO_PIN_14
 382:Drivers/STM32G4xx_HAL_Driver/Inc/stm32g4xx_ll_gpio.h ****   *         @arg @ref LL_GPIO_PIN_15
 383:Drivers/STM32G4xx_HAL_Driver/Inc/stm32g4xx_ll_gpio.h ****   *         @arg @ref LL_GPIO_PIN_ALL
 384:Drivers/STM32G4xx_HAL_Driver/Inc/stm32g4xx_ll_gpio.h ****   * @retval Returned value can be one of the following values:
 385:Drivers/STM32G4xx_HAL_Driver/Inc/stm32g4xx_ll_gpio.h ****   *         @arg @ref LL_GPIO_OUTPUT_PUSHPULL
 386:Drivers/STM32G4xx_HAL_Driver/Inc/stm32g4xx_ll_gpio.h ****   *         @arg @ref LL_GPIO_OUTPUT_OPENDRAIN
 387:Drivers/STM32G4xx_HAL_Driver/Inc/stm32g4xx_ll_gpio.h ****   */
 388:Drivers/STM32G4xx_HAL_Driver/Inc/stm32g4xx_ll_gpio.h **** __STATIC_INLINE uint32_t LL_GPIO_GetPinOutputType(GPIO_TypeDef *GPIOx, uint32_t Pin)
 389:Drivers/STM32G4xx_HAL_Driver/Inc/stm32g4xx_ll_gpio.h **** {
 390:Drivers/STM32G4xx_HAL_Driver/Inc/stm32g4xx_ll_gpio.h ****   return (uint32_t)(READ_BIT(GPIOx->OTYPER, Pin) >> POSITION_VAL(Pin));
 391:Drivers/STM32G4xx_HAL_Driver/Inc/stm32g4xx_ll_gpio.h **** }
 392:Drivers/STM32G4xx_HAL_Driver/Inc/stm32g4xx_ll_gpio.h **** 
 393:Drivers/STM32G4xx_HAL_Driver/Inc/stm32g4xx_ll_gpio.h **** /**
 394:Drivers/STM32G4xx_HAL_Driver/Inc/stm32g4xx_ll_gpio.h ****   * @brief  Configure gpio speed for a dedicated pin on dedicated port.
 395:Drivers/STM32G4xx_HAL_Driver/Inc/stm32g4xx_ll_gpio.h ****   * @note   I/O speed can be Low, Medium, Fast or High speed.
 396:Drivers/STM32G4xx_HAL_Driver/Inc/stm32g4xx_ll_gpio.h ****   * @note   Warning: only one pin can be passed as parameter.
 397:Drivers/STM32G4xx_HAL_Driver/Inc/stm32g4xx_ll_gpio.h ****   * @note   Refer to datasheet for frequency specifications and the power
 398:Drivers/STM32G4xx_HAL_Driver/Inc/stm32g4xx_ll_gpio.h ****   *         supply and load conditions for each speed.
 399:Drivers/STM32G4xx_HAL_Driver/Inc/stm32g4xx_ll_gpio.h ****   * @rmtoll OSPEEDR      OSPEEDy       LL_GPIO_SetPinSpeed
 400:Drivers/STM32G4xx_HAL_Driver/Inc/stm32g4xx_ll_gpio.h ****   * @param  GPIOx GPIO Port
 401:Drivers/STM32G4xx_HAL_Driver/Inc/stm32g4xx_ll_gpio.h ****   * @param  Pin This parameter can be one of the following values:
 402:Drivers/STM32G4xx_HAL_Driver/Inc/stm32g4xx_ll_gpio.h ****   *         @arg @ref LL_GPIO_PIN_0
 403:Drivers/STM32G4xx_HAL_Driver/Inc/stm32g4xx_ll_gpio.h ****   *         @arg @ref LL_GPIO_PIN_1
 404:Drivers/STM32G4xx_HAL_Driver/Inc/stm32g4xx_ll_gpio.h ****   *         @arg @ref LL_GPIO_PIN_2
 405:Drivers/STM32G4xx_HAL_Driver/Inc/stm32g4xx_ll_gpio.h ****   *         @arg @ref LL_GPIO_PIN_3
 406:Drivers/STM32G4xx_HAL_Driver/Inc/stm32g4xx_ll_gpio.h ****   *         @arg @ref LL_GPIO_PIN_4
 407:Drivers/STM32G4xx_HAL_Driver/Inc/stm32g4xx_ll_gpio.h ****   *         @arg @ref LL_GPIO_PIN_5
 408:Drivers/STM32G4xx_HAL_Driver/Inc/stm32g4xx_ll_gpio.h ****   *         @arg @ref LL_GPIO_PIN_6
 409:Drivers/STM32G4xx_HAL_Driver/Inc/stm32g4xx_ll_gpio.h ****   *         @arg @ref LL_GPIO_PIN_7
 410:Drivers/STM32G4xx_HAL_Driver/Inc/stm32g4xx_ll_gpio.h ****   *         @arg @ref LL_GPIO_PIN_8
 411:Drivers/STM32G4xx_HAL_Driver/Inc/stm32g4xx_ll_gpio.h ****   *         @arg @ref LL_GPIO_PIN_9
 412:Drivers/STM32G4xx_HAL_Driver/Inc/stm32g4xx_ll_gpio.h ****   *         @arg @ref LL_GPIO_PIN_10
 413:Drivers/STM32G4xx_HAL_Driver/Inc/stm32g4xx_ll_gpio.h ****   *         @arg @ref LL_GPIO_PIN_11
 414:Drivers/STM32G4xx_HAL_Driver/Inc/stm32g4xx_ll_gpio.h ****   *         @arg @ref LL_GPIO_PIN_12
 415:Drivers/STM32G4xx_HAL_Driver/Inc/stm32g4xx_ll_gpio.h ****   *         @arg @ref LL_GPIO_PIN_13
 416:Drivers/STM32G4xx_HAL_Driver/Inc/stm32g4xx_ll_gpio.h ****   *         @arg @ref LL_GPIO_PIN_14
 417:Drivers/STM32G4xx_HAL_Driver/Inc/stm32g4xx_ll_gpio.h ****   *         @arg @ref LL_GPIO_PIN_15
 418:Drivers/STM32G4xx_HAL_Driver/Inc/stm32g4xx_ll_gpio.h ****   * @param  Speed This parameter can be one of the following values:
 419:Drivers/STM32G4xx_HAL_Driver/Inc/stm32g4xx_ll_gpio.h ****   *         @arg @ref LL_GPIO_SPEED_FREQ_LOW
 420:Drivers/STM32G4xx_HAL_Driver/Inc/stm32g4xx_ll_gpio.h ****   *         @arg @ref LL_GPIO_SPEED_FREQ_MEDIUM
 421:Drivers/STM32G4xx_HAL_Driver/Inc/stm32g4xx_ll_gpio.h ****   *         @arg @ref LL_GPIO_SPEED_FREQ_HIGH
 422:Drivers/STM32G4xx_HAL_Driver/Inc/stm32g4xx_ll_gpio.h ****   *         @arg @ref LL_GPIO_SPEED_FREQ_VERY_HIGH
 423:Drivers/STM32G4xx_HAL_Driver/Inc/stm32g4xx_ll_gpio.h ****   * @retval None
 424:Drivers/STM32G4xx_HAL_Driver/Inc/stm32g4xx_ll_gpio.h ****   */
 425:Drivers/STM32G4xx_HAL_Driver/Inc/stm32g4xx_ll_gpio.h **** __STATIC_INLINE void LL_GPIO_SetPinSpeed(GPIO_TypeDef *GPIOx, uint32_t Pin, uint32_t  Speed)
ARM GAS  /tmp/cchxaK2W.s 			page 22


 426:Drivers/STM32G4xx_HAL_Driver/Inc/stm32g4xx_ll_gpio.h **** {
 427:Drivers/STM32G4xx_HAL_Driver/Inc/stm32g4xx_ll_gpio.h ****   MODIFY_REG(GPIOx->OSPEEDR, (GPIO_OSPEEDR_OSPEED0 << (POSITION_VAL(Pin) * 2U)),
 428:Drivers/STM32G4xx_HAL_Driver/Inc/stm32g4xx_ll_gpio.h ****              (Speed << (POSITION_VAL(Pin) * 2U)));
 429:Drivers/STM32G4xx_HAL_Driver/Inc/stm32g4xx_ll_gpio.h **** }
 430:Drivers/STM32G4xx_HAL_Driver/Inc/stm32g4xx_ll_gpio.h **** 
 431:Drivers/STM32G4xx_HAL_Driver/Inc/stm32g4xx_ll_gpio.h **** /**
 432:Drivers/STM32G4xx_HAL_Driver/Inc/stm32g4xx_ll_gpio.h ****   * @brief  Return gpio speed for a dedicated pin on dedicated port.
 433:Drivers/STM32G4xx_HAL_Driver/Inc/stm32g4xx_ll_gpio.h ****   * @note   I/O speed can be Low, Medium, Fast or High speed.
 434:Drivers/STM32G4xx_HAL_Driver/Inc/stm32g4xx_ll_gpio.h ****   * @note   Warning: only one pin can be passed as parameter.
 435:Drivers/STM32G4xx_HAL_Driver/Inc/stm32g4xx_ll_gpio.h ****   * @note   Refer to datasheet for frequency specifications and the power
 436:Drivers/STM32G4xx_HAL_Driver/Inc/stm32g4xx_ll_gpio.h ****   *         supply and load conditions for each speed.
 437:Drivers/STM32G4xx_HAL_Driver/Inc/stm32g4xx_ll_gpio.h ****   * @rmtoll OSPEEDR      OSPEEDy       LL_GPIO_GetPinSpeed
 438:Drivers/STM32G4xx_HAL_Driver/Inc/stm32g4xx_ll_gpio.h ****   * @param  GPIOx GPIO Port
 439:Drivers/STM32G4xx_HAL_Driver/Inc/stm32g4xx_ll_gpio.h ****   * @param  Pin This parameter can be one of the following values:
 440:Drivers/STM32G4xx_HAL_Driver/Inc/stm32g4xx_ll_gpio.h ****   *         @arg @ref LL_GPIO_PIN_0
 441:Drivers/STM32G4xx_HAL_Driver/Inc/stm32g4xx_ll_gpio.h ****   *         @arg @ref LL_GPIO_PIN_1
 442:Drivers/STM32G4xx_HAL_Driver/Inc/stm32g4xx_ll_gpio.h ****   *         @arg @ref LL_GPIO_PIN_2
 443:Drivers/STM32G4xx_HAL_Driver/Inc/stm32g4xx_ll_gpio.h ****   *         @arg @ref LL_GPIO_PIN_3
 444:Drivers/STM32G4xx_HAL_Driver/Inc/stm32g4xx_ll_gpio.h ****   *         @arg @ref LL_GPIO_PIN_4
 445:Drivers/STM32G4xx_HAL_Driver/Inc/stm32g4xx_ll_gpio.h ****   *         @arg @ref LL_GPIO_PIN_5
 446:Drivers/STM32G4xx_HAL_Driver/Inc/stm32g4xx_ll_gpio.h ****   *         @arg @ref LL_GPIO_PIN_6
 447:Drivers/STM32G4xx_HAL_Driver/Inc/stm32g4xx_ll_gpio.h ****   *         @arg @ref LL_GPIO_PIN_7
 448:Drivers/STM32G4xx_HAL_Driver/Inc/stm32g4xx_ll_gpio.h ****   *         @arg @ref LL_GPIO_PIN_8
 449:Drivers/STM32G4xx_HAL_Driver/Inc/stm32g4xx_ll_gpio.h ****   *         @arg @ref LL_GPIO_PIN_9
 450:Drivers/STM32G4xx_HAL_Driver/Inc/stm32g4xx_ll_gpio.h ****   *         @arg @ref LL_GPIO_PIN_10
 451:Drivers/STM32G4xx_HAL_Driver/Inc/stm32g4xx_ll_gpio.h ****   *         @arg @ref LL_GPIO_PIN_11
 452:Drivers/STM32G4xx_HAL_Driver/Inc/stm32g4xx_ll_gpio.h ****   *         @arg @ref LL_GPIO_PIN_12
 453:Drivers/STM32G4xx_HAL_Driver/Inc/stm32g4xx_ll_gpio.h ****   *         @arg @ref LL_GPIO_PIN_13
 454:Drivers/STM32G4xx_HAL_Driver/Inc/stm32g4xx_ll_gpio.h ****   *         @arg @ref LL_GPIO_PIN_14
 455:Drivers/STM32G4xx_HAL_Driver/Inc/stm32g4xx_ll_gpio.h ****   *         @arg @ref LL_GPIO_PIN_15
 456:Drivers/STM32G4xx_HAL_Driver/Inc/stm32g4xx_ll_gpio.h ****   * @retval Returned value can be one of the following values:
 457:Drivers/STM32G4xx_HAL_Driver/Inc/stm32g4xx_ll_gpio.h ****   *         @arg @ref LL_GPIO_SPEED_FREQ_LOW
 458:Drivers/STM32G4xx_HAL_Driver/Inc/stm32g4xx_ll_gpio.h ****   *         @arg @ref LL_GPIO_SPEED_FREQ_MEDIUM
 459:Drivers/STM32G4xx_HAL_Driver/Inc/stm32g4xx_ll_gpio.h ****   *         @arg @ref LL_GPIO_SPEED_FREQ_HIGH
 460:Drivers/STM32G4xx_HAL_Driver/Inc/stm32g4xx_ll_gpio.h ****   *         @arg @ref LL_GPIO_SPEED_FREQ_VERY_HIGH
 461:Drivers/STM32G4xx_HAL_Driver/Inc/stm32g4xx_ll_gpio.h ****   */
 462:Drivers/STM32G4xx_HAL_Driver/Inc/stm32g4xx_ll_gpio.h **** __STATIC_INLINE uint32_t LL_GPIO_GetPinSpeed(GPIO_TypeDef *GPIOx, uint32_t Pin)
 463:Drivers/STM32G4xx_HAL_Driver/Inc/stm32g4xx_ll_gpio.h **** {
 464:Drivers/STM32G4xx_HAL_Driver/Inc/stm32g4xx_ll_gpio.h ****   return (uint32_t)(READ_BIT(GPIOx->OSPEEDR,
 465:Drivers/STM32G4xx_HAL_Driver/Inc/stm32g4xx_ll_gpio.h ****                              (GPIO_OSPEEDR_OSPEED0 << (POSITION_VAL(Pin) * 2U))) >> (POSITION_VAL(P
 466:Drivers/STM32G4xx_HAL_Driver/Inc/stm32g4xx_ll_gpio.h **** }
 467:Drivers/STM32G4xx_HAL_Driver/Inc/stm32g4xx_ll_gpio.h **** 
 468:Drivers/STM32G4xx_HAL_Driver/Inc/stm32g4xx_ll_gpio.h **** /**
 469:Drivers/STM32G4xx_HAL_Driver/Inc/stm32g4xx_ll_gpio.h ****   * @brief  Configure gpio pull-up or pull-down for a dedicated pin on a dedicated port.
 470:Drivers/STM32G4xx_HAL_Driver/Inc/stm32g4xx_ll_gpio.h ****   * @note   Warning: only one pin can be passed as parameter.
 471:Drivers/STM32G4xx_HAL_Driver/Inc/stm32g4xx_ll_gpio.h ****   * @rmtoll PUPDR        PUPDy         LL_GPIO_SetPinPull
 472:Drivers/STM32G4xx_HAL_Driver/Inc/stm32g4xx_ll_gpio.h ****   * @param  GPIOx GPIO Port
 473:Drivers/STM32G4xx_HAL_Driver/Inc/stm32g4xx_ll_gpio.h ****   * @param  Pin This parameter can be one of the following values:
 474:Drivers/STM32G4xx_HAL_Driver/Inc/stm32g4xx_ll_gpio.h ****   *         @arg @ref LL_GPIO_PIN_0
 475:Drivers/STM32G4xx_HAL_Driver/Inc/stm32g4xx_ll_gpio.h ****   *         @arg @ref LL_GPIO_PIN_1
 476:Drivers/STM32G4xx_HAL_Driver/Inc/stm32g4xx_ll_gpio.h ****   *         @arg @ref LL_GPIO_PIN_2
 477:Drivers/STM32G4xx_HAL_Driver/Inc/stm32g4xx_ll_gpio.h ****   *         @arg @ref LL_GPIO_PIN_3
 478:Drivers/STM32G4xx_HAL_Driver/Inc/stm32g4xx_ll_gpio.h ****   *         @arg @ref LL_GPIO_PIN_4
 479:Drivers/STM32G4xx_HAL_Driver/Inc/stm32g4xx_ll_gpio.h ****   *         @arg @ref LL_GPIO_PIN_5
 480:Drivers/STM32G4xx_HAL_Driver/Inc/stm32g4xx_ll_gpio.h ****   *         @arg @ref LL_GPIO_PIN_6
 481:Drivers/STM32G4xx_HAL_Driver/Inc/stm32g4xx_ll_gpio.h ****   *         @arg @ref LL_GPIO_PIN_7
 482:Drivers/STM32G4xx_HAL_Driver/Inc/stm32g4xx_ll_gpio.h ****   *         @arg @ref LL_GPIO_PIN_8
ARM GAS  /tmp/cchxaK2W.s 			page 23


 483:Drivers/STM32G4xx_HAL_Driver/Inc/stm32g4xx_ll_gpio.h ****   *         @arg @ref LL_GPIO_PIN_9
 484:Drivers/STM32G4xx_HAL_Driver/Inc/stm32g4xx_ll_gpio.h ****   *         @arg @ref LL_GPIO_PIN_10
 485:Drivers/STM32G4xx_HAL_Driver/Inc/stm32g4xx_ll_gpio.h ****   *         @arg @ref LL_GPIO_PIN_11
 486:Drivers/STM32G4xx_HAL_Driver/Inc/stm32g4xx_ll_gpio.h ****   *         @arg @ref LL_GPIO_PIN_12
 487:Drivers/STM32G4xx_HAL_Driver/Inc/stm32g4xx_ll_gpio.h ****   *         @arg @ref LL_GPIO_PIN_13
 488:Drivers/STM32G4xx_HAL_Driver/Inc/stm32g4xx_ll_gpio.h ****   *         @arg @ref LL_GPIO_PIN_14
 489:Drivers/STM32G4xx_HAL_Driver/Inc/stm32g4xx_ll_gpio.h ****   *         @arg @ref LL_GPIO_PIN_15
 490:Drivers/STM32G4xx_HAL_Driver/Inc/stm32g4xx_ll_gpio.h ****   * @param  Pull This parameter can be one of the following values:
 491:Drivers/STM32G4xx_HAL_Driver/Inc/stm32g4xx_ll_gpio.h ****   *         @arg @ref LL_GPIO_PULL_NO
 492:Drivers/STM32G4xx_HAL_Driver/Inc/stm32g4xx_ll_gpio.h ****   *         @arg @ref LL_GPIO_PULL_UP
 493:Drivers/STM32G4xx_HAL_Driver/Inc/stm32g4xx_ll_gpio.h ****   *         @arg @ref LL_GPIO_PULL_DOWN
 494:Drivers/STM32G4xx_HAL_Driver/Inc/stm32g4xx_ll_gpio.h ****   * @retval None
 495:Drivers/STM32G4xx_HAL_Driver/Inc/stm32g4xx_ll_gpio.h ****   */
 496:Drivers/STM32G4xx_HAL_Driver/Inc/stm32g4xx_ll_gpio.h **** __STATIC_INLINE void LL_GPIO_SetPinPull(GPIO_TypeDef *GPIOx, uint32_t Pin, uint32_t Pull)
 497:Drivers/STM32G4xx_HAL_Driver/Inc/stm32g4xx_ll_gpio.h **** {
 498:Drivers/STM32G4xx_HAL_Driver/Inc/stm32g4xx_ll_gpio.h ****   MODIFY_REG(GPIOx->PUPDR, (GPIO_PUPDR_PUPD0 << (POSITION_VAL(Pin) * 2U)), (Pull << (POSITION_VAL(P
 499:Drivers/STM32G4xx_HAL_Driver/Inc/stm32g4xx_ll_gpio.h **** }
 500:Drivers/STM32G4xx_HAL_Driver/Inc/stm32g4xx_ll_gpio.h **** 
 501:Drivers/STM32G4xx_HAL_Driver/Inc/stm32g4xx_ll_gpio.h **** /**
 502:Drivers/STM32G4xx_HAL_Driver/Inc/stm32g4xx_ll_gpio.h ****   * @brief  Return gpio pull-up or pull-down for a dedicated pin on a dedicated port
 503:Drivers/STM32G4xx_HAL_Driver/Inc/stm32g4xx_ll_gpio.h ****   * @note   Warning: only one pin can be passed as parameter.
 504:Drivers/STM32G4xx_HAL_Driver/Inc/stm32g4xx_ll_gpio.h ****   * @rmtoll PUPDR        PUPDy         LL_GPIO_GetPinPull
 505:Drivers/STM32G4xx_HAL_Driver/Inc/stm32g4xx_ll_gpio.h ****   * @param  GPIOx GPIO Port
 506:Drivers/STM32G4xx_HAL_Driver/Inc/stm32g4xx_ll_gpio.h ****   * @param  Pin This parameter can be one of the following values:
 507:Drivers/STM32G4xx_HAL_Driver/Inc/stm32g4xx_ll_gpio.h ****   *         @arg @ref LL_GPIO_PIN_0
 508:Drivers/STM32G4xx_HAL_Driver/Inc/stm32g4xx_ll_gpio.h ****   *         @arg @ref LL_GPIO_PIN_1
 509:Drivers/STM32G4xx_HAL_Driver/Inc/stm32g4xx_ll_gpio.h ****   *         @arg @ref LL_GPIO_PIN_2
 510:Drivers/STM32G4xx_HAL_Driver/Inc/stm32g4xx_ll_gpio.h ****   *         @arg @ref LL_GPIO_PIN_3
 511:Drivers/STM32G4xx_HAL_Driver/Inc/stm32g4xx_ll_gpio.h ****   *         @arg @ref LL_GPIO_PIN_4
 512:Drivers/STM32G4xx_HAL_Driver/Inc/stm32g4xx_ll_gpio.h ****   *         @arg @ref LL_GPIO_PIN_5
 513:Drivers/STM32G4xx_HAL_Driver/Inc/stm32g4xx_ll_gpio.h ****   *         @arg @ref LL_GPIO_PIN_6
 514:Drivers/STM32G4xx_HAL_Driver/Inc/stm32g4xx_ll_gpio.h ****   *         @arg @ref LL_GPIO_PIN_7
 515:Drivers/STM32G4xx_HAL_Driver/Inc/stm32g4xx_ll_gpio.h ****   *         @arg @ref LL_GPIO_PIN_8
 516:Drivers/STM32G4xx_HAL_Driver/Inc/stm32g4xx_ll_gpio.h ****   *         @arg @ref LL_GPIO_PIN_9
 517:Drivers/STM32G4xx_HAL_Driver/Inc/stm32g4xx_ll_gpio.h ****   *         @arg @ref LL_GPIO_PIN_10
 518:Drivers/STM32G4xx_HAL_Driver/Inc/stm32g4xx_ll_gpio.h ****   *         @arg @ref LL_GPIO_PIN_11
 519:Drivers/STM32G4xx_HAL_Driver/Inc/stm32g4xx_ll_gpio.h ****   *         @arg @ref LL_GPIO_PIN_12
 520:Drivers/STM32G4xx_HAL_Driver/Inc/stm32g4xx_ll_gpio.h ****   *         @arg @ref LL_GPIO_PIN_13
 521:Drivers/STM32G4xx_HAL_Driver/Inc/stm32g4xx_ll_gpio.h ****   *         @arg @ref LL_GPIO_PIN_14
 522:Drivers/STM32G4xx_HAL_Driver/Inc/stm32g4xx_ll_gpio.h ****   *         @arg @ref LL_GPIO_PIN_15
 523:Drivers/STM32G4xx_HAL_Driver/Inc/stm32g4xx_ll_gpio.h ****   * @retval Returned value can be one of the following values:
 524:Drivers/STM32G4xx_HAL_Driver/Inc/stm32g4xx_ll_gpio.h ****   *         @arg @ref LL_GPIO_PULL_NO
 525:Drivers/STM32G4xx_HAL_Driver/Inc/stm32g4xx_ll_gpio.h ****   *         @arg @ref LL_GPIO_PULL_UP
 526:Drivers/STM32G4xx_HAL_Driver/Inc/stm32g4xx_ll_gpio.h ****   *         @arg @ref LL_GPIO_PULL_DOWN
 527:Drivers/STM32G4xx_HAL_Driver/Inc/stm32g4xx_ll_gpio.h ****   */
 528:Drivers/STM32G4xx_HAL_Driver/Inc/stm32g4xx_ll_gpio.h **** __STATIC_INLINE uint32_t LL_GPIO_GetPinPull(GPIO_TypeDef *GPIOx, uint32_t Pin)
 529:Drivers/STM32G4xx_HAL_Driver/Inc/stm32g4xx_ll_gpio.h **** {
 530:Drivers/STM32G4xx_HAL_Driver/Inc/stm32g4xx_ll_gpio.h ****   return (uint32_t)(READ_BIT(GPIOx->PUPDR,
 531:Drivers/STM32G4xx_HAL_Driver/Inc/stm32g4xx_ll_gpio.h ****                              (GPIO_PUPDR_PUPD0 << (POSITION_VAL(Pin) * 2U))) >> (POSITION_VAL(Pin) 
 532:Drivers/STM32G4xx_HAL_Driver/Inc/stm32g4xx_ll_gpio.h **** }
 533:Drivers/STM32G4xx_HAL_Driver/Inc/stm32g4xx_ll_gpio.h **** 
 534:Drivers/STM32G4xx_HAL_Driver/Inc/stm32g4xx_ll_gpio.h **** /**
 535:Drivers/STM32G4xx_HAL_Driver/Inc/stm32g4xx_ll_gpio.h ****   * @brief  Configure gpio alternate function of a dedicated pin from 0 to 7 for a dedicated port.
 536:Drivers/STM32G4xx_HAL_Driver/Inc/stm32g4xx_ll_gpio.h ****   * @note   Possible values are from AF0 to AF15 depending on target.
 537:Drivers/STM32G4xx_HAL_Driver/Inc/stm32g4xx_ll_gpio.h ****   * @note   Warning: only one pin can be passed as parameter.
 538:Drivers/STM32G4xx_HAL_Driver/Inc/stm32g4xx_ll_gpio.h ****   * @rmtoll AFRL         AFSELy        LL_GPIO_SetAFPin_0_7
 539:Drivers/STM32G4xx_HAL_Driver/Inc/stm32g4xx_ll_gpio.h ****   * @param  GPIOx GPIO Port
ARM GAS  /tmp/cchxaK2W.s 			page 24


 540:Drivers/STM32G4xx_HAL_Driver/Inc/stm32g4xx_ll_gpio.h ****   * @param  Pin This parameter can be one of the following values:
 541:Drivers/STM32G4xx_HAL_Driver/Inc/stm32g4xx_ll_gpio.h ****   *         @arg @ref LL_GPIO_PIN_0
 542:Drivers/STM32G4xx_HAL_Driver/Inc/stm32g4xx_ll_gpio.h ****   *         @arg @ref LL_GPIO_PIN_1
 543:Drivers/STM32G4xx_HAL_Driver/Inc/stm32g4xx_ll_gpio.h ****   *         @arg @ref LL_GPIO_PIN_2
 544:Drivers/STM32G4xx_HAL_Driver/Inc/stm32g4xx_ll_gpio.h ****   *         @arg @ref LL_GPIO_PIN_3
 545:Drivers/STM32G4xx_HAL_Driver/Inc/stm32g4xx_ll_gpio.h ****   *         @arg @ref LL_GPIO_PIN_4
 546:Drivers/STM32G4xx_HAL_Driver/Inc/stm32g4xx_ll_gpio.h ****   *         @arg @ref LL_GPIO_PIN_5
 547:Drivers/STM32G4xx_HAL_Driver/Inc/stm32g4xx_ll_gpio.h ****   *         @arg @ref LL_GPIO_PIN_6
 548:Drivers/STM32G4xx_HAL_Driver/Inc/stm32g4xx_ll_gpio.h ****   *         @arg @ref LL_GPIO_PIN_7
 549:Drivers/STM32G4xx_HAL_Driver/Inc/stm32g4xx_ll_gpio.h ****   * @param  Alternate This parameter can be one of the following values:
 550:Drivers/STM32G4xx_HAL_Driver/Inc/stm32g4xx_ll_gpio.h ****   *         @arg @ref LL_GPIO_AF_0
 551:Drivers/STM32G4xx_HAL_Driver/Inc/stm32g4xx_ll_gpio.h ****   *         @arg @ref LL_GPIO_AF_1
 552:Drivers/STM32G4xx_HAL_Driver/Inc/stm32g4xx_ll_gpio.h ****   *         @arg @ref LL_GPIO_AF_2
 553:Drivers/STM32G4xx_HAL_Driver/Inc/stm32g4xx_ll_gpio.h ****   *         @arg @ref LL_GPIO_AF_3
 554:Drivers/STM32G4xx_HAL_Driver/Inc/stm32g4xx_ll_gpio.h ****   *         @arg @ref LL_GPIO_AF_4
 555:Drivers/STM32G4xx_HAL_Driver/Inc/stm32g4xx_ll_gpio.h ****   *         @arg @ref LL_GPIO_AF_5
 556:Drivers/STM32G4xx_HAL_Driver/Inc/stm32g4xx_ll_gpio.h ****   *         @arg @ref LL_GPIO_AF_6
 557:Drivers/STM32G4xx_HAL_Driver/Inc/stm32g4xx_ll_gpio.h ****   *         @arg @ref LL_GPIO_AF_7
 558:Drivers/STM32G4xx_HAL_Driver/Inc/stm32g4xx_ll_gpio.h ****   *         @arg @ref LL_GPIO_AF_8
 559:Drivers/STM32G4xx_HAL_Driver/Inc/stm32g4xx_ll_gpio.h ****   *         @arg @ref LL_GPIO_AF_9
 560:Drivers/STM32G4xx_HAL_Driver/Inc/stm32g4xx_ll_gpio.h ****   *         @arg @ref LL_GPIO_AF_10
 561:Drivers/STM32G4xx_HAL_Driver/Inc/stm32g4xx_ll_gpio.h ****   *         @arg @ref LL_GPIO_AF_11
 562:Drivers/STM32G4xx_HAL_Driver/Inc/stm32g4xx_ll_gpio.h ****   *         @arg @ref LL_GPIO_AF_12
 563:Drivers/STM32G4xx_HAL_Driver/Inc/stm32g4xx_ll_gpio.h ****   *         @arg @ref LL_GPIO_AF_13
 564:Drivers/STM32G4xx_HAL_Driver/Inc/stm32g4xx_ll_gpio.h ****   *         @arg @ref LL_GPIO_AF_14
 565:Drivers/STM32G4xx_HAL_Driver/Inc/stm32g4xx_ll_gpio.h ****   *         @arg @ref LL_GPIO_AF_15
 566:Drivers/STM32G4xx_HAL_Driver/Inc/stm32g4xx_ll_gpio.h ****   * @retval None
 567:Drivers/STM32G4xx_HAL_Driver/Inc/stm32g4xx_ll_gpio.h ****   */
 568:Drivers/STM32G4xx_HAL_Driver/Inc/stm32g4xx_ll_gpio.h **** __STATIC_INLINE void LL_GPIO_SetAFPin_0_7(GPIO_TypeDef *GPIOx, uint32_t Pin, uint32_t Alternate)
 569:Drivers/STM32G4xx_HAL_Driver/Inc/stm32g4xx_ll_gpio.h **** {
 570:Drivers/STM32G4xx_HAL_Driver/Inc/stm32g4xx_ll_gpio.h ****   MODIFY_REG(GPIOx->AFR[0], (GPIO_AFRL_AFSEL0 << (POSITION_VAL(Pin) * 4U)),
 571:Drivers/STM32G4xx_HAL_Driver/Inc/stm32g4xx_ll_gpio.h ****              (Alternate << (POSITION_VAL(Pin) * 4U)));
 572:Drivers/STM32G4xx_HAL_Driver/Inc/stm32g4xx_ll_gpio.h **** }
 573:Drivers/STM32G4xx_HAL_Driver/Inc/stm32g4xx_ll_gpio.h **** 
 574:Drivers/STM32G4xx_HAL_Driver/Inc/stm32g4xx_ll_gpio.h **** /**
 575:Drivers/STM32G4xx_HAL_Driver/Inc/stm32g4xx_ll_gpio.h ****   * @brief  Return gpio alternate function of a dedicated pin from 0 to 7 for a dedicated port.
 576:Drivers/STM32G4xx_HAL_Driver/Inc/stm32g4xx_ll_gpio.h ****   * @rmtoll AFRL         AFSELy        LL_GPIO_GetAFPin_0_7
 577:Drivers/STM32G4xx_HAL_Driver/Inc/stm32g4xx_ll_gpio.h ****   * @param  GPIOx GPIO Port
 578:Drivers/STM32G4xx_HAL_Driver/Inc/stm32g4xx_ll_gpio.h ****   * @param  Pin This parameter can be one of the following values:
 579:Drivers/STM32G4xx_HAL_Driver/Inc/stm32g4xx_ll_gpio.h ****   *         @arg @ref LL_GPIO_PIN_0
 580:Drivers/STM32G4xx_HAL_Driver/Inc/stm32g4xx_ll_gpio.h ****   *         @arg @ref LL_GPIO_PIN_1
 581:Drivers/STM32G4xx_HAL_Driver/Inc/stm32g4xx_ll_gpio.h ****   *         @arg @ref LL_GPIO_PIN_2
 582:Drivers/STM32G4xx_HAL_Driver/Inc/stm32g4xx_ll_gpio.h ****   *         @arg @ref LL_GPIO_PIN_3
 583:Drivers/STM32G4xx_HAL_Driver/Inc/stm32g4xx_ll_gpio.h ****   *         @arg @ref LL_GPIO_PIN_4
 584:Drivers/STM32G4xx_HAL_Driver/Inc/stm32g4xx_ll_gpio.h ****   *         @arg @ref LL_GPIO_PIN_5
 585:Drivers/STM32G4xx_HAL_Driver/Inc/stm32g4xx_ll_gpio.h ****   *         @arg @ref LL_GPIO_PIN_6
 586:Drivers/STM32G4xx_HAL_Driver/Inc/stm32g4xx_ll_gpio.h ****   *         @arg @ref LL_GPIO_PIN_7
 587:Drivers/STM32G4xx_HAL_Driver/Inc/stm32g4xx_ll_gpio.h ****   * @retval Returned value can be one of the following values:
 588:Drivers/STM32G4xx_HAL_Driver/Inc/stm32g4xx_ll_gpio.h ****   *         @arg @ref LL_GPIO_AF_0
 589:Drivers/STM32G4xx_HAL_Driver/Inc/stm32g4xx_ll_gpio.h ****   *         @arg @ref LL_GPIO_AF_1
 590:Drivers/STM32G4xx_HAL_Driver/Inc/stm32g4xx_ll_gpio.h ****   *         @arg @ref LL_GPIO_AF_2
 591:Drivers/STM32G4xx_HAL_Driver/Inc/stm32g4xx_ll_gpio.h ****   *         @arg @ref LL_GPIO_AF_3
 592:Drivers/STM32G4xx_HAL_Driver/Inc/stm32g4xx_ll_gpio.h ****   *         @arg @ref LL_GPIO_AF_4
 593:Drivers/STM32G4xx_HAL_Driver/Inc/stm32g4xx_ll_gpio.h ****   *         @arg @ref LL_GPIO_AF_5
 594:Drivers/STM32G4xx_HAL_Driver/Inc/stm32g4xx_ll_gpio.h ****   *         @arg @ref LL_GPIO_AF_6
 595:Drivers/STM32G4xx_HAL_Driver/Inc/stm32g4xx_ll_gpio.h ****   *         @arg @ref LL_GPIO_AF_7
 596:Drivers/STM32G4xx_HAL_Driver/Inc/stm32g4xx_ll_gpio.h ****   *         @arg @ref LL_GPIO_AF_8
ARM GAS  /tmp/cchxaK2W.s 			page 25


 597:Drivers/STM32G4xx_HAL_Driver/Inc/stm32g4xx_ll_gpio.h ****   *         @arg @ref LL_GPIO_AF_9
 598:Drivers/STM32G4xx_HAL_Driver/Inc/stm32g4xx_ll_gpio.h ****   *         @arg @ref LL_GPIO_AF_10
 599:Drivers/STM32G4xx_HAL_Driver/Inc/stm32g4xx_ll_gpio.h ****   *         @arg @ref LL_GPIO_AF_11
 600:Drivers/STM32G4xx_HAL_Driver/Inc/stm32g4xx_ll_gpio.h ****   *         @arg @ref LL_GPIO_AF_12
 601:Drivers/STM32G4xx_HAL_Driver/Inc/stm32g4xx_ll_gpio.h ****   *         @arg @ref LL_GPIO_AF_13
 602:Drivers/STM32G4xx_HAL_Driver/Inc/stm32g4xx_ll_gpio.h ****   *         @arg @ref LL_GPIO_AF_14
 603:Drivers/STM32G4xx_HAL_Driver/Inc/stm32g4xx_ll_gpio.h ****   *         @arg @ref LL_GPIO_AF_15
 604:Drivers/STM32G4xx_HAL_Driver/Inc/stm32g4xx_ll_gpio.h ****   */
 605:Drivers/STM32G4xx_HAL_Driver/Inc/stm32g4xx_ll_gpio.h **** __STATIC_INLINE uint32_t LL_GPIO_GetAFPin_0_7(GPIO_TypeDef *GPIOx, uint32_t Pin)
 606:Drivers/STM32G4xx_HAL_Driver/Inc/stm32g4xx_ll_gpio.h **** {
 607:Drivers/STM32G4xx_HAL_Driver/Inc/stm32g4xx_ll_gpio.h ****   return (uint32_t)(READ_BIT(GPIOx->AFR[0],
 608:Drivers/STM32G4xx_HAL_Driver/Inc/stm32g4xx_ll_gpio.h ****                              (GPIO_AFRL_AFSEL0 << (POSITION_VAL(Pin) * 4U))) >> (POSITION_VAL(Pin) 
 609:Drivers/STM32G4xx_HAL_Driver/Inc/stm32g4xx_ll_gpio.h **** }
 610:Drivers/STM32G4xx_HAL_Driver/Inc/stm32g4xx_ll_gpio.h **** 
 611:Drivers/STM32G4xx_HAL_Driver/Inc/stm32g4xx_ll_gpio.h **** /**
 612:Drivers/STM32G4xx_HAL_Driver/Inc/stm32g4xx_ll_gpio.h ****   * @brief  Configure gpio alternate function of a dedicated pin from 8 to 15 for a dedicated port.
 613:Drivers/STM32G4xx_HAL_Driver/Inc/stm32g4xx_ll_gpio.h ****   * @note   Possible values are from AF0 to AF15 depending on target.
 614:Drivers/STM32G4xx_HAL_Driver/Inc/stm32g4xx_ll_gpio.h ****   * @note   Warning: only one pin can be passed as parameter.
 615:Drivers/STM32G4xx_HAL_Driver/Inc/stm32g4xx_ll_gpio.h ****   * @rmtoll AFRH         AFSELy        LL_GPIO_SetAFPin_8_15
 616:Drivers/STM32G4xx_HAL_Driver/Inc/stm32g4xx_ll_gpio.h ****   * @param  GPIOx GPIO Port
 617:Drivers/STM32G4xx_HAL_Driver/Inc/stm32g4xx_ll_gpio.h ****   * @param  Pin This parameter can be one of the following values:
 618:Drivers/STM32G4xx_HAL_Driver/Inc/stm32g4xx_ll_gpio.h ****   *         @arg @ref LL_GPIO_PIN_8
 619:Drivers/STM32G4xx_HAL_Driver/Inc/stm32g4xx_ll_gpio.h ****   *         @arg @ref LL_GPIO_PIN_9
 620:Drivers/STM32G4xx_HAL_Driver/Inc/stm32g4xx_ll_gpio.h ****   *         @arg @ref LL_GPIO_PIN_10
 621:Drivers/STM32G4xx_HAL_Driver/Inc/stm32g4xx_ll_gpio.h ****   *         @arg @ref LL_GPIO_PIN_11
 622:Drivers/STM32G4xx_HAL_Driver/Inc/stm32g4xx_ll_gpio.h ****   *         @arg @ref LL_GPIO_PIN_12
 623:Drivers/STM32G4xx_HAL_Driver/Inc/stm32g4xx_ll_gpio.h ****   *         @arg @ref LL_GPIO_PIN_13
 624:Drivers/STM32G4xx_HAL_Driver/Inc/stm32g4xx_ll_gpio.h ****   *         @arg @ref LL_GPIO_PIN_14
 625:Drivers/STM32G4xx_HAL_Driver/Inc/stm32g4xx_ll_gpio.h ****   *         @arg @ref LL_GPIO_PIN_15
 626:Drivers/STM32G4xx_HAL_Driver/Inc/stm32g4xx_ll_gpio.h ****   * @param  Alternate This parameter can be one of the following values:
 627:Drivers/STM32G4xx_HAL_Driver/Inc/stm32g4xx_ll_gpio.h ****   *         @arg @ref LL_GPIO_AF_0
 628:Drivers/STM32G4xx_HAL_Driver/Inc/stm32g4xx_ll_gpio.h ****   *         @arg @ref LL_GPIO_AF_1
 629:Drivers/STM32G4xx_HAL_Driver/Inc/stm32g4xx_ll_gpio.h ****   *         @arg @ref LL_GPIO_AF_2
 630:Drivers/STM32G4xx_HAL_Driver/Inc/stm32g4xx_ll_gpio.h ****   *         @arg @ref LL_GPIO_AF_3
 631:Drivers/STM32G4xx_HAL_Driver/Inc/stm32g4xx_ll_gpio.h ****   *         @arg @ref LL_GPIO_AF_4
 632:Drivers/STM32G4xx_HAL_Driver/Inc/stm32g4xx_ll_gpio.h ****   *         @arg @ref LL_GPIO_AF_5
 633:Drivers/STM32G4xx_HAL_Driver/Inc/stm32g4xx_ll_gpio.h ****   *         @arg @ref LL_GPIO_AF_6
 634:Drivers/STM32G4xx_HAL_Driver/Inc/stm32g4xx_ll_gpio.h ****   *         @arg @ref LL_GPIO_AF_7
 635:Drivers/STM32G4xx_HAL_Driver/Inc/stm32g4xx_ll_gpio.h ****   *         @arg @ref LL_GPIO_AF_8
 636:Drivers/STM32G4xx_HAL_Driver/Inc/stm32g4xx_ll_gpio.h ****   *         @arg @ref LL_GPIO_AF_9
 637:Drivers/STM32G4xx_HAL_Driver/Inc/stm32g4xx_ll_gpio.h ****   *         @arg @ref LL_GPIO_AF_10
 638:Drivers/STM32G4xx_HAL_Driver/Inc/stm32g4xx_ll_gpio.h ****   *         @arg @ref LL_GPIO_AF_11
 639:Drivers/STM32G4xx_HAL_Driver/Inc/stm32g4xx_ll_gpio.h ****   *         @arg @ref LL_GPIO_AF_12
 640:Drivers/STM32G4xx_HAL_Driver/Inc/stm32g4xx_ll_gpio.h ****   *         @arg @ref LL_GPIO_AF_13
 641:Drivers/STM32G4xx_HAL_Driver/Inc/stm32g4xx_ll_gpio.h ****   *         @arg @ref LL_GPIO_AF_14
 642:Drivers/STM32G4xx_HAL_Driver/Inc/stm32g4xx_ll_gpio.h ****   *         @arg @ref LL_GPIO_AF_15
 643:Drivers/STM32G4xx_HAL_Driver/Inc/stm32g4xx_ll_gpio.h ****   * @retval None
 644:Drivers/STM32G4xx_HAL_Driver/Inc/stm32g4xx_ll_gpio.h ****   */
 645:Drivers/STM32G4xx_HAL_Driver/Inc/stm32g4xx_ll_gpio.h **** __STATIC_INLINE void LL_GPIO_SetAFPin_8_15(GPIO_TypeDef *GPIOx, uint32_t Pin, uint32_t Alternate)
 646:Drivers/STM32G4xx_HAL_Driver/Inc/stm32g4xx_ll_gpio.h **** {
 647:Drivers/STM32G4xx_HAL_Driver/Inc/stm32g4xx_ll_gpio.h ****   MODIFY_REG(GPIOx->AFR[1], (GPIO_AFRH_AFSEL8 << (POSITION_VAL(Pin >> 8U) * 4U)),
 648:Drivers/STM32G4xx_HAL_Driver/Inc/stm32g4xx_ll_gpio.h ****              (Alternate << (POSITION_VAL(Pin >> 8U) * 4U)));
 649:Drivers/STM32G4xx_HAL_Driver/Inc/stm32g4xx_ll_gpio.h **** }
 650:Drivers/STM32G4xx_HAL_Driver/Inc/stm32g4xx_ll_gpio.h **** 
 651:Drivers/STM32G4xx_HAL_Driver/Inc/stm32g4xx_ll_gpio.h **** /**
 652:Drivers/STM32G4xx_HAL_Driver/Inc/stm32g4xx_ll_gpio.h ****   * @brief  Return gpio alternate function of a dedicated pin from 8 to 15 for a dedicated port.
 653:Drivers/STM32G4xx_HAL_Driver/Inc/stm32g4xx_ll_gpio.h ****   * @note   Possible values are from AF0 to AF15 depending on target.
ARM GAS  /tmp/cchxaK2W.s 			page 26


 654:Drivers/STM32G4xx_HAL_Driver/Inc/stm32g4xx_ll_gpio.h ****   * @rmtoll AFRH         AFSELy        LL_GPIO_GetAFPin_8_15
 655:Drivers/STM32G4xx_HAL_Driver/Inc/stm32g4xx_ll_gpio.h ****   * @param  GPIOx GPIO Port
 656:Drivers/STM32G4xx_HAL_Driver/Inc/stm32g4xx_ll_gpio.h ****   * @param  Pin This parameter can be one of the following values:
 657:Drivers/STM32G4xx_HAL_Driver/Inc/stm32g4xx_ll_gpio.h ****   *         @arg @ref LL_GPIO_PIN_8
 658:Drivers/STM32G4xx_HAL_Driver/Inc/stm32g4xx_ll_gpio.h ****   *         @arg @ref LL_GPIO_PIN_9
 659:Drivers/STM32G4xx_HAL_Driver/Inc/stm32g4xx_ll_gpio.h ****   *         @arg @ref LL_GPIO_PIN_10
 660:Drivers/STM32G4xx_HAL_Driver/Inc/stm32g4xx_ll_gpio.h ****   *         @arg @ref LL_GPIO_PIN_11
 661:Drivers/STM32G4xx_HAL_Driver/Inc/stm32g4xx_ll_gpio.h ****   *         @arg @ref LL_GPIO_PIN_12
 662:Drivers/STM32G4xx_HAL_Driver/Inc/stm32g4xx_ll_gpio.h ****   *         @arg @ref LL_GPIO_PIN_13
 663:Drivers/STM32G4xx_HAL_Driver/Inc/stm32g4xx_ll_gpio.h ****   *         @arg @ref LL_GPIO_PIN_14
 664:Drivers/STM32G4xx_HAL_Driver/Inc/stm32g4xx_ll_gpio.h ****   *         @arg @ref LL_GPIO_PIN_15
 665:Drivers/STM32G4xx_HAL_Driver/Inc/stm32g4xx_ll_gpio.h ****   * @retval Returned value can be one of the following values:
 666:Drivers/STM32G4xx_HAL_Driver/Inc/stm32g4xx_ll_gpio.h ****   *         @arg @ref LL_GPIO_AF_0
 667:Drivers/STM32G4xx_HAL_Driver/Inc/stm32g4xx_ll_gpio.h ****   *         @arg @ref LL_GPIO_AF_1
 668:Drivers/STM32G4xx_HAL_Driver/Inc/stm32g4xx_ll_gpio.h ****   *         @arg @ref LL_GPIO_AF_2
 669:Drivers/STM32G4xx_HAL_Driver/Inc/stm32g4xx_ll_gpio.h ****   *         @arg @ref LL_GPIO_AF_3
 670:Drivers/STM32G4xx_HAL_Driver/Inc/stm32g4xx_ll_gpio.h ****   *         @arg @ref LL_GPIO_AF_4
 671:Drivers/STM32G4xx_HAL_Driver/Inc/stm32g4xx_ll_gpio.h ****   *         @arg @ref LL_GPIO_AF_5
 672:Drivers/STM32G4xx_HAL_Driver/Inc/stm32g4xx_ll_gpio.h ****   *         @arg @ref LL_GPIO_AF_6
 673:Drivers/STM32G4xx_HAL_Driver/Inc/stm32g4xx_ll_gpio.h ****   *         @arg @ref LL_GPIO_AF_7
 674:Drivers/STM32G4xx_HAL_Driver/Inc/stm32g4xx_ll_gpio.h ****   *         @arg @ref LL_GPIO_AF_8
 675:Drivers/STM32G4xx_HAL_Driver/Inc/stm32g4xx_ll_gpio.h ****   *         @arg @ref LL_GPIO_AF_9
 676:Drivers/STM32G4xx_HAL_Driver/Inc/stm32g4xx_ll_gpio.h ****   *         @arg @ref LL_GPIO_AF_10
 677:Drivers/STM32G4xx_HAL_Driver/Inc/stm32g4xx_ll_gpio.h ****   *         @arg @ref LL_GPIO_AF_11
 678:Drivers/STM32G4xx_HAL_Driver/Inc/stm32g4xx_ll_gpio.h ****   *         @arg @ref LL_GPIO_AF_12
 679:Drivers/STM32G4xx_HAL_Driver/Inc/stm32g4xx_ll_gpio.h ****   *         @arg @ref LL_GPIO_AF_13
 680:Drivers/STM32G4xx_HAL_Driver/Inc/stm32g4xx_ll_gpio.h ****   *         @arg @ref LL_GPIO_AF_14
 681:Drivers/STM32G4xx_HAL_Driver/Inc/stm32g4xx_ll_gpio.h ****   *         @arg @ref LL_GPIO_AF_15
 682:Drivers/STM32G4xx_HAL_Driver/Inc/stm32g4xx_ll_gpio.h ****   */
 683:Drivers/STM32G4xx_HAL_Driver/Inc/stm32g4xx_ll_gpio.h **** __STATIC_INLINE uint32_t LL_GPIO_GetAFPin_8_15(GPIO_TypeDef *GPIOx, uint32_t Pin)
 684:Drivers/STM32G4xx_HAL_Driver/Inc/stm32g4xx_ll_gpio.h **** {
 685:Drivers/STM32G4xx_HAL_Driver/Inc/stm32g4xx_ll_gpio.h ****   return (uint32_t)(READ_BIT(GPIOx->AFR[1],
 686:Drivers/STM32G4xx_HAL_Driver/Inc/stm32g4xx_ll_gpio.h ****                              (GPIO_AFRH_AFSEL8 << (POSITION_VAL(Pin >> 8U) * 4U))) >> (POSITION_VAL
 687:Drivers/STM32G4xx_HAL_Driver/Inc/stm32g4xx_ll_gpio.h **** }
 688:Drivers/STM32G4xx_HAL_Driver/Inc/stm32g4xx_ll_gpio.h **** 
 689:Drivers/STM32G4xx_HAL_Driver/Inc/stm32g4xx_ll_gpio.h **** 
 690:Drivers/STM32G4xx_HAL_Driver/Inc/stm32g4xx_ll_gpio.h **** /**
 691:Drivers/STM32G4xx_HAL_Driver/Inc/stm32g4xx_ll_gpio.h ****   * @brief  Lock configuration of several pins for a dedicated port.
 692:Drivers/STM32G4xx_HAL_Driver/Inc/stm32g4xx_ll_gpio.h ****   * @note   When the lock sequence has been applied on a port bit, the
 693:Drivers/STM32G4xx_HAL_Driver/Inc/stm32g4xx_ll_gpio.h ****   *         value of this port bit can no longer be modified until the
 694:Drivers/STM32G4xx_HAL_Driver/Inc/stm32g4xx_ll_gpio.h ****   *         next reset.
 695:Drivers/STM32G4xx_HAL_Driver/Inc/stm32g4xx_ll_gpio.h ****   * @note   Each lock bit freezes a specific configuration register
 696:Drivers/STM32G4xx_HAL_Driver/Inc/stm32g4xx_ll_gpio.h ****   *         (control and alternate function registers).
 697:Drivers/STM32G4xx_HAL_Driver/Inc/stm32g4xx_ll_gpio.h ****   * @rmtoll LCKR         LCKK          LL_GPIO_LockPin
 698:Drivers/STM32G4xx_HAL_Driver/Inc/stm32g4xx_ll_gpio.h ****   * @param  GPIOx GPIO Port
 699:Drivers/STM32G4xx_HAL_Driver/Inc/stm32g4xx_ll_gpio.h ****   * @param  PinMask This parameter can be a combination of the following values:
 700:Drivers/STM32G4xx_HAL_Driver/Inc/stm32g4xx_ll_gpio.h ****   *         @arg @ref LL_GPIO_PIN_0
 701:Drivers/STM32G4xx_HAL_Driver/Inc/stm32g4xx_ll_gpio.h ****   *         @arg @ref LL_GPIO_PIN_1
 702:Drivers/STM32G4xx_HAL_Driver/Inc/stm32g4xx_ll_gpio.h ****   *         @arg @ref LL_GPIO_PIN_2
 703:Drivers/STM32G4xx_HAL_Driver/Inc/stm32g4xx_ll_gpio.h ****   *         @arg @ref LL_GPIO_PIN_3
 704:Drivers/STM32G4xx_HAL_Driver/Inc/stm32g4xx_ll_gpio.h ****   *         @arg @ref LL_GPIO_PIN_4
 705:Drivers/STM32G4xx_HAL_Driver/Inc/stm32g4xx_ll_gpio.h ****   *         @arg @ref LL_GPIO_PIN_5
 706:Drivers/STM32G4xx_HAL_Driver/Inc/stm32g4xx_ll_gpio.h ****   *         @arg @ref LL_GPIO_PIN_6
 707:Drivers/STM32G4xx_HAL_Driver/Inc/stm32g4xx_ll_gpio.h ****   *         @arg @ref LL_GPIO_PIN_7
 708:Drivers/STM32G4xx_HAL_Driver/Inc/stm32g4xx_ll_gpio.h ****   *         @arg @ref LL_GPIO_PIN_8
 709:Drivers/STM32G4xx_HAL_Driver/Inc/stm32g4xx_ll_gpio.h ****   *         @arg @ref LL_GPIO_PIN_9
 710:Drivers/STM32G4xx_HAL_Driver/Inc/stm32g4xx_ll_gpio.h ****   *         @arg @ref LL_GPIO_PIN_10
ARM GAS  /tmp/cchxaK2W.s 			page 27


 711:Drivers/STM32G4xx_HAL_Driver/Inc/stm32g4xx_ll_gpio.h ****   *         @arg @ref LL_GPIO_PIN_11
 712:Drivers/STM32G4xx_HAL_Driver/Inc/stm32g4xx_ll_gpio.h ****   *         @arg @ref LL_GPIO_PIN_12
 713:Drivers/STM32G4xx_HAL_Driver/Inc/stm32g4xx_ll_gpio.h ****   *         @arg @ref LL_GPIO_PIN_13
 714:Drivers/STM32G4xx_HAL_Driver/Inc/stm32g4xx_ll_gpio.h ****   *         @arg @ref LL_GPIO_PIN_14
 715:Drivers/STM32G4xx_HAL_Driver/Inc/stm32g4xx_ll_gpio.h ****   *         @arg @ref LL_GPIO_PIN_15
 716:Drivers/STM32G4xx_HAL_Driver/Inc/stm32g4xx_ll_gpio.h ****   *         @arg @ref LL_GPIO_PIN_ALL
 717:Drivers/STM32G4xx_HAL_Driver/Inc/stm32g4xx_ll_gpio.h ****   * @retval None
 718:Drivers/STM32G4xx_HAL_Driver/Inc/stm32g4xx_ll_gpio.h ****   */
 719:Drivers/STM32G4xx_HAL_Driver/Inc/stm32g4xx_ll_gpio.h **** __STATIC_INLINE void LL_GPIO_LockPin(GPIO_TypeDef *GPIOx, uint32_t PinMask)
 720:Drivers/STM32G4xx_HAL_Driver/Inc/stm32g4xx_ll_gpio.h **** {
 721:Drivers/STM32G4xx_HAL_Driver/Inc/stm32g4xx_ll_gpio.h ****   __IO uint32_t temp;
 722:Drivers/STM32G4xx_HAL_Driver/Inc/stm32g4xx_ll_gpio.h ****   WRITE_REG(GPIOx->LCKR, GPIO_LCKR_LCKK | PinMask);
 723:Drivers/STM32G4xx_HAL_Driver/Inc/stm32g4xx_ll_gpio.h ****   WRITE_REG(GPIOx->LCKR, PinMask);
 724:Drivers/STM32G4xx_HAL_Driver/Inc/stm32g4xx_ll_gpio.h ****   WRITE_REG(GPIOx->LCKR, GPIO_LCKR_LCKK | PinMask);
 725:Drivers/STM32G4xx_HAL_Driver/Inc/stm32g4xx_ll_gpio.h ****   /* Read LCKR register. This read is mandatory to complete key lock sequence */
 726:Drivers/STM32G4xx_HAL_Driver/Inc/stm32g4xx_ll_gpio.h ****   temp = READ_REG(GPIOx->LCKR);
 727:Drivers/STM32G4xx_HAL_Driver/Inc/stm32g4xx_ll_gpio.h ****   (void) temp;
 728:Drivers/STM32G4xx_HAL_Driver/Inc/stm32g4xx_ll_gpio.h **** }
 729:Drivers/STM32G4xx_HAL_Driver/Inc/stm32g4xx_ll_gpio.h **** 
 730:Drivers/STM32G4xx_HAL_Driver/Inc/stm32g4xx_ll_gpio.h **** /**
 731:Drivers/STM32G4xx_HAL_Driver/Inc/stm32g4xx_ll_gpio.h ****   * @brief  Return 1 if all pins passed as parameter, of a dedicated port, are locked. else Return 
 732:Drivers/STM32G4xx_HAL_Driver/Inc/stm32g4xx_ll_gpio.h ****   * @rmtoll LCKR         LCKy          LL_GPIO_IsPinLocked
 733:Drivers/STM32G4xx_HAL_Driver/Inc/stm32g4xx_ll_gpio.h ****   * @param  GPIOx GPIO Port
 734:Drivers/STM32G4xx_HAL_Driver/Inc/stm32g4xx_ll_gpio.h ****   * @param  PinMask This parameter can be a combination of the following values:
 735:Drivers/STM32G4xx_HAL_Driver/Inc/stm32g4xx_ll_gpio.h ****   *         @arg @ref LL_GPIO_PIN_0
 736:Drivers/STM32G4xx_HAL_Driver/Inc/stm32g4xx_ll_gpio.h ****   *         @arg @ref LL_GPIO_PIN_1
 737:Drivers/STM32G4xx_HAL_Driver/Inc/stm32g4xx_ll_gpio.h ****   *         @arg @ref LL_GPIO_PIN_2
 738:Drivers/STM32G4xx_HAL_Driver/Inc/stm32g4xx_ll_gpio.h ****   *         @arg @ref LL_GPIO_PIN_3
 739:Drivers/STM32G4xx_HAL_Driver/Inc/stm32g4xx_ll_gpio.h ****   *         @arg @ref LL_GPIO_PIN_4
 740:Drivers/STM32G4xx_HAL_Driver/Inc/stm32g4xx_ll_gpio.h ****   *         @arg @ref LL_GPIO_PIN_5
 741:Drivers/STM32G4xx_HAL_Driver/Inc/stm32g4xx_ll_gpio.h ****   *         @arg @ref LL_GPIO_PIN_6
 742:Drivers/STM32G4xx_HAL_Driver/Inc/stm32g4xx_ll_gpio.h ****   *         @arg @ref LL_GPIO_PIN_7
 743:Drivers/STM32G4xx_HAL_Driver/Inc/stm32g4xx_ll_gpio.h ****   *         @arg @ref LL_GPIO_PIN_8
 744:Drivers/STM32G4xx_HAL_Driver/Inc/stm32g4xx_ll_gpio.h ****   *         @arg @ref LL_GPIO_PIN_9
 745:Drivers/STM32G4xx_HAL_Driver/Inc/stm32g4xx_ll_gpio.h ****   *         @arg @ref LL_GPIO_PIN_10
 746:Drivers/STM32G4xx_HAL_Driver/Inc/stm32g4xx_ll_gpio.h ****   *         @arg @ref LL_GPIO_PIN_11
 747:Drivers/STM32G4xx_HAL_Driver/Inc/stm32g4xx_ll_gpio.h ****   *         @arg @ref LL_GPIO_PIN_12
 748:Drivers/STM32G4xx_HAL_Driver/Inc/stm32g4xx_ll_gpio.h ****   *         @arg @ref LL_GPIO_PIN_13
 749:Drivers/STM32G4xx_HAL_Driver/Inc/stm32g4xx_ll_gpio.h ****   *         @arg @ref LL_GPIO_PIN_14
 750:Drivers/STM32G4xx_HAL_Driver/Inc/stm32g4xx_ll_gpio.h ****   *         @arg @ref LL_GPIO_PIN_15
 751:Drivers/STM32G4xx_HAL_Driver/Inc/stm32g4xx_ll_gpio.h ****   *         @arg @ref LL_GPIO_PIN_ALL
 752:Drivers/STM32G4xx_HAL_Driver/Inc/stm32g4xx_ll_gpio.h ****   * @retval State of bit (1 or 0).
 753:Drivers/STM32G4xx_HAL_Driver/Inc/stm32g4xx_ll_gpio.h ****   */
 754:Drivers/STM32G4xx_HAL_Driver/Inc/stm32g4xx_ll_gpio.h **** __STATIC_INLINE uint32_t LL_GPIO_IsPinLocked(GPIO_TypeDef *GPIOx, uint32_t PinMask)
 755:Drivers/STM32G4xx_HAL_Driver/Inc/stm32g4xx_ll_gpio.h **** {
 756:Drivers/STM32G4xx_HAL_Driver/Inc/stm32g4xx_ll_gpio.h ****   return ((READ_BIT(GPIOx->LCKR, PinMask) == (PinMask)) ? 1UL : 0UL);
 757:Drivers/STM32G4xx_HAL_Driver/Inc/stm32g4xx_ll_gpio.h **** }
 758:Drivers/STM32G4xx_HAL_Driver/Inc/stm32g4xx_ll_gpio.h **** 
 759:Drivers/STM32G4xx_HAL_Driver/Inc/stm32g4xx_ll_gpio.h **** /**
 760:Drivers/STM32G4xx_HAL_Driver/Inc/stm32g4xx_ll_gpio.h ****   * @brief  Return 1 if one of the pin of a dedicated port is locked. else return 0.
 761:Drivers/STM32G4xx_HAL_Driver/Inc/stm32g4xx_ll_gpio.h ****   * @rmtoll LCKR         LCKK          LL_GPIO_IsAnyPinLocked
 762:Drivers/STM32G4xx_HAL_Driver/Inc/stm32g4xx_ll_gpio.h ****   * @param  GPIOx GPIO Port
 763:Drivers/STM32G4xx_HAL_Driver/Inc/stm32g4xx_ll_gpio.h ****   * @retval State of bit (1 or 0).
 764:Drivers/STM32G4xx_HAL_Driver/Inc/stm32g4xx_ll_gpio.h ****   */
 765:Drivers/STM32G4xx_HAL_Driver/Inc/stm32g4xx_ll_gpio.h **** __STATIC_INLINE uint32_t LL_GPIO_IsAnyPinLocked(GPIO_TypeDef *GPIOx)
 766:Drivers/STM32G4xx_HAL_Driver/Inc/stm32g4xx_ll_gpio.h **** {
 767:Drivers/STM32G4xx_HAL_Driver/Inc/stm32g4xx_ll_gpio.h ****   return ((READ_BIT(GPIOx->LCKR, GPIO_LCKR_LCKK) == (GPIO_LCKR_LCKK)) ? 1UL : 0UL);
ARM GAS  /tmp/cchxaK2W.s 			page 28


 768:Drivers/STM32G4xx_HAL_Driver/Inc/stm32g4xx_ll_gpio.h **** }
 769:Drivers/STM32G4xx_HAL_Driver/Inc/stm32g4xx_ll_gpio.h **** 
 770:Drivers/STM32G4xx_HAL_Driver/Inc/stm32g4xx_ll_gpio.h **** /**
 771:Drivers/STM32G4xx_HAL_Driver/Inc/stm32g4xx_ll_gpio.h ****   * @}
 772:Drivers/STM32G4xx_HAL_Driver/Inc/stm32g4xx_ll_gpio.h ****   */
 773:Drivers/STM32G4xx_HAL_Driver/Inc/stm32g4xx_ll_gpio.h **** 
 774:Drivers/STM32G4xx_HAL_Driver/Inc/stm32g4xx_ll_gpio.h **** /** @defgroup GPIO_LL_EF_Data_Access Data Access
 775:Drivers/STM32G4xx_HAL_Driver/Inc/stm32g4xx_ll_gpio.h ****   * @{
 776:Drivers/STM32G4xx_HAL_Driver/Inc/stm32g4xx_ll_gpio.h ****   */
 777:Drivers/STM32G4xx_HAL_Driver/Inc/stm32g4xx_ll_gpio.h **** 
 778:Drivers/STM32G4xx_HAL_Driver/Inc/stm32g4xx_ll_gpio.h **** /**
 779:Drivers/STM32G4xx_HAL_Driver/Inc/stm32g4xx_ll_gpio.h ****   * @brief  Return full input data register value for a dedicated port.
 780:Drivers/STM32G4xx_HAL_Driver/Inc/stm32g4xx_ll_gpio.h ****   * @rmtoll IDR          IDy           LL_GPIO_ReadInputPort
 781:Drivers/STM32G4xx_HAL_Driver/Inc/stm32g4xx_ll_gpio.h ****   * @param  GPIOx GPIO Port
 782:Drivers/STM32G4xx_HAL_Driver/Inc/stm32g4xx_ll_gpio.h ****   * @retval Input data register value of port
 783:Drivers/STM32G4xx_HAL_Driver/Inc/stm32g4xx_ll_gpio.h ****   */
 784:Drivers/STM32G4xx_HAL_Driver/Inc/stm32g4xx_ll_gpio.h **** __STATIC_INLINE uint32_t LL_GPIO_ReadInputPort(GPIO_TypeDef *GPIOx)
 785:Drivers/STM32G4xx_HAL_Driver/Inc/stm32g4xx_ll_gpio.h **** {
 786:Drivers/STM32G4xx_HAL_Driver/Inc/stm32g4xx_ll_gpio.h ****   return (uint32_t)(READ_REG(GPIOx->IDR));
 787:Drivers/STM32G4xx_HAL_Driver/Inc/stm32g4xx_ll_gpio.h **** }
 788:Drivers/STM32G4xx_HAL_Driver/Inc/stm32g4xx_ll_gpio.h **** 
 789:Drivers/STM32G4xx_HAL_Driver/Inc/stm32g4xx_ll_gpio.h **** /**
 790:Drivers/STM32G4xx_HAL_Driver/Inc/stm32g4xx_ll_gpio.h ****   * @brief  Return if input data level for several pins of dedicated port is high or low.
 791:Drivers/STM32G4xx_HAL_Driver/Inc/stm32g4xx_ll_gpio.h ****   * @rmtoll IDR          IDy           LL_GPIO_IsInputPinSet
 792:Drivers/STM32G4xx_HAL_Driver/Inc/stm32g4xx_ll_gpio.h ****   * @param  GPIOx GPIO Port
 793:Drivers/STM32G4xx_HAL_Driver/Inc/stm32g4xx_ll_gpio.h ****   * @param  PinMask This parameter can be a combination of the following values:
 794:Drivers/STM32G4xx_HAL_Driver/Inc/stm32g4xx_ll_gpio.h ****   *         @arg @ref LL_GPIO_PIN_0
 795:Drivers/STM32G4xx_HAL_Driver/Inc/stm32g4xx_ll_gpio.h ****   *         @arg @ref LL_GPIO_PIN_1
 796:Drivers/STM32G4xx_HAL_Driver/Inc/stm32g4xx_ll_gpio.h ****   *         @arg @ref LL_GPIO_PIN_2
 797:Drivers/STM32G4xx_HAL_Driver/Inc/stm32g4xx_ll_gpio.h ****   *         @arg @ref LL_GPIO_PIN_3
 798:Drivers/STM32G4xx_HAL_Driver/Inc/stm32g4xx_ll_gpio.h ****   *         @arg @ref LL_GPIO_PIN_4
 799:Drivers/STM32G4xx_HAL_Driver/Inc/stm32g4xx_ll_gpio.h ****   *         @arg @ref LL_GPIO_PIN_5
 800:Drivers/STM32G4xx_HAL_Driver/Inc/stm32g4xx_ll_gpio.h ****   *         @arg @ref LL_GPIO_PIN_6
 801:Drivers/STM32G4xx_HAL_Driver/Inc/stm32g4xx_ll_gpio.h ****   *         @arg @ref LL_GPIO_PIN_7
 802:Drivers/STM32G4xx_HAL_Driver/Inc/stm32g4xx_ll_gpio.h ****   *         @arg @ref LL_GPIO_PIN_8
 803:Drivers/STM32G4xx_HAL_Driver/Inc/stm32g4xx_ll_gpio.h ****   *         @arg @ref LL_GPIO_PIN_9
 804:Drivers/STM32G4xx_HAL_Driver/Inc/stm32g4xx_ll_gpio.h ****   *         @arg @ref LL_GPIO_PIN_10
 805:Drivers/STM32G4xx_HAL_Driver/Inc/stm32g4xx_ll_gpio.h ****   *         @arg @ref LL_GPIO_PIN_11
 806:Drivers/STM32G4xx_HAL_Driver/Inc/stm32g4xx_ll_gpio.h ****   *         @arg @ref LL_GPIO_PIN_12
 807:Drivers/STM32G4xx_HAL_Driver/Inc/stm32g4xx_ll_gpio.h ****   *         @arg @ref LL_GPIO_PIN_13
 808:Drivers/STM32G4xx_HAL_Driver/Inc/stm32g4xx_ll_gpio.h ****   *         @arg @ref LL_GPIO_PIN_14
 809:Drivers/STM32G4xx_HAL_Driver/Inc/stm32g4xx_ll_gpio.h ****   *         @arg @ref LL_GPIO_PIN_15
 810:Drivers/STM32G4xx_HAL_Driver/Inc/stm32g4xx_ll_gpio.h ****   *         @arg @ref LL_GPIO_PIN_ALL
 811:Drivers/STM32G4xx_HAL_Driver/Inc/stm32g4xx_ll_gpio.h ****   * @retval State of bit (1 or 0).
 812:Drivers/STM32G4xx_HAL_Driver/Inc/stm32g4xx_ll_gpio.h ****   */
 813:Drivers/STM32G4xx_HAL_Driver/Inc/stm32g4xx_ll_gpio.h **** __STATIC_INLINE uint32_t LL_GPIO_IsInputPinSet(GPIO_TypeDef *GPIOx, uint32_t PinMask)
 814:Drivers/STM32G4xx_HAL_Driver/Inc/stm32g4xx_ll_gpio.h **** {
 815:Drivers/STM32G4xx_HAL_Driver/Inc/stm32g4xx_ll_gpio.h ****   return ((READ_BIT(GPIOx->IDR, PinMask) == (PinMask)) ? 1UL : 0UL);
 816:Drivers/STM32G4xx_HAL_Driver/Inc/stm32g4xx_ll_gpio.h **** }
 817:Drivers/STM32G4xx_HAL_Driver/Inc/stm32g4xx_ll_gpio.h **** 
 818:Drivers/STM32G4xx_HAL_Driver/Inc/stm32g4xx_ll_gpio.h **** /**
 819:Drivers/STM32G4xx_HAL_Driver/Inc/stm32g4xx_ll_gpio.h ****   * @brief  Write output data register for the port.
 820:Drivers/STM32G4xx_HAL_Driver/Inc/stm32g4xx_ll_gpio.h ****   * @rmtoll ODR          ODy           LL_GPIO_WriteOutputPort
 821:Drivers/STM32G4xx_HAL_Driver/Inc/stm32g4xx_ll_gpio.h ****   * @param  GPIOx GPIO Port
 822:Drivers/STM32G4xx_HAL_Driver/Inc/stm32g4xx_ll_gpio.h ****   * @param  PortValue Level value for each pin of the port
 823:Drivers/STM32G4xx_HAL_Driver/Inc/stm32g4xx_ll_gpio.h ****   * @retval None
 824:Drivers/STM32G4xx_HAL_Driver/Inc/stm32g4xx_ll_gpio.h ****   */
ARM GAS  /tmp/cchxaK2W.s 			page 29


 825:Drivers/STM32G4xx_HAL_Driver/Inc/stm32g4xx_ll_gpio.h **** __STATIC_INLINE void LL_GPIO_WriteOutputPort(GPIO_TypeDef *GPIOx, uint32_t PortValue)
 826:Drivers/STM32G4xx_HAL_Driver/Inc/stm32g4xx_ll_gpio.h **** {
 827:Drivers/STM32G4xx_HAL_Driver/Inc/stm32g4xx_ll_gpio.h ****   WRITE_REG(GPIOx->ODR, PortValue);
 828:Drivers/STM32G4xx_HAL_Driver/Inc/stm32g4xx_ll_gpio.h **** }
 829:Drivers/STM32G4xx_HAL_Driver/Inc/stm32g4xx_ll_gpio.h **** 
 830:Drivers/STM32G4xx_HAL_Driver/Inc/stm32g4xx_ll_gpio.h **** /**
 831:Drivers/STM32G4xx_HAL_Driver/Inc/stm32g4xx_ll_gpio.h ****   * @brief  Return full output data register value for a dedicated port.
 832:Drivers/STM32G4xx_HAL_Driver/Inc/stm32g4xx_ll_gpio.h ****   * @rmtoll ODR          ODy           LL_GPIO_ReadOutputPort
 833:Drivers/STM32G4xx_HAL_Driver/Inc/stm32g4xx_ll_gpio.h ****   * @param  GPIOx GPIO Port
 834:Drivers/STM32G4xx_HAL_Driver/Inc/stm32g4xx_ll_gpio.h ****   * @retval Output data register value of port
 835:Drivers/STM32G4xx_HAL_Driver/Inc/stm32g4xx_ll_gpio.h ****   */
 836:Drivers/STM32G4xx_HAL_Driver/Inc/stm32g4xx_ll_gpio.h **** __STATIC_INLINE uint32_t LL_GPIO_ReadOutputPort(GPIO_TypeDef *GPIOx)
 837:Drivers/STM32G4xx_HAL_Driver/Inc/stm32g4xx_ll_gpio.h **** {
 838:Drivers/STM32G4xx_HAL_Driver/Inc/stm32g4xx_ll_gpio.h ****   return (uint32_t)(READ_REG(GPIOx->ODR));
 839:Drivers/STM32G4xx_HAL_Driver/Inc/stm32g4xx_ll_gpio.h **** }
 840:Drivers/STM32G4xx_HAL_Driver/Inc/stm32g4xx_ll_gpio.h **** 
 841:Drivers/STM32G4xx_HAL_Driver/Inc/stm32g4xx_ll_gpio.h **** /**
 842:Drivers/STM32G4xx_HAL_Driver/Inc/stm32g4xx_ll_gpio.h ****   * @brief  Return if input data level for several pins of dedicated port is high or low.
 843:Drivers/STM32G4xx_HAL_Driver/Inc/stm32g4xx_ll_gpio.h ****   * @rmtoll ODR          ODy           LL_GPIO_IsOutputPinSet
 844:Drivers/STM32G4xx_HAL_Driver/Inc/stm32g4xx_ll_gpio.h ****   * @param  GPIOx GPIO Port
 845:Drivers/STM32G4xx_HAL_Driver/Inc/stm32g4xx_ll_gpio.h ****   * @param  PinMask This parameter can be a combination of the following values:
 846:Drivers/STM32G4xx_HAL_Driver/Inc/stm32g4xx_ll_gpio.h ****   *         @arg @ref LL_GPIO_PIN_0
 847:Drivers/STM32G4xx_HAL_Driver/Inc/stm32g4xx_ll_gpio.h ****   *         @arg @ref LL_GPIO_PIN_1
 848:Drivers/STM32G4xx_HAL_Driver/Inc/stm32g4xx_ll_gpio.h ****   *         @arg @ref LL_GPIO_PIN_2
 849:Drivers/STM32G4xx_HAL_Driver/Inc/stm32g4xx_ll_gpio.h ****   *         @arg @ref LL_GPIO_PIN_3
 850:Drivers/STM32G4xx_HAL_Driver/Inc/stm32g4xx_ll_gpio.h ****   *         @arg @ref LL_GPIO_PIN_4
 851:Drivers/STM32G4xx_HAL_Driver/Inc/stm32g4xx_ll_gpio.h ****   *         @arg @ref LL_GPIO_PIN_5
 852:Drivers/STM32G4xx_HAL_Driver/Inc/stm32g4xx_ll_gpio.h ****   *         @arg @ref LL_GPIO_PIN_6
 853:Drivers/STM32G4xx_HAL_Driver/Inc/stm32g4xx_ll_gpio.h ****   *         @arg @ref LL_GPIO_PIN_7
 854:Drivers/STM32G4xx_HAL_Driver/Inc/stm32g4xx_ll_gpio.h ****   *         @arg @ref LL_GPIO_PIN_8
 855:Drivers/STM32G4xx_HAL_Driver/Inc/stm32g4xx_ll_gpio.h ****   *         @arg @ref LL_GPIO_PIN_9
 856:Drivers/STM32G4xx_HAL_Driver/Inc/stm32g4xx_ll_gpio.h ****   *         @arg @ref LL_GPIO_PIN_10
 857:Drivers/STM32G4xx_HAL_Driver/Inc/stm32g4xx_ll_gpio.h ****   *         @arg @ref LL_GPIO_PIN_11
 858:Drivers/STM32G4xx_HAL_Driver/Inc/stm32g4xx_ll_gpio.h ****   *         @arg @ref LL_GPIO_PIN_12
 859:Drivers/STM32G4xx_HAL_Driver/Inc/stm32g4xx_ll_gpio.h ****   *         @arg @ref LL_GPIO_PIN_13
 860:Drivers/STM32G4xx_HAL_Driver/Inc/stm32g4xx_ll_gpio.h ****   *         @arg @ref LL_GPIO_PIN_14
 861:Drivers/STM32G4xx_HAL_Driver/Inc/stm32g4xx_ll_gpio.h ****   *         @arg @ref LL_GPIO_PIN_15
 862:Drivers/STM32G4xx_HAL_Driver/Inc/stm32g4xx_ll_gpio.h ****   *         @arg @ref LL_GPIO_PIN_ALL
 863:Drivers/STM32G4xx_HAL_Driver/Inc/stm32g4xx_ll_gpio.h ****   * @retval State of bit (1 or 0).
 864:Drivers/STM32G4xx_HAL_Driver/Inc/stm32g4xx_ll_gpio.h ****   */
 865:Drivers/STM32G4xx_HAL_Driver/Inc/stm32g4xx_ll_gpio.h **** __STATIC_INLINE uint32_t LL_GPIO_IsOutputPinSet(GPIO_TypeDef *GPIOx, uint32_t PinMask)
 866:Drivers/STM32G4xx_HAL_Driver/Inc/stm32g4xx_ll_gpio.h **** {
 867:Drivers/STM32G4xx_HAL_Driver/Inc/stm32g4xx_ll_gpio.h ****   return ((READ_BIT(GPIOx->ODR, PinMask) == (PinMask)) ? 1UL : 0UL);
 868:Drivers/STM32G4xx_HAL_Driver/Inc/stm32g4xx_ll_gpio.h **** }
 869:Drivers/STM32G4xx_HAL_Driver/Inc/stm32g4xx_ll_gpio.h **** 
 870:Drivers/STM32G4xx_HAL_Driver/Inc/stm32g4xx_ll_gpio.h **** /**
 871:Drivers/STM32G4xx_HAL_Driver/Inc/stm32g4xx_ll_gpio.h ****   * @brief  Set several pins to high level on dedicated gpio port.
 872:Drivers/STM32G4xx_HAL_Driver/Inc/stm32g4xx_ll_gpio.h ****   * @rmtoll BSRR         BSy           LL_GPIO_SetOutputPin
 873:Drivers/STM32G4xx_HAL_Driver/Inc/stm32g4xx_ll_gpio.h ****   * @param  GPIOx GPIO Port
 874:Drivers/STM32G4xx_HAL_Driver/Inc/stm32g4xx_ll_gpio.h ****   * @param  PinMask This parameter can be a combination of the following values:
 875:Drivers/STM32G4xx_HAL_Driver/Inc/stm32g4xx_ll_gpio.h ****   *         @arg @ref LL_GPIO_PIN_0
 876:Drivers/STM32G4xx_HAL_Driver/Inc/stm32g4xx_ll_gpio.h ****   *         @arg @ref LL_GPIO_PIN_1
 877:Drivers/STM32G4xx_HAL_Driver/Inc/stm32g4xx_ll_gpio.h ****   *         @arg @ref LL_GPIO_PIN_2
 878:Drivers/STM32G4xx_HAL_Driver/Inc/stm32g4xx_ll_gpio.h ****   *         @arg @ref LL_GPIO_PIN_3
 879:Drivers/STM32G4xx_HAL_Driver/Inc/stm32g4xx_ll_gpio.h ****   *         @arg @ref LL_GPIO_PIN_4
 880:Drivers/STM32G4xx_HAL_Driver/Inc/stm32g4xx_ll_gpio.h ****   *         @arg @ref LL_GPIO_PIN_5
 881:Drivers/STM32G4xx_HAL_Driver/Inc/stm32g4xx_ll_gpio.h ****   *         @arg @ref LL_GPIO_PIN_6
ARM GAS  /tmp/cchxaK2W.s 			page 30


 882:Drivers/STM32G4xx_HAL_Driver/Inc/stm32g4xx_ll_gpio.h ****   *         @arg @ref LL_GPIO_PIN_7
 883:Drivers/STM32G4xx_HAL_Driver/Inc/stm32g4xx_ll_gpio.h ****   *         @arg @ref LL_GPIO_PIN_8
 884:Drivers/STM32G4xx_HAL_Driver/Inc/stm32g4xx_ll_gpio.h ****   *         @arg @ref LL_GPIO_PIN_9
 885:Drivers/STM32G4xx_HAL_Driver/Inc/stm32g4xx_ll_gpio.h ****   *         @arg @ref LL_GPIO_PIN_10
 886:Drivers/STM32G4xx_HAL_Driver/Inc/stm32g4xx_ll_gpio.h ****   *         @arg @ref LL_GPIO_PIN_11
 887:Drivers/STM32G4xx_HAL_Driver/Inc/stm32g4xx_ll_gpio.h ****   *         @arg @ref LL_GPIO_PIN_12
 888:Drivers/STM32G4xx_HAL_Driver/Inc/stm32g4xx_ll_gpio.h ****   *         @arg @ref LL_GPIO_PIN_13
 889:Drivers/STM32G4xx_HAL_Driver/Inc/stm32g4xx_ll_gpio.h ****   *         @arg @ref LL_GPIO_PIN_14
 890:Drivers/STM32G4xx_HAL_Driver/Inc/stm32g4xx_ll_gpio.h ****   *         @arg @ref LL_GPIO_PIN_15
 891:Drivers/STM32G4xx_HAL_Driver/Inc/stm32g4xx_ll_gpio.h ****   *         @arg @ref LL_GPIO_PIN_ALL
 892:Drivers/STM32G4xx_HAL_Driver/Inc/stm32g4xx_ll_gpio.h ****   * @retval None
 893:Drivers/STM32G4xx_HAL_Driver/Inc/stm32g4xx_ll_gpio.h ****   */
 894:Drivers/STM32G4xx_HAL_Driver/Inc/stm32g4xx_ll_gpio.h **** __STATIC_INLINE void LL_GPIO_SetOutputPin(GPIO_TypeDef *GPIOx, uint32_t PinMask)
 895:Drivers/STM32G4xx_HAL_Driver/Inc/stm32g4xx_ll_gpio.h **** {
 896:Drivers/STM32G4xx_HAL_Driver/Inc/stm32g4xx_ll_gpio.h ****   WRITE_REG(GPIOx->BSRR, PinMask);
 897:Drivers/STM32G4xx_HAL_Driver/Inc/stm32g4xx_ll_gpio.h **** }
 898:Drivers/STM32G4xx_HAL_Driver/Inc/stm32g4xx_ll_gpio.h **** 
 899:Drivers/STM32G4xx_HAL_Driver/Inc/stm32g4xx_ll_gpio.h **** /**
 900:Drivers/STM32G4xx_HAL_Driver/Inc/stm32g4xx_ll_gpio.h ****   * @brief  Set several pins to low level on dedicated gpio port.
 901:Drivers/STM32G4xx_HAL_Driver/Inc/stm32g4xx_ll_gpio.h ****   * @rmtoll BRR          BRy           LL_GPIO_ResetOutputPin
 902:Drivers/STM32G4xx_HAL_Driver/Inc/stm32g4xx_ll_gpio.h ****   * @param  GPIOx GPIO Port
 903:Drivers/STM32G4xx_HAL_Driver/Inc/stm32g4xx_ll_gpio.h ****   * @param  PinMask This parameter can be a combination of the following values:
 904:Drivers/STM32G4xx_HAL_Driver/Inc/stm32g4xx_ll_gpio.h ****   *         @arg @ref LL_GPIO_PIN_0
 905:Drivers/STM32G4xx_HAL_Driver/Inc/stm32g4xx_ll_gpio.h ****   *         @arg @ref LL_GPIO_PIN_1
 906:Drivers/STM32G4xx_HAL_Driver/Inc/stm32g4xx_ll_gpio.h ****   *         @arg @ref LL_GPIO_PIN_2
 907:Drivers/STM32G4xx_HAL_Driver/Inc/stm32g4xx_ll_gpio.h ****   *         @arg @ref LL_GPIO_PIN_3
 908:Drivers/STM32G4xx_HAL_Driver/Inc/stm32g4xx_ll_gpio.h ****   *         @arg @ref LL_GPIO_PIN_4
 909:Drivers/STM32G4xx_HAL_Driver/Inc/stm32g4xx_ll_gpio.h ****   *         @arg @ref LL_GPIO_PIN_5
 910:Drivers/STM32G4xx_HAL_Driver/Inc/stm32g4xx_ll_gpio.h ****   *         @arg @ref LL_GPIO_PIN_6
 911:Drivers/STM32G4xx_HAL_Driver/Inc/stm32g4xx_ll_gpio.h ****   *         @arg @ref LL_GPIO_PIN_7
 912:Drivers/STM32G4xx_HAL_Driver/Inc/stm32g4xx_ll_gpio.h ****   *         @arg @ref LL_GPIO_PIN_8
 913:Drivers/STM32G4xx_HAL_Driver/Inc/stm32g4xx_ll_gpio.h ****   *         @arg @ref LL_GPIO_PIN_9
 914:Drivers/STM32G4xx_HAL_Driver/Inc/stm32g4xx_ll_gpio.h ****   *         @arg @ref LL_GPIO_PIN_10
 915:Drivers/STM32G4xx_HAL_Driver/Inc/stm32g4xx_ll_gpio.h ****   *         @arg @ref LL_GPIO_PIN_11
 916:Drivers/STM32G4xx_HAL_Driver/Inc/stm32g4xx_ll_gpio.h ****   *         @arg @ref LL_GPIO_PIN_12
 917:Drivers/STM32G4xx_HAL_Driver/Inc/stm32g4xx_ll_gpio.h ****   *         @arg @ref LL_GPIO_PIN_13
 918:Drivers/STM32G4xx_HAL_Driver/Inc/stm32g4xx_ll_gpio.h ****   *         @arg @ref LL_GPIO_PIN_14
 919:Drivers/STM32G4xx_HAL_Driver/Inc/stm32g4xx_ll_gpio.h ****   *         @arg @ref LL_GPIO_PIN_15
 920:Drivers/STM32G4xx_HAL_Driver/Inc/stm32g4xx_ll_gpio.h ****   *         @arg @ref LL_GPIO_PIN_ALL
 921:Drivers/STM32G4xx_HAL_Driver/Inc/stm32g4xx_ll_gpio.h ****   * @retval None
 922:Drivers/STM32G4xx_HAL_Driver/Inc/stm32g4xx_ll_gpio.h ****   */
 923:Drivers/STM32G4xx_HAL_Driver/Inc/stm32g4xx_ll_gpio.h **** __STATIC_INLINE void LL_GPIO_ResetOutputPin(GPIO_TypeDef *GPIOx, uint32_t PinMask)
 223              		.loc 3 923 22 view .LVU69
 224              	.LBB205:
 924:Drivers/STM32G4xx_HAL_Driver/Inc/stm32g4xx_ll_gpio.h **** {
 925:Drivers/STM32G4xx_HAL_Driver/Inc/stm32g4xx_ll_gpio.h ****   WRITE_REG(GPIOx->BRR, PinMask);
 225              		.loc 3 925 3 view .LVU70
 226 009a 8C4E     		ldr	r6, .L19+4
 227 009c 4FF00809 		mov	r9, #8
 228 00a0 C6F82890 		str	r9, [r6, #40]
 229              	.LVL8:
 230              		.loc 3 925 3 is_stmt 0 view .LVU71
 231              	.LBE205:
 232              	.LBE204:
  59:Core/Src/gpio.c **** 
  60:Core/Src/gpio.c ****   /**/
  61:Core/Src/gpio.c ****   LL_GPIO_ResetOutputPin(LED2_GPIO_Port, LED2_Pin);
ARM GAS  /tmp/cchxaK2W.s 			page 31


 233              		.loc 1 61 3 is_stmt 1 view .LVU72
 234              	.LBB206:
 235              	.LBI206:
 923:Drivers/STM32G4xx_HAL_Driver/Inc/stm32g4xx_ll_gpio.h **** {
 236              		.loc 3 923 22 view .LVU73
 237              	.LBB207:
 238              		.loc 3 925 3 view .LVU74
 239 00a4 1023     		movs	r3, #16
 240 00a6 B362     		str	r3, [r6, #40]
 241              	.LVL9:
 242              		.loc 3 925 3 is_stmt 0 view .LVU75
 243              	.LBE207:
 244              	.LBE206:
  62:Core/Src/gpio.c **** 
  63:Core/Src/gpio.c ****   /**/
  64:Core/Src/gpio.c ****   LL_GPIO_ResetOutputPin(LED3_GPIO_Port, LED3_Pin);
 245              		.loc 1 64 3 is_stmt 1 view .LVU76
 246              	.LBB208:
 247              	.LBI208:
 923:Drivers/STM32G4xx_HAL_Driver/Inc/stm32g4xx_ll_gpio.h **** {
 248              		.loc 3 923 22 view .LVU77
 249              	.LBB209:
 250              		.loc 3 925 3 view .LVU78
 251 00a8 2023     		movs	r3, #32
 252 00aa B362     		str	r3, [r6, #40]
 253              	.LVL10:
 254              		.loc 3 925 3 is_stmt 0 view .LVU79
 255              	.LBE209:
 256              	.LBE208:
  65:Core/Src/gpio.c **** 
  66:Core/Src/gpio.c ****   /**/
  67:Core/Src/gpio.c ****   LL_GPIO_ResetOutputPin(LED4_GPIO_Port, LED4_Pin);
 257              		.loc 1 67 3 is_stmt 1 view .LVU80
 258              	.LBB210:
 259              	.LBI210:
 923:Drivers/STM32G4xx_HAL_Driver/Inc/stm32g4xx_ll_gpio.h **** {
 260              		.loc 3 923 22 view .LVU81
 261              	.LBB211:
 262              		.loc 3 925 3 view .LVU82
 263 00ac 884F     		ldr	r7, .L19+8
 264 00ae 0125     		movs	r5, #1
 265 00b0 BD62     		str	r5, [r7, #40]
 266              	.LVL11:
 267              		.loc 3 925 3 is_stmt 0 view .LVU83
 268              	.LBE211:
 269              	.LBE210:
  68:Core/Src/gpio.c **** 
  69:Core/Src/gpio.c ****   /**/
  70:Core/Src/gpio.c ****   LL_GPIO_ResetOutputPin(LED5_GPIO_Port, LED5_Pin);
 270              		.loc 1 70 3 is_stmt 1 view .LVU84
 271              	.LBB212:
 272              	.LBI212:
 923:Drivers/STM32G4xx_HAL_Driver/Inc/stm32g4xx_ll_gpio.h **** {
 273              		.loc 3 923 22 view .LVU85
 274              	.LBB213:
 275              		.loc 3 925 3 view .LVU86
 276 00b2 4FF00208 		mov	r8, #2
ARM GAS  /tmp/cchxaK2W.s 			page 32


 277 00b6 C7F82880 		str	r8, [r7, #40]
 278              	.LVL12:
 279              		.loc 3 925 3 is_stmt 0 view .LVU87
 280              	.LBE213:
 281              	.LBE212:
  71:Core/Src/gpio.c **** 
  72:Core/Src/gpio.c ****   /**/
  73:Core/Src/gpio.c ****   LL_GPIO_ResetOutputPin(LED6_GPIO_Port, LED6_Pin);
 282              		.loc 1 73 3 is_stmt 1 view .LVU88
 283              	.LBB214:
 284              	.LBI214:
 923:Drivers/STM32G4xx_HAL_Driver/Inc/stm32g4xx_ll_gpio.h **** {
 285              		.loc 3 923 22 view .LVU89
 286              	.LBB215:
 287              		.loc 3 925 3 view .LVU90
 288 00ba 0423     		movs	r3, #4
 289 00bc BB62     		str	r3, [r7, #40]
 290              	.LVL13:
 291              		.loc 3 925 3 is_stmt 0 view .LVU91
 292              	.LBE215:
 293              	.LBE214:
  74:Core/Src/gpio.c **** 
  75:Core/Src/gpio.c ****   /**/
  76:Core/Src/gpio.c ****   LL_GPIO_ResetOutputPin(LED7_GPIO_Port, LED7_Pin);
 294              		.loc 1 76 3 is_stmt 1 view .LVU92
 295              	.LBB216:
 296              	.LBI216:
 923:Drivers/STM32G4xx_HAL_Driver/Inc/stm32g4xx_ll_gpio.h **** {
 297              		.loc 3 923 22 view .LVU93
 298              	.LBB217:
 299              		.loc 3 925 3 view .LVU94
 300 00be C7F82890 		str	r9, [r7, #40]
 301              	.LVL14:
 302              		.loc 3 925 3 is_stmt 0 view .LVU95
 303              	.LBE217:
 304              	.LBE216:
  77:Core/Src/gpio.c **** 
  78:Core/Src/gpio.c ****   /**/
  79:Core/Src/gpio.c ****   LL_GPIO_ResetOutputPin(LED0_GPIO_Port, LED0_Pin);
 305              		.loc 1 79 3 is_stmt 1 view .LVU96
 306              	.LBB218:
 307              	.LBI218:
 923:Drivers/STM32G4xx_HAL_Driver/Inc/stm32g4xx_ll_gpio.h **** {
 308              		.loc 3 923 22 view .LVU97
 309              	.LBB219:
 310              		.loc 3 925 3 view .LVU98
 311 00c2 B362     		str	r3, [r6, #40]
 312              	.LVL15:
 313              		.loc 3 925 3 is_stmt 0 view .LVU99
 314              	.LBE219:
 315              	.LBE218:
  80:Core/Src/gpio.c **** 
  81:Core/Src/gpio.c ****   /**/
  82:Core/Src/gpio.c ****   LL_GPIO_ResetOutputPin(ARDUINO_CS_GPIO_Port, ARDUINO_CS_Pin);
 316              		.loc 1 82 3 is_stmt 1 view .LVU100
 317              	.LBB220:
 318              	.LBI220:
ARM GAS  /tmp/cchxaK2W.s 			page 33


 923:Drivers/STM32G4xx_HAL_Driver/Inc/stm32g4xx_ll_gpio.h **** {
 319              		.loc 3 923 22 view .LVU101
 320              	.LBB221:
 321              		.loc 3 925 3 view .LVU102
 322 00c4 4FF40063 		mov	r3, #2048
 323 00c8 B362     		str	r3, [r6, #40]
 324              	.LVL16:
 325              		.loc 3 925 3 is_stmt 0 view .LVU103
 326              	.LBE221:
 327              	.LBE220:
  83:Core/Src/gpio.c **** 
  84:Core/Src/gpio.c ****   /**/
  85:Core/Src/gpio.c ****   LL_GPIO_ResetOutputPin(CAN_STBY_GPIO_Port, CAN_STBY_Pin);
 328              		.loc 1 85 3 is_stmt 1 view .LVU104
 329              	.LBB222:
 330              	.LBI222:
 923:Drivers/STM32G4xx_HAL_Driver/Inc/stm32g4xx_ll_gpio.h **** {
 331              		.loc 3 923 22 view .LVU105
 332              	.LBB223:
 333              		.loc 3 925 3 view .LVU106
 334 00ca DFF814A2 		ldr	r10, .L19+24
 335 00ce 8023     		movs	r3, #128
 336 00d0 CAF82830 		str	r3, [r10, #40]
 337              	.LVL17:
 338              		.loc 3 925 3 is_stmt 0 view .LVU107
 339              	.LBE223:
 340              	.LBE222:
  86:Core/Src/gpio.c **** 
  87:Core/Src/gpio.c ****   /**/
  88:Core/Src/gpio.c ****   LL_GPIO_ResetOutputPin(LCD_RST_GPIO_Port, LCD_RST_Pin);
 341              		.loc 1 88 3 is_stmt 1 view .LVU108
 342              	.LBB224:
 343              	.LBI224:
 923:Drivers/STM32G4xx_HAL_Driver/Inc/stm32g4xx_ll_gpio.h **** {
 344              		.loc 3 923 22 view .LVU109
 345              	.LBB225:
 346              		.loc 3 925 3 view .LVU110
 347 00d4 7F4B     		ldr	r3, .L19+12
 348 00d6 C3F82890 		str	r9, [r3, #40]
 349              	.LVL18:
 350              		.loc 3 925 3 is_stmt 0 view .LVU111
 351              	.LBE225:
 352              	.LBE224:
  89:Core/Src/gpio.c **** 
  90:Core/Src/gpio.c ****   /**/
  91:Core/Src/gpio.c ****   LL_GPIO_ResetOutputPin(LIN_SLP_GPIO_Port, LIN_SLP_Pin);
 353              		.loc 1 91 3 is_stmt 1 view .LVU112
 354              	.LBB226:
 355              	.LBI226:
 923:Drivers/STM32G4xx_HAL_Driver/Inc/stm32g4xx_ll_gpio.h **** {
 356              		.loc 3 923 22 view .LVU113
 357              	.LBB227:
 358              		.loc 3 925 3 view .LVU114
 359 00da A3F50063 		sub	r3, r3, #2048
 360 00de 2022     		movs	r2, #32
 361 00e0 9A62     		str	r2, [r3, #40]
 362              	.LVL19:
ARM GAS  /tmp/cchxaK2W.s 			page 34


 363              		.loc 3 925 3 is_stmt 0 view .LVU115
 364              	.LBE227:
 365              	.LBE226:
  92:Core/Src/gpio.c **** 
  93:Core/Src/gpio.c ****   /**/
  94:Core/Src/gpio.c ****   LL_GPIO_ResetOutputPin(LCD_BKLT_GPIO_Port, LCD_BKLT_Pin);
 366              		.loc 1 94 3 is_stmt 1 view .LVU116
 367              	.LBB228:
 368              	.LBI228:
 923:Drivers/STM32G4xx_HAL_Driver/Inc/stm32g4xx_ll_gpio.h **** {
 369              		.loc 3 923 22 view .LVU117
 370              	.LBB229:
 371              		.loc 3 925 3 view .LVU118
 372 00e2 4022     		movs	r2, #64
 373 00e4 9A62     		str	r2, [r3, #40]
 374              	.LVL20:
 375              		.loc 3 925 3 is_stmt 0 view .LVU119
 376              	.LBE229:
 377              	.LBE228:
  95:Core/Src/gpio.c **** 
  96:Core/Src/gpio.c ****   /**/
  97:Core/Src/gpio.c ****   LL_GPIO_ResetOutputPin(FLASH_CS_GPIO_Port, FLASH_CS_Pin);
 378              		.loc 1 97 3 is_stmt 1 view .LVU120
 379              	.LBB230:
 380              	.LBI230:
 923:Drivers/STM32G4xx_HAL_Driver/Inc/stm32g4xx_ll_gpio.h **** {
 381              		.loc 3 923 22 view .LVU121
 382              	.LBB231:
 383              		.loc 3 925 3 view .LVU122
 384 00e6 DFF8FCB1 		ldr	fp, .L19+28
 385 00ea CBF82850 		str	r5, [fp, #40]
 386              	.LVL21:
 387              		.loc 3 925 3 is_stmt 0 view .LVU123
 388              	.LBE231:
 389              	.LBE230:
  98:Core/Src/gpio.c **** 
  99:Core/Src/gpio.c ****   /**/
 100:Core/Src/gpio.c ****   LL_GPIO_SetOutputPin(TOUCH_CS_GPIO_Port, TOUCH_CS_Pin);
 390              		.loc 1 100 3 is_stmt 1 view .LVU124
 391              	.LBB232:
 392              	.LBI232:
 894:Drivers/STM32G4xx_HAL_Driver/Inc/stm32g4xx_ll_gpio.h **** {
 393              		.loc 3 894 22 view .LVU125
 394              	.LBB233:
 896:Drivers/STM32G4xx_HAL_Driver/Inc/stm32g4xx_ll_gpio.h **** }
 395              		.loc 3 896 3 view .LVU126
 396 00ee CBF81880 		str	r8, [fp, #24]
 397              	.LVL22:
 896:Drivers/STM32G4xx_HAL_Driver/Inc/stm32g4xx_ll_gpio.h **** }
 398              		.loc 3 896 3 is_stmt 0 view .LVU127
 399              	.LBE233:
 400              	.LBE232:
 101:Core/Src/gpio.c **** 
 102:Core/Src/gpio.c ****   /**/
 103:Core/Src/gpio.c ****   GPIO_InitStruct.Pin = JOY_BTN_Pin;
 401              		.loc 1 103 3 is_stmt 1 view .LVU128
 402              		.loc 1 103 23 is_stmt 0 view .LVU129
ARM GAS  /tmp/cchxaK2W.s 			page 35


 403 00f2 4FF40053 		mov	r3, #8192
 404 00f6 0793     		str	r3, [sp, #28]
 104:Core/Src/gpio.c ****   GPIO_InitStruct.Mode = LL_GPIO_MODE_INPUT;
 405              		.loc 1 104 3 is_stmt 1 view .LVU130
 105:Core/Src/gpio.c ****   GPIO_InitStruct.Pull = LL_GPIO_PULL_UP;
 406              		.loc 1 105 3 view .LVU131
 407              		.loc 1 105 24 is_stmt 0 view .LVU132
 408 00f8 0B95     		str	r5, [sp, #44]
 106:Core/Src/gpio.c ****   LL_GPIO_Init(JOY_BTN_GPIO_Port, &GPIO_InitStruct);
 409              		.loc 1 106 3 is_stmt 1 view .LVU133
 410 00fa 07A9     		add	r1, sp, #28
 411 00fc 3846     		mov	r0, r7
 412 00fe FFF7FEFF 		bl	LL_GPIO_Init
 413              	.LVL23:
 107:Core/Src/gpio.c **** 
 108:Core/Src/gpio.c ****   /**/
 109:Core/Src/gpio.c ****   GPIO_InitStruct.Pin = BTN_OK_Pin;
 414              		.loc 1 109 3 view .LVU134
 415              		.loc 1 109 23 is_stmt 0 view .LVU135
 416 0102 4FF40043 		mov	r3, #32768
 417 0106 0793     		str	r3, [sp, #28]
 110:Core/Src/gpio.c ****   GPIO_InitStruct.Mode = LL_GPIO_MODE_INPUT;
 418              		.loc 1 110 3 is_stmt 1 view .LVU136
 419              		.loc 1 110 24 is_stmt 0 view .LVU137
 420 0108 0894     		str	r4, [sp, #32]
 111:Core/Src/gpio.c ****   GPIO_InitStruct.Pull = LL_GPIO_PULL_UP;
 421              		.loc 1 111 3 is_stmt 1 view .LVU138
 422              		.loc 1 111 24 is_stmt 0 view .LVU139
 423 010a 0B95     		str	r5, [sp, #44]
 112:Core/Src/gpio.c ****   LL_GPIO_Init(BTN_OK_GPIO_Port, &GPIO_InitStruct);
 424              		.loc 1 112 3 is_stmt 1 view .LVU140
 425 010c 07A9     		add	r1, sp, #28
 426 010e 3846     		mov	r0, r7
 427 0110 FFF7FEFF 		bl	LL_GPIO_Init
 428              	.LVL24:
 113:Core/Src/gpio.c **** 
 114:Core/Src/gpio.c ****   /**/
 115:Core/Src/gpio.c ****   GPIO_InitStruct.Pin = LED1_Pin;
 429              		.loc 1 115 3 view .LVU141
 430              		.loc 1 115 23 is_stmt 0 view .LVU142
 431 0114 CDF81C90 		str	r9, [sp, #28]
 116:Core/Src/gpio.c ****   GPIO_InitStruct.Mode = LL_GPIO_MODE_OUTPUT;
 432              		.loc 1 116 3 is_stmt 1 view .LVU143
 433              		.loc 1 116 24 is_stmt 0 view .LVU144
 434 0118 0895     		str	r5, [sp, #32]
 117:Core/Src/gpio.c ****   GPIO_InitStruct.Speed = LL_GPIO_SPEED_FREQ_LOW;
 435              		.loc 1 117 3 is_stmt 1 view .LVU145
 436              		.loc 1 117 25 is_stmt 0 view .LVU146
 437 011a 0994     		str	r4, [sp, #36]
 118:Core/Src/gpio.c ****   GPIO_InitStruct.OutputType = LL_GPIO_OUTPUT_PUSHPULL;
 438              		.loc 1 118 3 is_stmt 1 view .LVU147
 439              		.loc 1 118 30 is_stmt 0 view .LVU148
 440 011c 0A94     		str	r4, [sp, #40]
 119:Core/Src/gpio.c ****   GPIO_InitStruct.Pull = LL_GPIO_PULL_NO;
 441              		.loc 1 119 3 is_stmt 1 view .LVU149
 442              		.loc 1 119 24 is_stmt 0 view .LVU150
 443 011e 0B94     		str	r4, [sp, #44]
ARM GAS  /tmp/cchxaK2W.s 			page 36


 120:Core/Src/gpio.c ****   LL_GPIO_Init(LED1_GPIO_Port, &GPIO_InitStruct);
 444              		.loc 1 120 3 is_stmt 1 view .LVU151
 445 0120 07A9     		add	r1, sp, #28
 446 0122 3046     		mov	r0, r6
 447 0124 FFF7FEFF 		bl	LL_GPIO_Init
 448              	.LVL25:
 121:Core/Src/gpio.c **** 
 122:Core/Src/gpio.c ****   /**/
 123:Core/Src/gpio.c ****   GPIO_InitStruct.Pin = LED2_Pin;
 449              		.loc 1 123 3 view .LVU152
 450              		.loc 1 123 23 is_stmt 0 view .LVU153
 451 0128 1023     		movs	r3, #16
 452 012a 0793     		str	r3, [sp, #28]
 124:Core/Src/gpio.c ****   GPIO_InitStruct.Mode = LL_GPIO_MODE_OUTPUT;
 453              		.loc 1 124 3 is_stmt 1 view .LVU154
 454              		.loc 1 124 24 is_stmt 0 view .LVU155
 455 012c 0895     		str	r5, [sp, #32]
 125:Core/Src/gpio.c ****   GPIO_InitStruct.Speed = LL_GPIO_SPEED_FREQ_LOW;
 456              		.loc 1 125 3 is_stmt 1 view .LVU156
 457              		.loc 1 125 25 is_stmt 0 view .LVU157
 458 012e 0994     		str	r4, [sp, #36]
 126:Core/Src/gpio.c ****   GPIO_InitStruct.OutputType = LL_GPIO_OUTPUT_PUSHPULL;
 459              		.loc 1 126 3 is_stmt 1 view .LVU158
 460              		.loc 1 126 30 is_stmt 0 view .LVU159
 461 0130 0A94     		str	r4, [sp, #40]
 127:Core/Src/gpio.c ****   GPIO_InitStruct.Pull = LL_GPIO_PULL_NO;
 462              		.loc 1 127 3 is_stmt 1 view .LVU160
 463              		.loc 1 127 24 is_stmt 0 view .LVU161
 464 0132 0B94     		str	r4, [sp, #44]
 128:Core/Src/gpio.c ****   LL_GPIO_Init(LED2_GPIO_Port, &GPIO_InitStruct);
 465              		.loc 1 128 3 is_stmt 1 view .LVU162
 466 0134 07A9     		add	r1, sp, #28
 467 0136 3046     		mov	r0, r6
 468 0138 FFF7FEFF 		bl	LL_GPIO_Init
 469              	.LVL26:
 129:Core/Src/gpio.c **** 
 130:Core/Src/gpio.c ****   /**/
 131:Core/Src/gpio.c ****   GPIO_InitStruct.Pin = LED3_Pin;
 470              		.loc 1 131 3 view .LVU163
 471              		.loc 1 131 23 is_stmt 0 view .LVU164
 472 013c 2023     		movs	r3, #32
 473 013e 0793     		str	r3, [sp, #28]
 132:Core/Src/gpio.c ****   GPIO_InitStruct.Mode = LL_GPIO_MODE_OUTPUT;
 474              		.loc 1 132 3 is_stmt 1 view .LVU165
 475              		.loc 1 132 24 is_stmt 0 view .LVU166
 476 0140 0895     		str	r5, [sp, #32]
 133:Core/Src/gpio.c ****   GPIO_InitStruct.Speed = LL_GPIO_SPEED_FREQ_LOW;
 477              		.loc 1 133 3 is_stmt 1 view .LVU167
 478              		.loc 1 133 25 is_stmt 0 view .LVU168
 479 0142 0994     		str	r4, [sp, #36]
 134:Core/Src/gpio.c ****   GPIO_InitStruct.OutputType = LL_GPIO_OUTPUT_PUSHPULL;
 480              		.loc 1 134 3 is_stmt 1 view .LVU169
 481              		.loc 1 134 30 is_stmt 0 view .LVU170
 482 0144 0A94     		str	r4, [sp, #40]
 135:Core/Src/gpio.c ****   GPIO_InitStruct.Pull = LL_GPIO_PULL_NO;
 483              		.loc 1 135 3 is_stmt 1 view .LVU171
 484              		.loc 1 135 24 is_stmt 0 view .LVU172
ARM GAS  /tmp/cchxaK2W.s 			page 37


 485 0146 0B94     		str	r4, [sp, #44]
 136:Core/Src/gpio.c ****   LL_GPIO_Init(LED3_GPIO_Port, &GPIO_InitStruct);
 486              		.loc 1 136 3 is_stmt 1 view .LVU173
 487 0148 07A9     		add	r1, sp, #28
 488 014a 3046     		mov	r0, r6
 489 014c FFF7FEFF 		bl	LL_GPIO_Init
 490              	.LVL27:
 137:Core/Src/gpio.c **** 
 138:Core/Src/gpio.c ****   /**/
 139:Core/Src/gpio.c ****   GPIO_InitStruct.Pin = LED4_Pin;
 491              		.loc 1 139 3 view .LVU174
 492              		.loc 1 139 23 is_stmt 0 view .LVU175
 493 0150 0795     		str	r5, [sp, #28]
 140:Core/Src/gpio.c ****   GPIO_InitStruct.Mode = LL_GPIO_MODE_OUTPUT;
 494              		.loc 1 140 3 is_stmt 1 view .LVU176
 495              		.loc 1 140 24 is_stmt 0 view .LVU177
 496 0152 0895     		str	r5, [sp, #32]
 141:Core/Src/gpio.c ****   GPIO_InitStruct.Speed = LL_GPIO_SPEED_FREQ_LOW;
 497              		.loc 1 141 3 is_stmt 1 view .LVU178
 498              		.loc 1 141 25 is_stmt 0 view .LVU179
 499 0154 0994     		str	r4, [sp, #36]
 142:Core/Src/gpio.c ****   GPIO_InitStruct.OutputType = LL_GPIO_OUTPUT_PUSHPULL;
 500              		.loc 1 142 3 is_stmt 1 view .LVU180
 501              		.loc 1 142 30 is_stmt 0 view .LVU181
 502 0156 0A94     		str	r4, [sp, #40]
 143:Core/Src/gpio.c ****   GPIO_InitStruct.Pull = LL_GPIO_PULL_NO;
 503              		.loc 1 143 3 is_stmt 1 view .LVU182
 504              		.loc 1 143 24 is_stmt 0 view .LVU183
 505 0158 0B94     		str	r4, [sp, #44]
 144:Core/Src/gpio.c ****   LL_GPIO_Init(LED4_GPIO_Port, &GPIO_InitStruct);
 506              		.loc 1 144 3 is_stmt 1 view .LVU184
 507 015a 07A9     		add	r1, sp, #28
 508 015c 3846     		mov	r0, r7
 509 015e FFF7FEFF 		bl	LL_GPIO_Init
 510              	.LVL28:
 145:Core/Src/gpio.c **** 
 146:Core/Src/gpio.c ****   /**/
 147:Core/Src/gpio.c ****   GPIO_InitStruct.Pin = LED5_Pin;
 511              		.loc 1 147 3 view .LVU185
 512              		.loc 1 147 23 is_stmt 0 view .LVU186
 513 0162 CDF81C80 		str	r8, [sp, #28]
 148:Core/Src/gpio.c ****   GPIO_InitStruct.Mode = LL_GPIO_MODE_OUTPUT;
 514              		.loc 1 148 3 is_stmt 1 view .LVU187
 515              		.loc 1 148 24 is_stmt 0 view .LVU188
 516 0166 0895     		str	r5, [sp, #32]
 149:Core/Src/gpio.c ****   GPIO_InitStruct.Speed = LL_GPIO_SPEED_FREQ_LOW;
 517              		.loc 1 149 3 is_stmt 1 view .LVU189
 518              		.loc 1 149 25 is_stmt 0 view .LVU190
 519 0168 0994     		str	r4, [sp, #36]
 150:Core/Src/gpio.c ****   GPIO_InitStruct.OutputType = LL_GPIO_OUTPUT_PUSHPULL;
 520              		.loc 1 150 3 is_stmt 1 view .LVU191
 521              		.loc 1 150 30 is_stmt 0 view .LVU192
 522 016a 0A94     		str	r4, [sp, #40]
 151:Core/Src/gpio.c ****   GPIO_InitStruct.Pull = LL_GPIO_PULL_NO;
 523              		.loc 1 151 3 is_stmt 1 view .LVU193
 524              		.loc 1 151 24 is_stmt 0 view .LVU194
 525 016c 0B94     		str	r4, [sp, #44]
ARM GAS  /tmp/cchxaK2W.s 			page 38


 152:Core/Src/gpio.c ****   LL_GPIO_Init(LED5_GPIO_Port, &GPIO_InitStruct);
 526              		.loc 1 152 3 is_stmt 1 view .LVU195
 527 016e 07A9     		add	r1, sp, #28
 528 0170 3846     		mov	r0, r7
 529 0172 FFF7FEFF 		bl	LL_GPIO_Init
 530              	.LVL29:
 153:Core/Src/gpio.c **** 
 154:Core/Src/gpio.c ****   /**/
 155:Core/Src/gpio.c ****   GPIO_InitStruct.Pin = LED6_Pin;
 531              		.loc 1 155 3 view .LVU196
 532              		.loc 1 155 23 is_stmt 0 view .LVU197
 533 0176 0423     		movs	r3, #4
 534 0178 0793     		str	r3, [sp, #28]
 156:Core/Src/gpio.c ****   GPIO_InitStruct.Mode = LL_GPIO_MODE_OUTPUT;
 535              		.loc 1 156 3 is_stmt 1 view .LVU198
 536              		.loc 1 156 24 is_stmt 0 view .LVU199
 537 017a 0895     		str	r5, [sp, #32]
 157:Core/Src/gpio.c ****   GPIO_InitStruct.Speed = LL_GPIO_SPEED_FREQ_LOW;
 538              		.loc 1 157 3 is_stmt 1 view .LVU200
 539              		.loc 1 157 25 is_stmt 0 view .LVU201
 540 017c 0994     		str	r4, [sp, #36]
 158:Core/Src/gpio.c ****   GPIO_InitStruct.OutputType = LL_GPIO_OUTPUT_PUSHPULL;
 541              		.loc 1 158 3 is_stmt 1 view .LVU202
 542              		.loc 1 158 30 is_stmt 0 view .LVU203
 543 017e 0A94     		str	r4, [sp, #40]
 159:Core/Src/gpio.c ****   GPIO_InitStruct.Pull = LL_GPIO_PULL_NO;
 544              		.loc 1 159 3 is_stmt 1 view .LVU204
 545              		.loc 1 159 24 is_stmt 0 view .LVU205
 546 0180 0B94     		str	r4, [sp, #44]
 160:Core/Src/gpio.c ****   LL_GPIO_Init(LED6_GPIO_Port, &GPIO_InitStruct);
 547              		.loc 1 160 3 is_stmt 1 view .LVU206
 548 0182 07A9     		add	r1, sp, #28
 549 0184 3846     		mov	r0, r7
 550 0186 FFF7FEFF 		bl	LL_GPIO_Init
 551              	.LVL30:
 161:Core/Src/gpio.c **** 
 162:Core/Src/gpio.c ****   /**/
 163:Core/Src/gpio.c ****   GPIO_InitStruct.Pin = LED7_Pin;
 552              		.loc 1 163 3 view .LVU207
 553              		.loc 1 163 23 is_stmt 0 view .LVU208
 554 018a CDF81C90 		str	r9, [sp, #28]
 164:Core/Src/gpio.c ****   GPIO_InitStruct.Mode = LL_GPIO_MODE_OUTPUT;
 555              		.loc 1 164 3 is_stmt 1 view .LVU209
 556              		.loc 1 164 24 is_stmt 0 view .LVU210
 557 018e 0895     		str	r5, [sp, #32]
 165:Core/Src/gpio.c ****   GPIO_InitStruct.Speed = LL_GPIO_SPEED_FREQ_LOW;
 558              		.loc 1 165 3 is_stmt 1 view .LVU211
 559              		.loc 1 165 25 is_stmt 0 view .LVU212
 560 0190 0994     		str	r4, [sp, #36]
 166:Core/Src/gpio.c ****   GPIO_InitStruct.OutputType = LL_GPIO_OUTPUT_PUSHPULL;
 561              		.loc 1 166 3 is_stmt 1 view .LVU213
 562              		.loc 1 166 30 is_stmt 0 view .LVU214
 563 0192 0A94     		str	r4, [sp, #40]
 167:Core/Src/gpio.c ****   GPIO_InitStruct.Pull = LL_GPIO_PULL_NO;
 564              		.loc 1 167 3 is_stmt 1 view .LVU215
 565              		.loc 1 167 24 is_stmt 0 view .LVU216
 566 0194 0B94     		str	r4, [sp, #44]
ARM GAS  /tmp/cchxaK2W.s 			page 39


 168:Core/Src/gpio.c ****   LL_GPIO_Init(LED7_GPIO_Port, &GPIO_InitStruct);
 567              		.loc 1 168 3 is_stmt 1 view .LVU217
 568 0196 07A9     		add	r1, sp, #28
 569 0198 3846     		mov	r0, r7
 570 019a FFF7FEFF 		bl	LL_GPIO_Init
 571              	.LVL31:
 169:Core/Src/gpio.c **** 
 170:Core/Src/gpio.c ****   /**/
 171:Core/Src/gpio.c ****   GPIO_InitStruct.Pin = LED0_Pin;
 572              		.loc 1 171 3 view .LVU218
 573              		.loc 1 171 23 is_stmt 0 view .LVU219
 574 019e 0423     		movs	r3, #4
 575 01a0 0793     		str	r3, [sp, #28]
 172:Core/Src/gpio.c ****   GPIO_InitStruct.Mode = LL_GPIO_MODE_OUTPUT;
 576              		.loc 1 172 3 is_stmt 1 view .LVU220
 577              		.loc 1 172 24 is_stmt 0 view .LVU221
 578 01a2 0895     		str	r5, [sp, #32]
 173:Core/Src/gpio.c ****   GPIO_InitStruct.Speed = LL_GPIO_SPEED_FREQ_VERY_HIGH;
 579              		.loc 1 173 3 is_stmt 1 view .LVU222
 580              		.loc 1 173 25 is_stmt 0 view .LVU223
 581 01a4 0323     		movs	r3, #3
 582 01a6 0993     		str	r3, [sp, #36]
 174:Core/Src/gpio.c ****   GPIO_InitStruct.OutputType = LL_GPIO_OUTPUT_PUSHPULL;
 583              		.loc 1 174 3 is_stmt 1 view .LVU224
 584              		.loc 1 174 30 is_stmt 0 view .LVU225
 585 01a8 0A94     		str	r4, [sp, #40]
 175:Core/Src/gpio.c ****   GPIO_InitStruct.Pull = LL_GPIO_PULL_NO;
 586              		.loc 1 175 3 is_stmt 1 view .LVU226
 587              		.loc 1 175 24 is_stmt 0 view .LVU227
 588 01aa 0B94     		str	r4, [sp, #44]
 176:Core/Src/gpio.c ****   LL_GPIO_Init(LED0_GPIO_Port, &GPIO_InitStruct);
 589              		.loc 1 176 3 is_stmt 1 view .LVU228
 590 01ac 07A9     		add	r1, sp, #28
 591 01ae 3046     		mov	r0, r6
 592 01b0 FFF7FEFF 		bl	LL_GPIO_Init
 593              	.LVL32:
 177:Core/Src/gpio.c **** 
 178:Core/Src/gpio.c ****   /**/
 179:Core/Src/gpio.c ****   GPIO_InitStruct.Pin = ARDUINO_CS_Pin;
 594              		.loc 1 179 3 view .LVU229
 595              		.loc 1 179 23 is_stmt 0 view .LVU230
 596 01b4 4FF40063 		mov	r3, #2048
 597 01b8 0793     		str	r3, [sp, #28]
 180:Core/Src/gpio.c ****   GPIO_InitStruct.Mode = LL_GPIO_MODE_OUTPUT;
 598              		.loc 1 180 3 is_stmt 1 view .LVU231
 599              		.loc 1 180 24 is_stmt 0 view .LVU232
 600 01ba 0895     		str	r5, [sp, #32]
 181:Core/Src/gpio.c ****   GPIO_InitStruct.Speed = LL_GPIO_SPEED_FREQ_LOW;
 601              		.loc 1 181 3 is_stmt 1 view .LVU233
 602              		.loc 1 181 25 is_stmt 0 view .LVU234
 603 01bc 0994     		str	r4, [sp, #36]
 182:Core/Src/gpio.c ****   GPIO_InitStruct.OutputType = LL_GPIO_OUTPUT_PUSHPULL;
 604              		.loc 1 182 3 is_stmt 1 view .LVU235
 605              		.loc 1 182 30 is_stmt 0 view .LVU236
 606 01be 0A94     		str	r4, [sp, #40]
 183:Core/Src/gpio.c ****   GPIO_InitStruct.Pull = LL_GPIO_PULL_NO;
 607              		.loc 1 183 3 is_stmt 1 view .LVU237
ARM GAS  /tmp/cchxaK2W.s 			page 40


 608              		.loc 1 183 24 is_stmt 0 view .LVU238
 609 01c0 0B94     		str	r4, [sp, #44]
 184:Core/Src/gpio.c ****   LL_GPIO_Init(ARDUINO_CS_GPIO_Port, &GPIO_InitStruct);
 610              		.loc 1 184 3 is_stmt 1 view .LVU239
 611 01c2 07A9     		add	r1, sp, #28
 612 01c4 3046     		mov	r0, r6
 613 01c6 FFF7FEFF 		bl	LL_GPIO_Init
 614              	.LVL33:
 185:Core/Src/gpio.c **** 
 186:Core/Src/gpio.c ****   /**/
 187:Core/Src/gpio.c ****   GPIO_InitStruct.Pin = BTN_UP_Pin;
 615              		.loc 1 187 3 view .LVU240
 616              		.loc 1 187 23 is_stmt 0 view .LVU241
 617 01ca 0795     		str	r5, [sp, #28]
 188:Core/Src/gpio.c ****   GPIO_InitStruct.Mode = LL_GPIO_MODE_INPUT;
 618              		.loc 1 188 3 is_stmt 1 view .LVU242
 619              		.loc 1 188 24 is_stmt 0 view .LVU243
 620 01cc 0894     		str	r4, [sp, #32]
 189:Core/Src/gpio.c ****   GPIO_InitStruct.Pull = LL_GPIO_PULL_UP;
 621              		.loc 1 189 3 is_stmt 1 view .LVU244
 622              		.loc 1 189 24 is_stmt 0 view .LVU245
 623 01ce 0B95     		str	r5, [sp, #44]
 190:Core/Src/gpio.c ****   LL_GPIO_Init(BTN_UP_GPIO_Port, &GPIO_InitStruct);
 624              		.loc 1 190 3 is_stmt 1 view .LVU246
 625 01d0 07A9     		add	r1, sp, #28
 626 01d2 5046     		mov	r0, r10
 627 01d4 FFF7FEFF 		bl	LL_GPIO_Init
 628              	.LVL34:
 191:Core/Src/gpio.c **** 
 192:Core/Src/gpio.c ****   /**/
 193:Core/Src/gpio.c ****   GPIO_InitStruct.Pin = BTN_DOWN_Pin;
 629              		.loc 1 193 3 view .LVU247
 630              		.loc 1 193 23 is_stmt 0 view .LVU248
 631 01d8 CDF81C80 		str	r8, [sp, #28]
 194:Core/Src/gpio.c ****   GPIO_InitStruct.Mode = LL_GPIO_MODE_INPUT;
 632              		.loc 1 194 3 is_stmt 1 view .LVU249
 633              		.loc 1 194 24 is_stmt 0 view .LVU250
 634 01dc 0894     		str	r4, [sp, #32]
 195:Core/Src/gpio.c ****   GPIO_InitStruct.Pull = LL_GPIO_PULL_UP;
 635              		.loc 1 195 3 is_stmt 1 view .LVU251
 636              		.loc 1 195 24 is_stmt 0 view .LVU252
 637 01de 0B95     		str	r5, [sp, #44]
 196:Core/Src/gpio.c ****   LL_GPIO_Init(BTN_DOWN_GPIO_Port, &GPIO_InitStruct);
 638              		.loc 1 196 3 is_stmt 1 view .LVU253
 639 01e0 07A9     		add	r1, sp, #28
 640 01e2 5046     		mov	r0, r10
 641 01e4 FFF7FEFF 		bl	LL_GPIO_Init
 642              	.LVL35:
 197:Core/Src/gpio.c **** 
 198:Core/Src/gpio.c ****   /**/
 199:Core/Src/gpio.c ****   GPIO_InitStruct.Pin = BTN_LEFT_Pin;
 643              		.loc 1 199 3 view .LVU254
 644              		.loc 1 199 23 is_stmt 0 view .LVU255
 645 01e8 4023     		movs	r3, #64
 646 01ea 0793     		str	r3, [sp, #28]
 200:Core/Src/gpio.c ****   GPIO_InitStruct.Mode = LL_GPIO_MODE_INPUT;
 647              		.loc 1 200 3 is_stmt 1 view .LVU256
ARM GAS  /tmp/cchxaK2W.s 			page 41


 648              		.loc 1 200 24 is_stmt 0 view .LVU257
 649 01ec 0894     		str	r4, [sp, #32]
 201:Core/Src/gpio.c ****   GPIO_InitStruct.Pull = LL_GPIO_PULL_UP;
 650              		.loc 1 201 3 is_stmt 1 view .LVU258
 651              		.loc 1 201 24 is_stmt 0 view .LVU259
 652 01ee 0B95     		str	r5, [sp, #44]
 202:Core/Src/gpio.c ****   LL_GPIO_Init(BTN_LEFT_GPIO_Port, &GPIO_InitStruct);
 653              		.loc 1 202 3 is_stmt 1 view .LVU260
 654 01f0 07A9     		add	r1, sp, #28
 655 01f2 5046     		mov	r0, r10
 656 01f4 FFF7FEFF 		bl	LL_GPIO_Init
 657              	.LVL36:
 203:Core/Src/gpio.c **** 
 204:Core/Src/gpio.c ****   /**/
 205:Core/Src/gpio.c ****   GPIO_InitStruct.Pin = CAN_STBY_Pin;
 658              		.loc 1 205 3 view .LVU261
 659              		.loc 1 205 23 is_stmt 0 view .LVU262
 660 01f8 8023     		movs	r3, #128
 661 01fa 0793     		str	r3, [sp, #28]
 206:Core/Src/gpio.c ****   GPIO_InitStruct.Mode = LL_GPIO_MODE_OUTPUT;
 662              		.loc 1 206 3 is_stmt 1 view .LVU263
 663              		.loc 1 206 24 is_stmt 0 view .LVU264
 664 01fc 0895     		str	r5, [sp, #32]
 207:Core/Src/gpio.c ****   GPIO_InitStruct.Speed = LL_GPIO_SPEED_FREQ_LOW;
 665              		.loc 1 207 3 is_stmt 1 view .LVU265
 666              		.loc 1 207 25 is_stmt 0 view .LVU266
 667 01fe 0994     		str	r4, [sp, #36]
 208:Core/Src/gpio.c ****   GPIO_InitStruct.OutputType = LL_GPIO_OUTPUT_PUSHPULL;
 668              		.loc 1 208 3 is_stmt 1 view .LVU267
 669              		.loc 1 208 30 is_stmt 0 view .LVU268
 670 0200 0A94     		str	r4, [sp, #40]
 209:Core/Src/gpio.c ****   GPIO_InitStruct.Pull = LL_GPIO_PULL_NO;
 671              		.loc 1 209 3 is_stmt 1 view .LVU269
 672              		.loc 1 209 24 is_stmt 0 view .LVU270
 673 0202 0B94     		str	r4, [sp, #44]
 210:Core/Src/gpio.c ****   LL_GPIO_Init(CAN_STBY_GPIO_Port, &GPIO_InitStruct);
 674              		.loc 1 210 3 is_stmt 1 view .LVU271
 675 0204 07A9     		add	r1, sp, #28
 676 0206 5046     		mov	r0, r10
 677 0208 FFF7FEFF 		bl	LL_GPIO_Init
 678              	.LVL37:
 211:Core/Src/gpio.c **** 
 212:Core/Src/gpio.c ****   /**/
 213:Core/Src/gpio.c ****   GPIO_InitStruct.Pin = BTN_RIGHT_Pin;
 679              		.loc 1 213 3 view .LVU272
 680              		.loc 1 213 23 is_stmt 0 view .LVU273
 681 020c 4FF48073 		mov	r3, #256
 682 0210 0793     		str	r3, [sp, #28]
 214:Core/Src/gpio.c ****   GPIO_InitStruct.Mode = LL_GPIO_MODE_INPUT;
 683              		.loc 1 214 3 is_stmt 1 view .LVU274
 684              		.loc 1 214 24 is_stmt 0 view .LVU275
 685 0212 0894     		str	r4, [sp, #32]
 215:Core/Src/gpio.c ****   GPIO_InitStruct.Pull = LL_GPIO_PULL_UP;
 686              		.loc 1 215 3 is_stmt 1 view .LVU276
 687              		.loc 1 215 24 is_stmt 0 view .LVU277
 688 0214 0B95     		str	r5, [sp, #44]
 216:Core/Src/gpio.c ****   LL_GPIO_Init(BTN_RIGHT_GPIO_Port, &GPIO_InitStruct);
ARM GAS  /tmp/cchxaK2W.s 			page 42


 689              		.loc 1 216 3 is_stmt 1 view .LVU278
 690 0216 07A9     		add	r1, sp, #28
 691 0218 5046     		mov	r0, r10
 692 021a FFF7FEFF 		bl	LL_GPIO_Init
 693              	.LVL38:
 217:Core/Src/gpio.c **** 
 218:Core/Src/gpio.c ****   /**/
 219:Core/Src/gpio.c ****   GPIO_InitStruct.Pin = LCD_RST_Pin;
 694              		.loc 1 219 3 view .LVU279
 695              		.loc 1 219 23 is_stmt 0 view .LVU280
 696 021e CDF81C90 		str	r9, [sp, #28]
 220:Core/Src/gpio.c ****   GPIO_InitStruct.Mode = LL_GPIO_MODE_OUTPUT;
 697              		.loc 1 220 3 is_stmt 1 view .LVU281
 698              		.loc 1 220 24 is_stmt 0 view .LVU282
 699 0222 0895     		str	r5, [sp, #32]
 221:Core/Src/gpio.c ****   GPIO_InitStruct.Speed = LL_GPIO_SPEED_FREQ_LOW;
 700              		.loc 1 221 3 is_stmt 1 view .LVU283
 701              		.loc 1 221 25 is_stmt 0 view .LVU284
 702 0224 0994     		str	r4, [sp, #36]
 222:Core/Src/gpio.c ****   GPIO_InitStruct.OutputType = LL_GPIO_OUTPUT_PUSHPULL;
 703              		.loc 1 222 3 is_stmt 1 view .LVU285
 704              		.loc 1 222 30 is_stmt 0 view .LVU286
 705 0226 0A94     		str	r4, [sp, #40]
 223:Core/Src/gpio.c ****   GPIO_InitStruct.Pull = LL_GPIO_PULL_NO;
 706              		.loc 1 223 3 is_stmt 1 view .LVU287
 707              		.loc 1 223 24 is_stmt 0 view .LVU288
 708 0228 0B94     		str	r4, [sp, #44]
 224:Core/Src/gpio.c ****   LL_GPIO_Init(LCD_RST_GPIO_Port, &GPIO_InitStruct);
 709              		.loc 1 224 3 is_stmt 1 view .LVU289
 710 022a 07A9     		add	r1, sp, #28
 711 022c 2948     		ldr	r0, .L19+12
 712 022e FFF7FEFF 		bl	LL_GPIO_Init
 713              	.LVL39:
 225:Core/Src/gpio.c **** 
 226:Core/Src/gpio.c ****   /**/
 227:Core/Src/gpio.c ****   GPIO_InitStruct.Pin = LIN_SLP_Pin;
 714              		.loc 1 227 3 view .LVU290
 715              		.loc 1 227 23 is_stmt 0 view .LVU291
 716 0232 2023     		movs	r3, #32
 717 0234 0793     		str	r3, [sp, #28]
 228:Core/Src/gpio.c ****   GPIO_InitStruct.Mode = LL_GPIO_MODE_OUTPUT;
 718              		.loc 1 228 3 is_stmt 1 view .LVU292
 719              		.loc 1 228 24 is_stmt 0 view .LVU293
 720 0236 0895     		str	r5, [sp, #32]
 229:Core/Src/gpio.c ****   GPIO_InitStruct.Speed = LL_GPIO_SPEED_FREQ_LOW;
 721              		.loc 1 229 3 is_stmt 1 view .LVU294
 722              		.loc 1 229 25 is_stmt 0 view .LVU295
 723 0238 0994     		str	r4, [sp, #36]
 230:Core/Src/gpio.c ****   GPIO_InitStruct.OutputType = LL_GPIO_OUTPUT_PUSHPULL;
 724              		.loc 1 230 3 is_stmt 1 view .LVU296
 725              		.loc 1 230 30 is_stmt 0 view .LVU297
 726 023a 0A94     		str	r4, [sp, #40]
 231:Core/Src/gpio.c ****   GPIO_InitStruct.Pull = LL_GPIO_PULL_NO;
 727              		.loc 1 231 3 is_stmt 1 view .LVU298
 728              		.loc 1 231 24 is_stmt 0 view .LVU299
 729 023c 0B94     		str	r4, [sp, #44]
 232:Core/Src/gpio.c ****   LL_GPIO_Init(LIN_SLP_GPIO_Port, &GPIO_InitStruct);
ARM GAS  /tmp/cchxaK2W.s 			page 43


 730              		.loc 1 232 3 is_stmt 1 view .LVU300
 731 023e 07A9     		add	r1, sp, #28
 732 0240 2548     		ldr	r0, .L19+16
 733 0242 FFF7FEFF 		bl	LL_GPIO_Init
 734              	.LVL40:
 233:Core/Src/gpio.c **** 
 234:Core/Src/gpio.c ****   /**/
 235:Core/Src/gpio.c ****   GPIO_InitStruct.Pin = LCD_BKLT_Pin;
 735              		.loc 1 235 3 view .LVU301
 736              		.loc 1 235 23 is_stmt 0 view .LVU302
 737 0246 4023     		movs	r3, #64
 738 0248 0793     		str	r3, [sp, #28]
 236:Core/Src/gpio.c ****   GPIO_InitStruct.Mode = LL_GPIO_MODE_OUTPUT;
 739              		.loc 1 236 3 is_stmt 1 view .LVU303
 740              		.loc 1 236 24 is_stmt 0 view .LVU304
 741 024a 0895     		str	r5, [sp, #32]
 237:Core/Src/gpio.c ****   GPIO_InitStruct.Speed = LL_GPIO_SPEED_FREQ_LOW;
 742              		.loc 1 237 3 is_stmt 1 view .LVU305
 743              		.loc 1 237 25 is_stmt 0 view .LVU306
 744 024c 0994     		str	r4, [sp, #36]
 238:Core/Src/gpio.c ****   GPIO_InitStruct.OutputType = LL_GPIO_OUTPUT_PUSHPULL;
 745              		.loc 1 238 3 is_stmt 1 view .LVU307
 746              		.loc 1 238 30 is_stmt 0 view .LVU308
 747 024e 0A94     		str	r4, [sp, #40]
 239:Core/Src/gpio.c ****   GPIO_InitStruct.Pull = LL_GPIO_PULL_NO;
 748              		.loc 1 239 3 is_stmt 1 view .LVU309
 749              		.loc 1 239 24 is_stmt 0 view .LVU310
 750 0250 0B94     		str	r4, [sp, #44]
 240:Core/Src/gpio.c ****   LL_GPIO_Init(LCD_BKLT_GPIO_Port, &GPIO_InitStruct);
 751              		.loc 1 240 3 is_stmt 1 view .LVU311
 752 0252 07A9     		add	r1, sp, #28
 753 0254 2048     		ldr	r0, .L19+16
 754 0256 FFF7FEFF 		bl	LL_GPIO_Init
 755              	.LVL41:
 241:Core/Src/gpio.c **** 
 242:Core/Src/gpio.c ****   /**/
 243:Core/Src/gpio.c ****   GPIO_InitStruct.Pin = FLASH_CS_Pin;
 756              		.loc 1 243 3 view .LVU312
 757              		.loc 1 243 23 is_stmt 0 view .LVU313
 758 025a 0795     		str	r5, [sp, #28]
 244:Core/Src/gpio.c ****   GPIO_InitStruct.Mode = LL_GPIO_MODE_OUTPUT;
 759              		.loc 1 244 3 is_stmt 1 view .LVU314
 760              		.loc 1 244 24 is_stmt 0 view .LVU315
 761 025c 0895     		str	r5, [sp, #32]
 245:Core/Src/gpio.c ****   GPIO_InitStruct.Speed = LL_GPIO_SPEED_FREQ_LOW;
 762              		.loc 1 245 3 is_stmt 1 view .LVU316
 763              		.loc 1 245 25 is_stmt 0 view .LVU317
 764 025e 0994     		str	r4, [sp, #36]
 246:Core/Src/gpio.c ****   GPIO_InitStruct.OutputType = LL_GPIO_OUTPUT_PUSHPULL;
 765              		.loc 1 246 3 is_stmt 1 view .LVU318
 766              		.loc 1 246 30 is_stmt 0 view .LVU319
 767 0260 0A94     		str	r4, [sp, #40]
 247:Core/Src/gpio.c ****   GPIO_InitStruct.Pull = LL_GPIO_PULL_NO;
 768              		.loc 1 247 3 is_stmt 1 view .LVU320
 769              		.loc 1 247 24 is_stmt 0 view .LVU321
 770 0262 0B94     		str	r4, [sp, #44]
 248:Core/Src/gpio.c ****   LL_GPIO_Init(FLASH_CS_GPIO_Port, &GPIO_InitStruct);
ARM GAS  /tmp/cchxaK2W.s 			page 44


 771              		.loc 1 248 3 is_stmt 1 view .LVU322
 772 0264 07A9     		add	r1, sp, #28
 773 0266 5846     		mov	r0, fp
 774 0268 FFF7FEFF 		bl	LL_GPIO_Init
 775              	.LVL42:
 249:Core/Src/gpio.c **** 
 250:Core/Src/gpio.c ****   /**/
 251:Core/Src/gpio.c ****   GPIO_InitStruct.Pin = TOUCH_CS_Pin;
 776              		.loc 1 251 3 view .LVU323
 777              		.loc 1 251 23 is_stmt 0 view .LVU324
 778 026c CDF81C80 		str	r8, [sp, #28]
 252:Core/Src/gpio.c ****   GPIO_InitStruct.Mode = LL_GPIO_MODE_OUTPUT;
 779              		.loc 1 252 3 is_stmt 1 view .LVU325
 780              		.loc 1 252 24 is_stmt 0 view .LVU326
 781 0270 0895     		str	r5, [sp, #32]
 253:Core/Src/gpio.c ****   GPIO_InitStruct.Speed = LL_GPIO_SPEED_FREQ_HIGH;
 782              		.loc 1 253 3 is_stmt 1 view .LVU327
 783              		.loc 1 253 25 is_stmt 0 view .LVU328
 784 0272 CDF82480 		str	r8, [sp, #36]
 254:Core/Src/gpio.c ****   GPIO_InitStruct.OutputType = LL_GPIO_OUTPUT_PUSHPULL;
 785              		.loc 1 254 3 is_stmt 1 view .LVU329
 786              		.loc 1 254 30 is_stmt 0 view .LVU330
 787 0276 0A94     		str	r4, [sp, #40]
 255:Core/Src/gpio.c ****   GPIO_InitStruct.Pull = LL_GPIO_PULL_UP;
 788              		.loc 1 255 3 is_stmt 1 view .LVU331
 789              		.loc 1 255 24 is_stmt 0 view .LVU332
 790 0278 0B95     		str	r5, [sp, #44]
 256:Core/Src/gpio.c ****   LL_GPIO_Init(TOUCH_CS_GPIO_Port, &GPIO_InitStruct);
 791              		.loc 1 256 3 is_stmt 1 view .LVU333
 792 027a 07A9     		add	r1, sp, #28
 793 027c 5846     		mov	r0, fp
 794 027e FFF7FEFF 		bl	LL_GPIO_Init
 795              	.LVL43:
 257:Core/Src/gpio.c **** 
 258:Core/Src/gpio.c ****   /**/
 259:Core/Src/gpio.c ****   LL_SYSCFG_SetEXTISource(LL_SYSCFG_EXTI_PORTC, LL_SYSCFG_EXTI_LINE14);
 796              		.loc 1 259 3 view .LVU334
 797              	.LBB234:
 798              	.LBI234:
 799              		.file 4 "Drivers/STM32G4xx_HAL_Driver/Inc/stm32g4xx_ll_system.h"
   1:Drivers/STM32G4xx_HAL_Driver/Inc/stm32g4xx_ll_system.h **** /**
   2:Drivers/STM32G4xx_HAL_Driver/Inc/stm32g4xx_ll_system.h ****   ******************************************************************************
   3:Drivers/STM32G4xx_HAL_Driver/Inc/stm32g4xx_ll_system.h ****   * @file    stm32g4xx_ll_system.h
   4:Drivers/STM32G4xx_HAL_Driver/Inc/stm32g4xx_ll_system.h ****   * @author  MCD Application Team
   5:Drivers/STM32G4xx_HAL_Driver/Inc/stm32g4xx_ll_system.h ****   * @brief   Header file of SYSTEM LL module.
   6:Drivers/STM32G4xx_HAL_Driver/Inc/stm32g4xx_ll_system.h ****   ******************************************************************************
   7:Drivers/STM32G4xx_HAL_Driver/Inc/stm32g4xx_ll_system.h ****   * @attention
   8:Drivers/STM32G4xx_HAL_Driver/Inc/stm32g4xx_ll_system.h ****   *
   9:Drivers/STM32G4xx_HAL_Driver/Inc/stm32g4xx_ll_system.h ****   * Copyright (c) 2019 STMicroelectronics.
  10:Drivers/STM32G4xx_HAL_Driver/Inc/stm32g4xx_ll_system.h ****   * All rights reserved.
  11:Drivers/STM32G4xx_HAL_Driver/Inc/stm32g4xx_ll_system.h ****   *
  12:Drivers/STM32G4xx_HAL_Driver/Inc/stm32g4xx_ll_system.h ****   * This software is licensed under terms that can be found in the LICENSE file
  13:Drivers/STM32G4xx_HAL_Driver/Inc/stm32g4xx_ll_system.h ****   * in the root directory of this software component.
  14:Drivers/STM32G4xx_HAL_Driver/Inc/stm32g4xx_ll_system.h ****   * If no LICENSE file comes with this software, it is provided AS-IS.
  15:Drivers/STM32G4xx_HAL_Driver/Inc/stm32g4xx_ll_system.h ****   *
  16:Drivers/STM32G4xx_HAL_Driver/Inc/stm32g4xx_ll_system.h ****   ******************************************************************************
  17:Drivers/STM32G4xx_HAL_Driver/Inc/stm32g4xx_ll_system.h ****   @verbatim
ARM GAS  /tmp/cchxaK2W.s 			page 45


  18:Drivers/STM32G4xx_HAL_Driver/Inc/stm32g4xx_ll_system.h ****   ==============================================================================
  19:Drivers/STM32G4xx_HAL_Driver/Inc/stm32g4xx_ll_system.h ****                      ##### How to use this driver #####
  20:Drivers/STM32G4xx_HAL_Driver/Inc/stm32g4xx_ll_system.h ****   ==============================================================================
  21:Drivers/STM32G4xx_HAL_Driver/Inc/stm32g4xx_ll_system.h ****     [..]
  22:Drivers/STM32G4xx_HAL_Driver/Inc/stm32g4xx_ll_system.h ****     The LL SYSTEM driver contains a set of generic APIs that can be
  23:Drivers/STM32G4xx_HAL_Driver/Inc/stm32g4xx_ll_system.h ****     used by user:
  24:Drivers/STM32G4xx_HAL_Driver/Inc/stm32g4xx_ll_system.h ****       (+) Some of the FLASH features need to be handled in the SYSTEM file.
  25:Drivers/STM32G4xx_HAL_Driver/Inc/stm32g4xx_ll_system.h ****       (+) Access to DBGCMU registers
  26:Drivers/STM32G4xx_HAL_Driver/Inc/stm32g4xx_ll_system.h ****       (+) Access to SYSCFG registers
  27:Drivers/STM32G4xx_HAL_Driver/Inc/stm32g4xx_ll_system.h ****       (+) Access to VREFBUF registers
  28:Drivers/STM32G4xx_HAL_Driver/Inc/stm32g4xx_ll_system.h **** 
  29:Drivers/STM32G4xx_HAL_Driver/Inc/stm32g4xx_ll_system.h ****   @endverbatim
  30:Drivers/STM32G4xx_HAL_Driver/Inc/stm32g4xx_ll_system.h ****   ******************************************************************************
  31:Drivers/STM32G4xx_HAL_Driver/Inc/stm32g4xx_ll_system.h ****   */
  32:Drivers/STM32G4xx_HAL_Driver/Inc/stm32g4xx_ll_system.h **** 
  33:Drivers/STM32G4xx_HAL_Driver/Inc/stm32g4xx_ll_system.h **** /* Define to prevent recursive inclusion -------------------------------------*/
  34:Drivers/STM32G4xx_HAL_Driver/Inc/stm32g4xx_ll_system.h **** #ifndef __STM32G4xx_LL_SYSTEM_H
  35:Drivers/STM32G4xx_HAL_Driver/Inc/stm32g4xx_ll_system.h **** #define __STM32G4xx_LL_SYSTEM_H
  36:Drivers/STM32G4xx_HAL_Driver/Inc/stm32g4xx_ll_system.h **** 
  37:Drivers/STM32G4xx_HAL_Driver/Inc/stm32g4xx_ll_system.h **** #ifdef __cplusplus
  38:Drivers/STM32G4xx_HAL_Driver/Inc/stm32g4xx_ll_system.h **** extern "C" {
  39:Drivers/STM32G4xx_HAL_Driver/Inc/stm32g4xx_ll_system.h **** #endif
  40:Drivers/STM32G4xx_HAL_Driver/Inc/stm32g4xx_ll_system.h **** 
  41:Drivers/STM32G4xx_HAL_Driver/Inc/stm32g4xx_ll_system.h **** /* Includes ------------------------------------------------------------------*/
  42:Drivers/STM32G4xx_HAL_Driver/Inc/stm32g4xx_ll_system.h **** #include "stm32g4xx.h"
  43:Drivers/STM32G4xx_HAL_Driver/Inc/stm32g4xx_ll_system.h **** 
  44:Drivers/STM32G4xx_HAL_Driver/Inc/stm32g4xx_ll_system.h **** /** @addtogroup STM32G4xx_LL_Driver
  45:Drivers/STM32G4xx_HAL_Driver/Inc/stm32g4xx_ll_system.h ****   * @{
  46:Drivers/STM32G4xx_HAL_Driver/Inc/stm32g4xx_ll_system.h ****   */
  47:Drivers/STM32G4xx_HAL_Driver/Inc/stm32g4xx_ll_system.h **** 
  48:Drivers/STM32G4xx_HAL_Driver/Inc/stm32g4xx_ll_system.h **** #if defined (FLASH) || defined (SYSCFG) || defined (DBGMCU) || defined (VREFBUF)
  49:Drivers/STM32G4xx_HAL_Driver/Inc/stm32g4xx_ll_system.h **** 
  50:Drivers/STM32G4xx_HAL_Driver/Inc/stm32g4xx_ll_system.h **** /** @defgroup SYSTEM_LL SYSTEM
  51:Drivers/STM32G4xx_HAL_Driver/Inc/stm32g4xx_ll_system.h ****   * @{
  52:Drivers/STM32G4xx_HAL_Driver/Inc/stm32g4xx_ll_system.h ****   */
  53:Drivers/STM32G4xx_HAL_Driver/Inc/stm32g4xx_ll_system.h **** 
  54:Drivers/STM32G4xx_HAL_Driver/Inc/stm32g4xx_ll_system.h **** /* Private types -------------------------------------------------------------*/
  55:Drivers/STM32G4xx_HAL_Driver/Inc/stm32g4xx_ll_system.h **** /* Private variables ---------------------------------------------------------*/
  56:Drivers/STM32G4xx_HAL_Driver/Inc/stm32g4xx_ll_system.h **** 
  57:Drivers/STM32G4xx_HAL_Driver/Inc/stm32g4xx_ll_system.h **** /* Private constants ---------------------------------------------------------*/
  58:Drivers/STM32G4xx_HAL_Driver/Inc/stm32g4xx_ll_system.h **** /** @defgroup SYSTEM_LL_Private_Constants SYSTEM Private Constants
  59:Drivers/STM32G4xx_HAL_Driver/Inc/stm32g4xx_ll_system.h ****   * @{
  60:Drivers/STM32G4xx_HAL_Driver/Inc/stm32g4xx_ll_system.h ****   */
  61:Drivers/STM32G4xx_HAL_Driver/Inc/stm32g4xx_ll_system.h **** 
  62:Drivers/STM32G4xx_HAL_Driver/Inc/stm32g4xx_ll_system.h **** /* Defines used for position in the register */
  63:Drivers/STM32G4xx_HAL_Driver/Inc/stm32g4xx_ll_system.h **** #define DBGMCU_REVID_POSITION         (uint32_t)POSITION_VAL(DBGMCU_IDCODE_REV_ID)
  64:Drivers/STM32G4xx_HAL_Driver/Inc/stm32g4xx_ll_system.h **** 
  65:Drivers/STM32G4xx_HAL_Driver/Inc/stm32g4xx_ll_system.h **** /**
  66:Drivers/STM32G4xx_HAL_Driver/Inc/stm32g4xx_ll_system.h ****   * @brief Power-down in Run mode Flash key
  67:Drivers/STM32G4xx_HAL_Driver/Inc/stm32g4xx_ll_system.h ****   */
  68:Drivers/STM32G4xx_HAL_Driver/Inc/stm32g4xx_ll_system.h **** #define FLASH_PDKEY1                  0x04152637U /*!< Flash power down key1 */
  69:Drivers/STM32G4xx_HAL_Driver/Inc/stm32g4xx_ll_system.h **** #define FLASH_PDKEY2                  0xFAFBFCFDU /*!< Flash power down key2: used with FLASH_PDKEY
  70:Drivers/STM32G4xx_HAL_Driver/Inc/stm32g4xx_ll_system.h ****                                                        to unlock the RUN_PD bit in FLASH_ACR */
  71:Drivers/STM32G4xx_HAL_Driver/Inc/stm32g4xx_ll_system.h **** 
  72:Drivers/STM32G4xx_HAL_Driver/Inc/stm32g4xx_ll_system.h **** /**
  73:Drivers/STM32G4xx_HAL_Driver/Inc/stm32g4xx_ll_system.h ****   * @}
  74:Drivers/STM32G4xx_HAL_Driver/Inc/stm32g4xx_ll_system.h ****   */
ARM GAS  /tmp/cchxaK2W.s 			page 46


  75:Drivers/STM32G4xx_HAL_Driver/Inc/stm32g4xx_ll_system.h **** 
  76:Drivers/STM32G4xx_HAL_Driver/Inc/stm32g4xx_ll_system.h **** /* Private macros ------------------------------------------------------------*/
  77:Drivers/STM32G4xx_HAL_Driver/Inc/stm32g4xx_ll_system.h **** 
  78:Drivers/STM32G4xx_HAL_Driver/Inc/stm32g4xx_ll_system.h **** /* Exported types ------------------------------------------------------------*/
  79:Drivers/STM32G4xx_HAL_Driver/Inc/stm32g4xx_ll_system.h **** /* Exported constants --------------------------------------------------------*/
  80:Drivers/STM32G4xx_HAL_Driver/Inc/stm32g4xx_ll_system.h **** /** @defgroup SYSTEM_LL_Exported_Constants SYSTEM Exported Constants
  81:Drivers/STM32G4xx_HAL_Driver/Inc/stm32g4xx_ll_system.h ****   * @{
  82:Drivers/STM32G4xx_HAL_Driver/Inc/stm32g4xx_ll_system.h ****   */
  83:Drivers/STM32G4xx_HAL_Driver/Inc/stm32g4xx_ll_system.h **** 
  84:Drivers/STM32G4xx_HAL_Driver/Inc/stm32g4xx_ll_system.h **** /** @defgroup SYSTEM_LL_EC_REMAP SYSCFG REMAP
  85:Drivers/STM32G4xx_HAL_Driver/Inc/stm32g4xx_ll_system.h ****   * @{
  86:Drivers/STM32G4xx_HAL_Driver/Inc/stm32g4xx_ll_system.h ****   */
  87:Drivers/STM32G4xx_HAL_Driver/Inc/stm32g4xx_ll_system.h **** #define LL_SYSCFG_REMAP_FLASH              0x00000000U                                           /*
  88:Drivers/STM32G4xx_HAL_Driver/Inc/stm32g4xx_ll_system.h **** #define LL_SYSCFG_REMAP_SYSTEMFLASH        SYSCFG_MEMRMP_MEM_MODE_0                              /*
  89:Drivers/STM32G4xx_HAL_Driver/Inc/stm32g4xx_ll_system.h **** #define LL_SYSCFG_REMAP_SRAM               (SYSCFG_MEMRMP_MEM_MODE_1 | SYSCFG_MEMRMP_MEM_MODE_0) /*
  90:Drivers/STM32G4xx_HAL_Driver/Inc/stm32g4xx_ll_system.h **** #if defined(FMC_Bank1_R)
  91:Drivers/STM32G4xx_HAL_Driver/Inc/stm32g4xx_ll_system.h **** #define LL_SYSCFG_REMAP_FMC                SYSCFG_MEMRMP_MEM_MODE_1                              /*
  92:Drivers/STM32G4xx_HAL_Driver/Inc/stm32g4xx_ll_system.h **** #endif /* FMC_Bank1_R */
  93:Drivers/STM32G4xx_HAL_Driver/Inc/stm32g4xx_ll_system.h **** #define LL_SYSCFG_REMAP_QUADSPI            (SYSCFG_MEMRMP_MEM_MODE_2 | SYSCFG_MEMRMP_MEM_MODE_1) /*
  94:Drivers/STM32G4xx_HAL_Driver/Inc/stm32g4xx_ll_system.h **** /**
  95:Drivers/STM32G4xx_HAL_Driver/Inc/stm32g4xx_ll_system.h ****   * @}
  96:Drivers/STM32G4xx_HAL_Driver/Inc/stm32g4xx_ll_system.h ****   */
  97:Drivers/STM32G4xx_HAL_Driver/Inc/stm32g4xx_ll_system.h **** 
  98:Drivers/STM32G4xx_HAL_Driver/Inc/stm32g4xx_ll_system.h **** #if defined(SYSCFG_MEMRMP_FB_MODE)
  99:Drivers/STM32G4xx_HAL_Driver/Inc/stm32g4xx_ll_system.h **** /** @defgroup SYSTEM_LL_EC_BANKMODE SYSCFG BANK MODE
 100:Drivers/STM32G4xx_HAL_Driver/Inc/stm32g4xx_ll_system.h ****   * @{
 101:Drivers/STM32G4xx_HAL_Driver/Inc/stm32g4xx_ll_system.h ****   */
 102:Drivers/STM32G4xx_HAL_Driver/Inc/stm32g4xx_ll_system.h **** #define LL_SYSCFG_BANKMODE_BANK1           0x00000000U               /*!< Flash Bank1 mapped at 0x0
 103:Drivers/STM32G4xx_HAL_Driver/Inc/stm32g4xx_ll_system.h ****                                                                       and Flash Bank2 mapped at 0x0
 104:Drivers/STM32G4xx_HAL_Driver/Inc/stm32g4xx_ll_system.h **** #define LL_SYSCFG_BANKMODE_BANK2           SYSCFG_MEMRMP_FB_MODE     /*!< Flash Bank2 mapped at 0x0
 105:Drivers/STM32G4xx_HAL_Driver/Inc/stm32g4xx_ll_system.h ****                                                                       and Flash Bank1 mapped at 0x0
 106:Drivers/STM32G4xx_HAL_Driver/Inc/stm32g4xx_ll_system.h **** /**
 107:Drivers/STM32G4xx_HAL_Driver/Inc/stm32g4xx_ll_system.h ****   * @}
 108:Drivers/STM32G4xx_HAL_Driver/Inc/stm32g4xx_ll_system.h ****   */
 109:Drivers/STM32G4xx_HAL_Driver/Inc/stm32g4xx_ll_system.h **** 
 110:Drivers/STM32G4xx_HAL_Driver/Inc/stm32g4xx_ll_system.h **** #endif /* SYSCFG_MEMRMP_FB_MODE */
 111:Drivers/STM32G4xx_HAL_Driver/Inc/stm32g4xx_ll_system.h **** /** @defgroup SYSTEM_LL_EC_I2C_FASTMODEPLUS SYSCFG I2C FASTMODEPLUS
 112:Drivers/STM32G4xx_HAL_Driver/Inc/stm32g4xx_ll_system.h ****   * @{
 113:Drivers/STM32G4xx_HAL_Driver/Inc/stm32g4xx_ll_system.h ****   */
 114:Drivers/STM32G4xx_HAL_Driver/Inc/stm32g4xx_ll_system.h **** #define LL_SYSCFG_I2C_FASTMODEPLUS_PB6     SYSCFG_CFGR1_I2C_PB6_FMP  /*!< Enable Fast Mode Plus on 
 115:Drivers/STM32G4xx_HAL_Driver/Inc/stm32g4xx_ll_system.h **** #define LL_SYSCFG_I2C_FASTMODEPLUS_PB7     SYSCFG_CFGR1_I2C_PB7_FMP  /*!< Enable Fast Mode Plus on 
 116:Drivers/STM32G4xx_HAL_Driver/Inc/stm32g4xx_ll_system.h **** #if defined(SYSCFG_CFGR1_I2C_PB8_FMP)
 117:Drivers/STM32G4xx_HAL_Driver/Inc/stm32g4xx_ll_system.h **** #define LL_SYSCFG_I2C_FASTMODEPLUS_PB8     SYSCFG_CFGR1_I2C_PB8_FMP  /*!< Enable Fast Mode Plus on 
 118:Drivers/STM32G4xx_HAL_Driver/Inc/stm32g4xx_ll_system.h **** #endif /* SYSCFG_CFGR1_I2C_PB8_FMP */
 119:Drivers/STM32G4xx_HAL_Driver/Inc/stm32g4xx_ll_system.h **** #if defined(SYSCFG_CFGR1_I2C_PB9_FMP)
 120:Drivers/STM32G4xx_HAL_Driver/Inc/stm32g4xx_ll_system.h **** #define LL_SYSCFG_I2C_FASTMODEPLUS_PB9     SYSCFG_CFGR1_I2C_PB9_FMP  /*!< Enable Fast Mode Plus on 
 121:Drivers/STM32G4xx_HAL_Driver/Inc/stm32g4xx_ll_system.h **** #endif /* SYSCFG_CFGR1_I2C_PB9_FMP */
 122:Drivers/STM32G4xx_HAL_Driver/Inc/stm32g4xx_ll_system.h **** #define LL_SYSCFG_I2C_FASTMODEPLUS_I2C1    SYSCFG_CFGR1_I2C1_FMP     /*!< Enable Fast Mode Plus on 
 123:Drivers/STM32G4xx_HAL_Driver/Inc/stm32g4xx_ll_system.h **** #if defined(I2C2)
 124:Drivers/STM32G4xx_HAL_Driver/Inc/stm32g4xx_ll_system.h **** #define LL_SYSCFG_I2C_FASTMODEPLUS_I2C2    SYSCFG_CFGR1_I2C2_FMP     /*!< Enable Fast Mode Plus on 
 125:Drivers/STM32G4xx_HAL_Driver/Inc/stm32g4xx_ll_system.h **** #endif /* I2C2 */
 126:Drivers/STM32G4xx_HAL_Driver/Inc/stm32g4xx_ll_system.h **** #define LL_SYSCFG_I2C_FASTMODEPLUS_I2C3    SYSCFG_CFGR1_I2C3_FMP     /*!< Enable Fast Mode Plus on 
 127:Drivers/STM32G4xx_HAL_Driver/Inc/stm32g4xx_ll_system.h **** #if defined(I2C4)
 128:Drivers/STM32G4xx_HAL_Driver/Inc/stm32g4xx_ll_system.h **** #define LL_SYSCFG_I2C_FASTMODEPLUS_I2C4    SYSCFG_CFGR1_I2C4_FMP     /*!< Enable Fast Mode Plus on 
 129:Drivers/STM32G4xx_HAL_Driver/Inc/stm32g4xx_ll_system.h **** #endif /* I2C4 */
 130:Drivers/STM32G4xx_HAL_Driver/Inc/stm32g4xx_ll_system.h **** /**
 131:Drivers/STM32G4xx_HAL_Driver/Inc/stm32g4xx_ll_system.h ****   * @}
ARM GAS  /tmp/cchxaK2W.s 			page 47


 132:Drivers/STM32G4xx_HAL_Driver/Inc/stm32g4xx_ll_system.h ****   */
 133:Drivers/STM32G4xx_HAL_Driver/Inc/stm32g4xx_ll_system.h **** 
 134:Drivers/STM32G4xx_HAL_Driver/Inc/stm32g4xx_ll_system.h **** /** @defgroup SYSTEM_LL_EC_EXTI_PORT SYSCFG EXTI PORT
 135:Drivers/STM32G4xx_HAL_Driver/Inc/stm32g4xx_ll_system.h ****   * @{
 136:Drivers/STM32G4xx_HAL_Driver/Inc/stm32g4xx_ll_system.h ****   */
 137:Drivers/STM32G4xx_HAL_Driver/Inc/stm32g4xx_ll_system.h **** #define LL_SYSCFG_EXTI_PORTA               0U                        /*!< EXTI PORT A              
 138:Drivers/STM32G4xx_HAL_Driver/Inc/stm32g4xx_ll_system.h **** #define LL_SYSCFG_EXTI_PORTB               1U                        /*!< EXTI PORT B              
 139:Drivers/STM32G4xx_HAL_Driver/Inc/stm32g4xx_ll_system.h **** #define LL_SYSCFG_EXTI_PORTC               2U                        /*!< EXTI PORT C              
 140:Drivers/STM32G4xx_HAL_Driver/Inc/stm32g4xx_ll_system.h **** #define LL_SYSCFG_EXTI_PORTD               3U                        /*!< EXTI PORT D              
 141:Drivers/STM32G4xx_HAL_Driver/Inc/stm32g4xx_ll_system.h **** #define LL_SYSCFG_EXTI_PORTE               4U                        /*!< EXTI PORT E              
 142:Drivers/STM32G4xx_HAL_Driver/Inc/stm32g4xx_ll_system.h **** #define LL_SYSCFG_EXTI_PORTF               5U                        /*!< EXTI PORT F              
 143:Drivers/STM32G4xx_HAL_Driver/Inc/stm32g4xx_ll_system.h **** #define LL_SYSCFG_EXTI_PORTG               6U                        /*!< EXTI PORT G              
 144:Drivers/STM32G4xx_HAL_Driver/Inc/stm32g4xx_ll_system.h **** /**
 145:Drivers/STM32G4xx_HAL_Driver/Inc/stm32g4xx_ll_system.h ****   * @}
 146:Drivers/STM32G4xx_HAL_Driver/Inc/stm32g4xx_ll_system.h ****   */
 147:Drivers/STM32G4xx_HAL_Driver/Inc/stm32g4xx_ll_system.h **** 
 148:Drivers/STM32G4xx_HAL_Driver/Inc/stm32g4xx_ll_system.h **** /** @defgroup SYSTEM_LL_EC_EXTI_LINE SYSCFG EXTI LINE
 149:Drivers/STM32G4xx_HAL_Driver/Inc/stm32g4xx_ll_system.h ****   * @{
 150:Drivers/STM32G4xx_HAL_Driver/Inc/stm32g4xx_ll_system.h ****   */
 151:Drivers/STM32G4xx_HAL_Driver/Inc/stm32g4xx_ll_system.h **** #define LL_SYSCFG_EXTI_LINE0               (uint32_t)((0x000FU << 16U) | 0U)  /* !< EXTI_POSITION_0
 152:Drivers/STM32G4xx_HAL_Driver/Inc/stm32g4xx_ll_system.h **** #define LL_SYSCFG_EXTI_LINE1               (uint32_t)((0x00F0U << 16U) | 0U)  /* !< EXTI_POSITION_4
 153:Drivers/STM32G4xx_HAL_Driver/Inc/stm32g4xx_ll_system.h **** #define LL_SYSCFG_EXTI_LINE2               (uint32_t)((0x0F00U << 16U) | 0U)  /* !< EXTI_POSITION_8
 154:Drivers/STM32G4xx_HAL_Driver/Inc/stm32g4xx_ll_system.h **** #define LL_SYSCFG_EXTI_LINE3               (uint32_t)((0xF000U << 16U) | 0U)  /* !< EXTI_POSITION_1
 155:Drivers/STM32G4xx_HAL_Driver/Inc/stm32g4xx_ll_system.h **** #define LL_SYSCFG_EXTI_LINE4               (uint32_t)((0x000FU << 16U) | 1U)  /* !< EXTI_POSITION_0
 156:Drivers/STM32G4xx_HAL_Driver/Inc/stm32g4xx_ll_system.h **** #define LL_SYSCFG_EXTI_LINE5               (uint32_t)((0x00F0U << 16U) | 1U)  /* !< EXTI_POSITION_4
 157:Drivers/STM32G4xx_HAL_Driver/Inc/stm32g4xx_ll_system.h **** #define LL_SYSCFG_EXTI_LINE6               (uint32_t)((0x0F00U << 16U) | 1U)  /* !< EXTI_POSITION_8
 158:Drivers/STM32G4xx_HAL_Driver/Inc/stm32g4xx_ll_system.h **** #define LL_SYSCFG_EXTI_LINE7               (uint32_t)((0xF000U << 16U) | 1U)  /* !< EXTI_POSITION_1
 159:Drivers/STM32G4xx_HAL_Driver/Inc/stm32g4xx_ll_system.h **** #define LL_SYSCFG_EXTI_LINE8               (uint32_t)((0x000FU << 16U) | 2U)  /* !< EXTI_POSITION_0
 160:Drivers/STM32G4xx_HAL_Driver/Inc/stm32g4xx_ll_system.h **** #define LL_SYSCFG_EXTI_LINE9               (uint32_t)((0x00F0U << 16U) | 2U)  /* !< EXTI_POSITION_4
 161:Drivers/STM32G4xx_HAL_Driver/Inc/stm32g4xx_ll_system.h **** #define LL_SYSCFG_EXTI_LINE10              (uint32_t)((0x0F00U << 16U) | 2U)  /* !< EXTI_POSITION_8
 162:Drivers/STM32G4xx_HAL_Driver/Inc/stm32g4xx_ll_system.h **** #define LL_SYSCFG_EXTI_LINE11              (uint32_t)((0xF000U << 16U) | 2U)  /* !< EXTI_POSITION_1
 163:Drivers/STM32G4xx_HAL_Driver/Inc/stm32g4xx_ll_system.h **** #define LL_SYSCFG_EXTI_LINE12              (uint32_t)((0x000FU << 16U) | 3U)  /* !< EXTI_POSITION_0
 164:Drivers/STM32G4xx_HAL_Driver/Inc/stm32g4xx_ll_system.h **** #define LL_SYSCFG_EXTI_LINE13              (uint32_t)((0x00F0U << 16U) | 3U)  /* !< EXTI_POSITION_4
 165:Drivers/STM32G4xx_HAL_Driver/Inc/stm32g4xx_ll_system.h **** #define LL_SYSCFG_EXTI_LINE14              (uint32_t)((0x0F00U << 16U) | 3U)  /* !< EXTI_POSITION_8
 166:Drivers/STM32G4xx_HAL_Driver/Inc/stm32g4xx_ll_system.h **** #define LL_SYSCFG_EXTI_LINE15              (uint32_t)((0xF000U << 16U) | 3U)  /* !< EXTI_POSITION_1
 167:Drivers/STM32G4xx_HAL_Driver/Inc/stm32g4xx_ll_system.h **** /**
 168:Drivers/STM32G4xx_HAL_Driver/Inc/stm32g4xx_ll_system.h ****   * @}
 169:Drivers/STM32G4xx_HAL_Driver/Inc/stm32g4xx_ll_system.h ****   */
 170:Drivers/STM32G4xx_HAL_Driver/Inc/stm32g4xx_ll_system.h **** 
 171:Drivers/STM32G4xx_HAL_Driver/Inc/stm32g4xx_ll_system.h **** /** @defgroup SYSTEM_LL_EC_TIMBREAK SYSCFG TIMER BREAK
 172:Drivers/STM32G4xx_HAL_Driver/Inc/stm32g4xx_ll_system.h ****   * @{
 173:Drivers/STM32G4xx_HAL_Driver/Inc/stm32g4xx_ll_system.h ****   */
 174:Drivers/STM32G4xx_HAL_Driver/Inc/stm32g4xx_ll_system.h **** #define LL_SYSCFG_TIMBREAK_ECC             SYSCFG_CFGR2_ECCL  /*!< Enables and locks the ECC error 
 175:Drivers/STM32G4xx_HAL_Driver/Inc/stm32g4xx_ll_system.h ****                                                                    with Break Input of TIM1/8/15/16
 176:Drivers/STM32G4xx_HAL_Driver/Inc/stm32g4xx_ll_system.h **** #define LL_SYSCFG_TIMBREAK_PVD             SYSCFG_CFGR2_PVDL  /*!< Enables and locks the PVD connec
 177:Drivers/STM32G4xx_HAL_Driver/Inc/stm32g4xx_ll_system.h ****                                                                    with TIM1/8/15/16/17 Break Input
 178:Drivers/STM32G4xx_HAL_Driver/Inc/stm32g4xx_ll_system.h ****                                                                    and also the PVDE and PLS bits o
 179:Drivers/STM32G4xx_HAL_Driver/Inc/stm32g4xx_ll_system.h **** #define LL_SYSCFG_TIMBREAK_SRAM_PARITY     SYSCFG_CFGR2_SPL   /*!< Enables and locks the SRAM_PARIT
 180:Drivers/STM32G4xx_HAL_Driver/Inc/stm32g4xx_ll_system.h ****                                                                    with Break Input of TIM1/8/15/16
 181:Drivers/STM32G4xx_HAL_Driver/Inc/stm32g4xx_ll_system.h **** #define LL_SYSCFG_TIMBREAK_LOCKUP          SYSCFG_CFGR2_CLL   /*!< Enables and locks the LOCKUP out
 182:Drivers/STM32G4xx_HAL_Driver/Inc/stm32g4xx_ll_system.h ****                                                                    with Break Input of TIM1/15/16/1
 183:Drivers/STM32G4xx_HAL_Driver/Inc/stm32g4xx_ll_system.h **** /**
 184:Drivers/STM32G4xx_HAL_Driver/Inc/stm32g4xx_ll_system.h ****   * @}
 185:Drivers/STM32G4xx_HAL_Driver/Inc/stm32g4xx_ll_system.h ****   */
 186:Drivers/STM32G4xx_HAL_Driver/Inc/stm32g4xx_ll_system.h **** 
 187:Drivers/STM32G4xx_HAL_Driver/Inc/stm32g4xx_ll_system.h **** /** @defgroup SYSTEM_LL_EC_CCMSRAMWRP SYSCFG CCMSRAM WRP
 188:Drivers/STM32G4xx_HAL_Driver/Inc/stm32g4xx_ll_system.h ****   * @{
ARM GAS  /tmp/cchxaK2W.s 			page 48


 189:Drivers/STM32G4xx_HAL_Driver/Inc/stm32g4xx_ll_system.h ****   */
 190:Drivers/STM32G4xx_HAL_Driver/Inc/stm32g4xx_ll_system.h **** #define LL_SYSCFG_CCMSRAMWRP_PAGE0         SYSCFG_SWPR_PAGE0  /*!< CCMSRAM Write protection page 0 
 191:Drivers/STM32G4xx_HAL_Driver/Inc/stm32g4xx_ll_system.h **** #define LL_SYSCFG_CCMSRAMWRP_PAGE1         SYSCFG_SWPR_PAGE1  /*!< CCMSRAM Write protection page 1 
 192:Drivers/STM32G4xx_HAL_Driver/Inc/stm32g4xx_ll_system.h **** #define LL_SYSCFG_CCMSRAMWRP_PAGE2         SYSCFG_SWPR_PAGE2  /*!< CCMSRAM Write protection page 2 
 193:Drivers/STM32G4xx_HAL_Driver/Inc/stm32g4xx_ll_system.h **** #define LL_SYSCFG_CCMSRAMWRP_PAGE3         SYSCFG_SWPR_PAGE3  /*!< CCMSRAM Write protection page 3 
 194:Drivers/STM32G4xx_HAL_Driver/Inc/stm32g4xx_ll_system.h **** #define LL_SYSCFG_CCMSRAMWRP_PAGE4         SYSCFG_SWPR_PAGE4  /*!< CCMSRAM Write protection page 4 
 195:Drivers/STM32G4xx_HAL_Driver/Inc/stm32g4xx_ll_system.h **** #define LL_SYSCFG_CCMSRAMWRP_PAGE5         SYSCFG_SWPR_PAGE5  /*!< CCMSRAM Write protection page 5 
 196:Drivers/STM32G4xx_HAL_Driver/Inc/stm32g4xx_ll_system.h **** #define LL_SYSCFG_CCMSRAMWRP_PAGE6         SYSCFG_SWPR_PAGE6  /*!< CCMSRAM Write protection page 6 
 197:Drivers/STM32G4xx_HAL_Driver/Inc/stm32g4xx_ll_system.h **** #define LL_SYSCFG_CCMSRAMWRP_PAGE7         SYSCFG_SWPR_PAGE7  /*!< CCMSRAM Write protection page 7 
 198:Drivers/STM32G4xx_HAL_Driver/Inc/stm32g4xx_ll_system.h **** #define LL_SYSCFG_CCMSRAMWRP_PAGE8         SYSCFG_SWPR_PAGE8  /*!< CCMSRAM Write protection page 8 
 199:Drivers/STM32G4xx_HAL_Driver/Inc/stm32g4xx_ll_system.h **** #define LL_SYSCFG_CCMSRAMWRP_PAGE9         SYSCFG_SWPR_PAGE9  /*!< CCMSRAM Write protection page 9 
 200:Drivers/STM32G4xx_HAL_Driver/Inc/stm32g4xx_ll_system.h **** #if defined(SYSCFG_SWPR_PAGE10)
 201:Drivers/STM32G4xx_HAL_Driver/Inc/stm32g4xx_ll_system.h **** #define LL_SYSCFG_CCMSRAMWRP_PAGE10        SYSCFG_SWPR_PAGE10 /*!< CCMSRAM Write protection page 10
 202:Drivers/STM32G4xx_HAL_Driver/Inc/stm32g4xx_ll_system.h **** #define LL_SYSCFG_CCMSRAMWRP_PAGE11        SYSCFG_SWPR_PAGE11 /*!< CCMSRAM Write protection page 11
 203:Drivers/STM32G4xx_HAL_Driver/Inc/stm32g4xx_ll_system.h **** #define LL_SYSCFG_CCMSRAMWRP_PAGE12        SYSCFG_SWPR_PAGE12 /*!< CCMSRAM Write protection page 12
 204:Drivers/STM32G4xx_HAL_Driver/Inc/stm32g4xx_ll_system.h **** #define LL_SYSCFG_CCMSRAMWRP_PAGE13        SYSCFG_SWPR_PAGE13 /*!< CCMSRAM Write protection page 13
 205:Drivers/STM32G4xx_HAL_Driver/Inc/stm32g4xx_ll_system.h **** #define LL_SYSCFG_CCMSRAMWRP_PAGE14        SYSCFG_SWPR_PAGE14 /*!< CCMSRAM Write protection page 14
 206:Drivers/STM32G4xx_HAL_Driver/Inc/stm32g4xx_ll_system.h **** #define LL_SYSCFG_CCMSRAMWRP_PAGE15        SYSCFG_SWPR_PAGE15 /*!< CCMSRAM Write protection page 15
 207:Drivers/STM32G4xx_HAL_Driver/Inc/stm32g4xx_ll_system.h **** #define LL_SYSCFG_CCMSRAMWRP_PAGE16        SYSCFG_SWPR_PAGE16 /*!< CCMSRAM Write protection page 16
 208:Drivers/STM32G4xx_HAL_Driver/Inc/stm32g4xx_ll_system.h **** #define LL_SYSCFG_CCMSRAMWRP_PAGE17        SYSCFG_SWPR_PAGE17 /*!< CCMSRAM Write protection page 17
 209:Drivers/STM32G4xx_HAL_Driver/Inc/stm32g4xx_ll_system.h **** #define LL_SYSCFG_CCMSRAMWRP_PAGE18        SYSCFG_SWPR_PAGE18 /*!< CCMSRAM Write protection page 18
 210:Drivers/STM32G4xx_HAL_Driver/Inc/stm32g4xx_ll_system.h **** #define LL_SYSCFG_CCMSRAMWRP_PAGE19        SYSCFG_SWPR_PAGE19 /*!< CCMSRAM Write protection page 19
 211:Drivers/STM32G4xx_HAL_Driver/Inc/stm32g4xx_ll_system.h **** #define LL_SYSCFG_CCMSRAMWRP_PAGE20        SYSCFG_SWPR_PAGE20 /*!< CCMSRAM Write protection page 20
 212:Drivers/STM32G4xx_HAL_Driver/Inc/stm32g4xx_ll_system.h **** #define LL_SYSCFG_CCMSRAMWRP_PAGE21        SYSCFG_SWPR_PAGE21 /*!< CCMSRAM Write protection page 21
 213:Drivers/STM32G4xx_HAL_Driver/Inc/stm32g4xx_ll_system.h **** #define LL_SYSCFG_CCMSRAMWRP_PAGE22        SYSCFG_SWPR_PAGE22 /*!< CCMSRAM Write protection page 22
 214:Drivers/STM32G4xx_HAL_Driver/Inc/stm32g4xx_ll_system.h **** #define LL_SYSCFG_CCMSRAMWRP_PAGE23        SYSCFG_SWPR_PAGE23 /*!< CCMSRAM Write protection page 23
 215:Drivers/STM32G4xx_HAL_Driver/Inc/stm32g4xx_ll_system.h **** #define LL_SYSCFG_CCMSRAMWRP_PAGE24        SYSCFG_SWPR_PAGE24 /*!< CCMSRAM Write protection page 24
 216:Drivers/STM32G4xx_HAL_Driver/Inc/stm32g4xx_ll_system.h **** #define LL_SYSCFG_CCMSRAMWRP_PAGE25        SYSCFG_SWPR_PAGE25 /*!< CCMSRAM Write protection page 25
 217:Drivers/STM32G4xx_HAL_Driver/Inc/stm32g4xx_ll_system.h **** #define LL_SYSCFG_CCMSRAMWRP_PAGE26        SYSCFG_SWPR_PAGE26 /*!< CCMSRAM Write protection page 26
 218:Drivers/STM32G4xx_HAL_Driver/Inc/stm32g4xx_ll_system.h **** #define LL_SYSCFG_CCMSRAMWRP_PAGE27        SYSCFG_SWPR_PAGE27 /*!< CCMSRAM Write protection page 27
 219:Drivers/STM32G4xx_HAL_Driver/Inc/stm32g4xx_ll_system.h **** #define LL_SYSCFG_CCMSRAMWRP_PAGE28        SYSCFG_SWPR_PAGE28 /*!< CCMSRAM Write protection page 28
 220:Drivers/STM32G4xx_HAL_Driver/Inc/stm32g4xx_ll_system.h **** #define LL_SYSCFG_CCMSRAMWRP_PAGE29        SYSCFG_SWPR_PAGE29 /*!< CCMSRAM Write protection page 29
 221:Drivers/STM32G4xx_HAL_Driver/Inc/stm32g4xx_ll_system.h **** #define LL_SYSCFG_CCMSRAMWRP_PAGE30        SYSCFG_SWPR_PAGE30 /*!< CCMSRAM Write protection page 30
 222:Drivers/STM32G4xx_HAL_Driver/Inc/stm32g4xx_ll_system.h **** #define LL_SYSCFG_CCMSRAMWRP_PAGE31        SYSCFG_SWPR_PAGE31 /*!< CCMSRAM Write protection page 31
 223:Drivers/STM32G4xx_HAL_Driver/Inc/stm32g4xx_ll_system.h **** #endif /* SYSCFG_SWPR_PAGE10 */
 224:Drivers/STM32G4xx_HAL_Driver/Inc/stm32g4xx_ll_system.h **** /**
 225:Drivers/STM32G4xx_HAL_Driver/Inc/stm32g4xx_ll_system.h ****   * @}
 226:Drivers/STM32G4xx_HAL_Driver/Inc/stm32g4xx_ll_system.h ****   */
 227:Drivers/STM32G4xx_HAL_Driver/Inc/stm32g4xx_ll_system.h **** 
 228:Drivers/STM32G4xx_HAL_Driver/Inc/stm32g4xx_ll_system.h **** /** @defgroup SYSTEM_LL_EC_TRACE DBGMCU TRACE Pin Assignment
 229:Drivers/STM32G4xx_HAL_Driver/Inc/stm32g4xx_ll_system.h ****   * @{
 230:Drivers/STM32G4xx_HAL_Driver/Inc/stm32g4xx_ll_system.h ****   */
 231:Drivers/STM32G4xx_HAL_Driver/Inc/stm32g4xx_ll_system.h **** #define LL_DBGMCU_TRACE_NONE               0x00000000U                                     /*!< TRA
 232:Drivers/STM32G4xx_HAL_Driver/Inc/stm32g4xx_ll_system.h **** #define LL_DBGMCU_TRACE_ASYNCH             DBGMCU_CR_TRACE_IOEN                            /*!< TRA
 233:Drivers/STM32G4xx_HAL_Driver/Inc/stm32g4xx_ll_system.h **** #define LL_DBGMCU_TRACE_SYNCH_SIZE1        (DBGMCU_CR_TRACE_IOEN | DBGMCU_CR_TRACE_MODE_0) /*!< TRA
 234:Drivers/STM32G4xx_HAL_Driver/Inc/stm32g4xx_ll_system.h **** #define LL_DBGMCU_TRACE_SYNCH_SIZE2        (DBGMCU_CR_TRACE_IOEN | DBGMCU_CR_TRACE_MODE_1) /*!< TRA
 235:Drivers/STM32G4xx_HAL_Driver/Inc/stm32g4xx_ll_system.h **** #define LL_DBGMCU_TRACE_SYNCH_SIZE4        (DBGMCU_CR_TRACE_IOEN | DBGMCU_CR_TRACE_MODE)   /*!< TRA
 236:Drivers/STM32G4xx_HAL_Driver/Inc/stm32g4xx_ll_system.h **** /**
 237:Drivers/STM32G4xx_HAL_Driver/Inc/stm32g4xx_ll_system.h ****   * @}
 238:Drivers/STM32G4xx_HAL_Driver/Inc/stm32g4xx_ll_system.h ****   */
 239:Drivers/STM32G4xx_HAL_Driver/Inc/stm32g4xx_ll_system.h **** 
 240:Drivers/STM32G4xx_HAL_Driver/Inc/stm32g4xx_ll_system.h **** /** @defgroup SYSTEM_LL_EC_APB1_GRP1_STOP_IP DBGMCU APB1 GRP1 STOP IP
 241:Drivers/STM32G4xx_HAL_Driver/Inc/stm32g4xx_ll_system.h ****   * @{
 242:Drivers/STM32G4xx_HAL_Driver/Inc/stm32g4xx_ll_system.h ****   */
 243:Drivers/STM32G4xx_HAL_Driver/Inc/stm32g4xx_ll_system.h **** #define LL_DBGMCU_APB1_GRP1_TIM2_STOP      DBGMCU_APB1FZR1_DBG_TIM2_STOP   /*!< The counter clock o
 244:Drivers/STM32G4xx_HAL_Driver/Inc/stm32g4xx_ll_system.h **** #if defined(TIM3)
 245:Drivers/STM32G4xx_HAL_Driver/Inc/stm32g4xx_ll_system.h **** #define LL_DBGMCU_APB1_GRP1_TIM3_STOP      DBGMCU_APB1FZR1_DBG_TIM3_STOP   /*!< The counter clock o
ARM GAS  /tmp/cchxaK2W.s 			page 49


 246:Drivers/STM32G4xx_HAL_Driver/Inc/stm32g4xx_ll_system.h **** #endif /* TIM3 */
 247:Drivers/STM32G4xx_HAL_Driver/Inc/stm32g4xx_ll_system.h **** #if defined(TIM4)
 248:Drivers/STM32G4xx_HAL_Driver/Inc/stm32g4xx_ll_system.h **** #define LL_DBGMCU_APB1_GRP1_TIM4_STOP      DBGMCU_APB1FZR1_DBG_TIM4_STOP   /*!< The counter clock o
 249:Drivers/STM32G4xx_HAL_Driver/Inc/stm32g4xx_ll_system.h **** #endif /* TIM4 */
 250:Drivers/STM32G4xx_HAL_Driver/Inc/stm32g4xx_ll_system.h **** #if defined(TIM5)
 251:Drivers/STM32G4xx_HAL_Driver/Inc/stm32g4xx_ll_system.h **** #define LL_DBGMCU_APB1_GRP1_TIM5_STOP      DBGMCU_APB1FZR1_DBG_TIM5_STOP   /*!< The counter clock o
 252:Drivers/STM32G4xx_HAL_Driver/Inc/stm32g4xx_ll_system.h **** #endif /* TIM5 */
 253:Drivers/STM32G4xx_HAL_Driver/Inc/stm32g4xx_ll_system.h **** #define LL_DBGMCU_APB1_GRP1_TIM6_STOP      DBGMCU_APB1FZR1_DBG_TIM6_STOP   /*!< The counter clock o
 254:Drivers/STM32G4xx_HAL_Driver/Inc/stm32g4xx_ll_system.h **** #if defined(TIM7)
 255:Drivers/STM32G4xx_HAL_Driver/Inc/stm32g4xx_ll_system.h **** #define LL_DBGMCU_APB1_GRP1_TIM7_STOP      DBGMCU_APB1FZR1_DBG_TIM7_STOP   /*!< The counter clock o
 256:Drivers/STM32G4xx_HAL_Driver/Inc/stm32g4xx_ll_system.h **** #endif /* TIM7 */
 257:Drivers/STM32G4xx_HAL_Driver/Inc/stm32g4xx_ll_system.h **** #define LL_DBGMCU_APB1_GRP1_RTC_STOP       DBGMCU_APB1FZR1_DBG_RTC_STOP    /*!< The clock of the RT
 258:Drivers/STM32G4xx_HAL_Driver/Inc/stm32g4xx_ll_system.h **** #define LL_DBGMCU_APB1_GRP1_WWDG_STOP      DBGMCU_APB1FZR1_DBG_WWDG_STOP   /*!< The window watchdog
 259:Drivers/STM32G4xx_HAL_Driver/Inc/stm32g4xx_ll_system.h **** #define LL_DBGMCU_APB1_GRP1_IWDG_STOP      DBGMCU_APB1FZR1_DBG_IWDG_STOP   /*!< The independent wat
 260:Drivers/STM32G4xx_HAL_Driver/Inc/stm32g4xx_ll_system.h **** #define LL_DBGMCU_APB1_GRP1_I2C1_STOP      DBGMCU_APB1FZR1_DBG_I2C1_STOP   /*!< The I2C1 SMBus time
 261:Drivers/STM32G4xx_HAL_Driver/Inc/stm32g4xx_ll_system.h **** #if defined(I2C2)
 262:Drivers/STM32G4xx_HAL_Driver/Inc/stm32g4xx_ll_system.h **** #define LL_DBGMCU_APB1_GRP1_I2C2_STOP      DBGMCU_APB1FZR1_DBG_I2C2_STOP   /*!< The I2C2 SMBus time
 263:Drivers/STM32G4xx_HAL_Driver/Inc/stm32g4xx_ll_system.h **** #endif /* I2C2 */
 264:Drivers/STM32G4xx_HAL_Driver/Inc/stm32g4xx_ll_system.h **** #define LL_DBGMCU_APB1_GRP1_I2C3_STOP      DBGMCU_APB1FZR1_DBG_I2C3_STOP   /*!< The I2C3 SMBus time
 265:Drivers/STM32G4xx_HAL_Driver/Inc/stm32g4xx_ll_system.h **** #define LL_DBGMCU_APB1_GRP1_LPTIM1_STOP    DBGMCU_APB1FZR1_DBG_LPTIM1_STOP /*!< The counter clock o
 266:Drivers/STM32G4xx_HAL_Driver/Inc/stm32g4xx_ll_system.h **** /**
 267:Drivers/STM32G4xx_HAL_Driver/Inc/stm32g4xx_ll_system.h ****   * @}
 268:Drivers/STM32G4xx_HAL_Driver/Inc/stm32g4xx_ll_system.h ****   */
 269:Drivers/STM32G4xx_HAL_Driver/Inc/stm32g4xx_ll_system.h **** 
 270:Drivers/STM32G4xx_HAL_Driver/Inc/stm32g4xx_ll_system.h **** /** @defgroup SYSTEM_LL_EC_APB1_GRP2_STOP_IP DBGMCU APB1 GRP2 STOP IP
 271:Drivers/STM32G4xx_HAL_Driver/Inc/stm32g4xx_ll_system.h ****   * @{
 272:Drivers/STM32G4xx_HAL_Driver/Inc/stm32g4xx_ll_system.h ****   */
 273:Drivers/STM32G4xx_HAL_Driver/Inc/stm32g4xx_ll_system.h **** #if defined(I2C4)
 274:Drivers/STM32G4xx_HAL_Driver/Inc/stm32g4xx_ll_system.h **** #define LL_DBGMCU_APB1_GRP2_I2C4_STOP      DBGMCU_APB1FZR2_DBG_I2C4_STOP   /*!< The I2C4 SMBus time
 275:Drivers/STM32G4xx_HAL_Driver/Inc/stm32g4xx_ll_system.h **** #endif /* I2C4 */
 276:Drivers/STM32G4xx_HAL_Driver/Inc/stm32g4xx_ll_system.h **** /**
 277:Drivers/STM32G4xx_HAL_Driver/Inc/stm32g4xx_ll_system.h ****   * @}
 278:Drivers/STM32G4xx_HAL_Driver/Inc/stm32g4xx_ll_system.h ****   */
 279:Drivers/STM32G4xx_HAL_Driver/Inc/stm32g4xx_ll_system.h **** 
 280:Drivers/STM32G4xx_HAL_Driver/Inc/stm32g4xx_ll_system.h **** /** @defgroup SYSTEM_LL_EC_APB2_GRP1_STOP_IP DBGMCU APB2 GRP1 STOP IP
 281:Drivers/STM32G4xx_HAL_Driver/Inc/stm32g4xx_ll_system.h ****   * @{
 282:Drivers/STM32G4xx_HAL_Driver/Inc/stm32g4xx_ll_system.h ****   */
 283:Drivers/STM32G4xx_HAL_Driver/Inc/stm32g4xx_ll_system.h **** #define LL_DBGMCU_APB2_GRP1_TIM1_STOP      DBGMCU_APB2FZ_DBG_TIM1_STOP     /*!< The counter clock o
 284:Drivers/STM32G4xx_HAL_Driver/Inc/stm32g4xx_ll_system.h **** #if defined(TIM8)
 285:Drivers/STM32G4xx_HAL_Driver/Inc/stm32g4xx_ll_system.h **** #define LL_DBGMCU_APB2_GRP1_TIM8_STOP      DBGMCU_APB2FZ_DBG_TIM8_STOP     /*!< The counter clock o
 286:Drivers/STM32G4xx_HAL_Driver/Inc/stm32g4xx_ll_system.h **** #endif /* TIM8 */
 287:Drivers/STM32G4xx_HAL_Driver/Inc/stm32g4xx_ll_system.h **** #define LL_DBGMCU_APB2_GRP1_TIM15_STOP     DBGMCU_APB2FZ_DBG_TIM15_STOP    /*!< The counter clock o
 288:Drivers/STM32G4xx_HAL_Driver/Inc/stm32g4xx_ll_system.h **** #define LL_DBGMCU_APB2_GRP1_TIM16_STOP     DBGMCU_APB2FZ_DBG_TIM16_STOP    /*!< The counter clock o
 289:Drivers/STM32G4xx_HAL_Driver/Inc/stm32g4xx_ll_system.h **** #if defined(TIM17)
 290:Drivers/STM32G4xx_HAL_Driver/Inc/stm32g4xx_ll_system.h **** #define LL_DBGMCU_APB2_GRP1_TIM17_STOP     DBGMCU_APB2FZ_DBG_TIM17_STOP    /*!< The counter clock o
 291:Drivers/STM32G4xx_HAL_Driver/Inc/stm32g4xx_ll_system.h **** #endif /* TIM17 */
 292:Drivers/STM32G4xx_HAL_Driver/Inc/stm32g4xx_ll_system.h **** #if defined(TIM20)
 293:Drivers/STM32G4xx_HAL_Driver/Inc/stm32g4xx_ll_system.h **** #define LL_DBGMCU_APB2_GRP1_TIM20_STOP     DBGMCU_APB2FZ_DBG_TIM20_STOP    /*!< The counter clock o
 294:Drivers/STM32G4xx_HAL_Driver/Inc/stm32g4xx_ll_system.h **** #endif /* TIM20 */
 295:Drivers/STM32G4xx_HAL_Driver/Inc/stm32g4xx_ll_system.h **** #if defined(HRTIM1)
 296:Drivers/STM32G4xx_HAL_Driver/Inc/stm32g4xx_ll_system.h **** #define LL_DBGMCU_APB2_GRP1_HRTIM1_STOP     DBGMCU_APB2FZ_DBG_HRTIM1_STOP    /*!< The counter clock
 297:Drivers/STM32G4xx_HAL_Driver/Inc/stm32g4xx_ll_system.h **** #endif /* HRTIM1 */
 298:Drivers/STM32G4xx_HAL_Driver/Inc/stm32g4xx_ll_system.h **** /**
 299:Drivers/STM32G4xx_HAL_Driver/Inc/stm32g4xx_ll_system.h ****   * @}
 300:Drivers/STM32G4xx_HAL_Driver/Inc/stm32g4xx_ll_system.h ****   */
 301:Drivers/STM32G4xx_HAL_Driver/Inc/stm32g4xx_ll_system.h **** 
 302:Drivers/STM32G4xx_HAL_Driver/Inc/stm32g4xx_ll_system.h **** #if defined(VREFBUF)
ARM GAS  /tmp/cchxaK2W.s 			page 50


 303:Drivers/STM32G4xx_HAL_Driver/Inc/stm32g4xx_ll_system.h **** /** @defgroup SYSTEM_LL_EC_VOLTAGE VREFBUF VOLTAGE
 304:Drivers/STM32G4xx_HAL_Driver/Inc/stm32g4xx_ll_system.h ****   * @{
 305:Drivers/STM32G4xx_HAL_Driver/Inc/stm32g4xx_ll_system.h ****   */
 306:Drivers/STM32G4xx_HAL_Driver/Inc/stm32g4xx_ll_system.h **** #define LL_VREFBUF_VOLTAGE_SCALE0          ((uint32_t)0x00000000) /*!< Voltage reference scale 0 (V
 307:Drivers/STM32G4xx_HAL_Driver/Inc/stm32g4xx_ll_system.h **** #define LL_VREFBUF_VOLTAGE_SCALE1          VREFBUF_CSR_VRS_0      /*!< Voltage reference scale 1 (V
 308:Drivers/STM32G4xx_HAL_Driver/Inc/stm32g4xx_ll_system.h **** #define LL_VREFBUF_VOLTAGE_SCALE2          VREFBUF_CSR_VRS_1      /*!< Voltage reference scale 2 (V
 309:Drivers/STM32G4xx_HAL_Driver/Inc/stm32g4xx_ll_system.h **** /**
 310:Drivers/STM32G4xx_HAL_Driver/Inc/stm32g4xx_ll_system.h ****   * @}
 311:Drivers/STM32G4xx_HAL_Driver/Inc/stm32g4xx_ll_system.h ****   */
 312:Drivers/STM32G4xx_HAL_Driver/Inc/stm32g4xx_ll_system.h **** #endif /* VREFBUF */
 313:Drivers/STM32G4xx_HAL_Driver/Inc/stm32g4xx_ll_system.h **** 
 314:Drivers/STM32G4xx_HAL_Driver/Inc/stm32g4xx_ll_system.h **** /** @defgroup SYSTEM_LL_EC_LATENCY FLASH LATENCY
 315:Drivers/STM32G4xx_HAL_Driver/Inc/stm32g4xx_ll_system.h ****   * @{
 316:Drivers/STM32G4xx_HAL_Driver/Inc/stm32g4xx_ll_system.h ****   */
 317:Drivers/STM32G4xx_HAL_Driver/Inc/stm32g4xx_ll_system.h **** #define LL_FLASH_LATENCY_0                 FLASH_ACR_LATENCY_0WS   /*!< FLASH Zero wait state */
 318:Drivers/STM32G4xx_HAL_Driver/Inc/stm32g4xx_ll_system.h **** #define LL_FLASH_LATENCY_1                 FLASH_ACR_LATENCY_1WS   /*!< FLASH One wait state */
 319:Drivers/STM32G4xx_HAL_Driver/Inc/stm32g4xx_ll_system.h **** #define LL_FLASH_LATENCY_2                 FLASH_ACR_LATENCY_2WS   /*!< FLASH Two wait states */
 320:Drivers/STM32G4xx_HAL_Driver/Inc/stm32g4xx_ll_system.h **** #define LL_FLASH_LATENCY_3                 FLASH_ACR_LATENCY_3WS   /*!< FLASH Three wait states */
 321:Drivers/STM32G4xx_HAL_Driver/Inc/stm32g4xx_ll_system.h **** #define LL_FLASH_LATENCY_4                 FLASH_ACR_LATENCY_4WS   /*!< FLASH Four wait states */
 322:Drivers/STM32G4xx_HAL_Driver/Inc/stm32g4xx_ll_system.h **** #if defined(FLASH_ACR_LATENCY_5WS)
 323:Drivers/STM32G4xx_HAL_Driver/Inc/stm32g4xx_ll_system.h **** #define LL_FLASH_LATENCY_5                 FLASH_ACR_LATENCY_5WS   /*!< FLASH five wait state */
 324:Drivers/STM32G4xx_HAL_Driver/Inc/stm32g4xx_ll_system.h **** #define LL_FLASH_LATENCY_6                 FLASH_ACR_LATENCY_6WS   /*!< FLASH six wait state */
 325:Drivers/STM32G4xx_HAL_Driver/Inc/stm32g4xx_ll_system.h **** #define LL_FLASH_LATENCY_7                 FLASH_ACR_LATENCY_7WS   /*!< FLASH seven wait states */
 326:Drivers/STM32G4xx_HAL_Driver/Inc/stm32g4xx_ll_system.h **** #define LL_FLASH_LATENCY_8                 FLASH_ACR_LATENCY_8WS   /*!< FLASH eight wait states */
 327:Drivers/STM32G4xx_HAL_Driver/Inc/stm32g4xx_ll_system.h **** #define LL_FLASH_LATENCY_9                 FLASH_ACR_LATENCY_9WS   /*!< FLASH nine wait states */
 328:Drivers/STM32G4xx_HAL_Driver/Inc/stm32g4xx_ll_system.h **** #define LL_FLASH_LATENCY_10                FLASH_ACR_LATENCY_10WS  /*!< FLASH ten wait states */
 329:Drivers/STM32G4xx_HAL_Driver/Inc/stm32g4xx_ll_system.h **** #define LL_FLASH_LATENCY_11                FLASH_ACR_LATENCY_11WS  /*!< FLASH eleven wait states */
 330:Drivers/STM32G4xx_HAL_Driver/Inc/stm32g4xx_ll_system.h **** #define LL_FLASH_LATENCY_12                FLASH_ACR_LATENCY_12WS  /*!< FLASH twelve wait states */
 331:Drivers/STM32G4xx_HAL_Driver/Inc/stm32g4xx_ll_system.h **** #define LL_FLASH_LATENCY_13                FLASH_ACR_LATENCY_13WS  /*!< FLASH thirteen wait states 
 332:Drivers/STM32G4xx_HAL_Driver/Inc/stm32g4xx_ll_system.h **** #define LL_FLASH_LATENCY_14                FLASH_ACR_LATENCY_14WS  /*!< FLASH fourteen wait states 
 333:Drivers/STM32G4xx_HAL_Driver/Inc/stm32g4xx_ll_system.h **** #define LL_FLASH_LATENCY_15                FLASH_ACR_LATENCY_15WS  /*!< FLASH fifteen wait states *
 334:Drivers/STM32G4xx_HAL_Driver/Inc/stm32g4xx_ll_system.h **** #endif /* FLASH_ACR_LATENCY_5WS */
 335:Drivers/STM32G4xx_HAL_Driver/Inc/stm32g4xx_ll_system.h **** /**
 336:Drivers/STM32G4xx_HAL_Driver/Inc/stm32g4xx_ll_system.h ****   * @}
 337:Drivers/STM32G4xx_HAL_Driver/Inc/stm32g4xx_ll_system.h ****   */
 338:Drivers/STM32G4xx_HAL_Driver/Inc/stm32g4xx_ll_system.h **** 
 339:Drivers/STM32G4xx_HAL_Driver/Inc/stm32g4xx_ll_system.h **** /**
 340:Drivers/STM32G4xx_HAL_Driver/Inc/stm32g4xx_ll_system.h ****   * @}
 341:Drivers/STM32G4xx_HAL_Driver/Inc/stm32g4xx_ll_system.h ****   */
 342:Drivers/STM32G4xx_HAL_Driver/Inc/stm32g4xx_ll_system.h **** 
 343:Drivers/STM32G4xx_HAL_Driver/Inc/stm32g4xx_ll_system.h **** /* Exported macro ------------------------------------------------------------*/
 344:Drivers/STM32G4xx_HAL_Driver/Inc/stm32g4xx_ll_system.h **** 
 345:Drivers/STM32G4xx_HAL_Driver/Inc/stm32g4xx_ll_system.h **** /* Exported functions --------------------------------------------------------*/
 346:Drivers/STM32G4xx_HAL_Driver/Inc/stm32g4xx_ll_system.h **** /** @defgroup SYSTEM_LL_Exported_Functions SYSTEM Exported Functions
 347:Drivers/STM32G4xx_HAL_Driver/Inc/stm32g4xx_ll_system.h ****   * @{
 348:Drivers/STM32G4xx_HAL_Driver/Inc/stm32g4xx_ll_system.h ****   */
 349:Drivers/STM32G4xx_HAL_Driver/Inc/stm32g4xx_ll_system.h **** 
 350:Drivers/STM32G4xx_HAL_Driver/Inc/stm32g4xx_ll_system.h **** /** @defgroup SYSTEM_LL_EF_SYSCFG SYSCFG
 351:Drivers/STM32G4xx_HAL_Driver/Inc/stm32g4xx_ll_system.h ****   * @{
 352:Drivers/STM32G4xx_HAL_Driver/Inc/stm32g4xx_ll_system.h ****   */
 353:Drivers/STM32G4xx_HAL_Driver/Inc/stm32g4xx_ll_system.h **** 
 354:Drivers/STM32G4xx_HAL_Driver/Inc/stm32g4xx_ll_system.h **** /**
 355:Drivers/STM32G4xx_HAL_Driver/Inc/stm32g4xx_ll_system.h ****   * @brief  Set memory mapping at address 0x00000000
 356:Drivers/STM32G4xx_HAL_Driver/Inc/stm32g4xx_ll_system.h ****   * @rmtoll SYSCFG_MEMRMP MEM_MODE      LL_SYSCFG_SetRemapMemory
 357:Drivers/STM32G4xx_HAL_Driver/Inc/stm32g4xx_ll_system.h ****   * @param  Memory This parameter can be one of the following values:
 358:Drivers/STM32G4xx_HAL_Driver/Inc/stm32g4xx_ll_system.h ****   *         @arg @ref LL_SYSCFG_REMAP_FLASH
 359:Drivers/STM32G4xx_HAL_Driver/Inc/stm32g4xx_ll_system.h ****   *         @arg @ref LL_SYSCFG_REMAP_SYSTEMFLASH
ARM GAS  /tmp/cchxaK2W.s 			page 51


 360:Drivers/STM32G4xx_HAL_Driver/Inc/stm32g4xx_ll_system.h ****   *         @arg @ref LL_SYSCFG_REMAP_SRAM
 361:Drivers/STM32G4xx_HAL_Driver/Inc/stm32g4xx_ll_system.h ****   *         @arg @ref LL_SYSCFG_REMAP_FMC (*)
 362:Drivers/STM32G4xx_HAL_Driver/Inc/stm32g4xx_ll_system.h ****   *         @arg @ref LL_SYSCFG_REMAP_QUADSPI (*)
 363:Drivers/STM32G4xx_HAL_Driver/Inc/stm32g4xx_ll_system.h ****   *
 364:Drivers/STM32G4xx_HAL_Driver/Inc/stm32g4xx_ll_system.h ****   *         (*) value not defined in all devices
 365:Drivers/STM32G4xx_HAL_Driver/Inc/stm32g4xx_ll_system.h ****   * @retval None
 366:Drivers/STM32G4xx_HAL_Driver/Inc/stm32g4xx_ll_system.h ****   */
 367:Drivers/STM32G4xx_HAL_Driver/Inc/stm32g4xx_ll_system.h **** __STATIC_INLINE void LL_SYSCFG_SetRemapMemory(uint32_t Memory)
 368:Drivers/STM32G4xx_HAL_Driver/Inc/stm32g4xx_ll_system.h **** {
 369:Drivers/STM32G4xx_HAL_Driver/Inc/stm32g4xx_ll_system.h ****   MODIFY_REG(SYSCFG->MEMRMP, SYSCFG_MEMRMP_MEM_MODE, Memory);
 370:Drivers/STM32G4xx_HAL_Driver/Inc/stm32g4xx_ll_system.h **** }
 371:Drivers/STM32G4xx_HAL_Driver/Inc/stm32g4xx_ll_system.h **** 
 372:Drivers/STM32G4xx_HAL_Driver/Inc/stm32g4xx_ll_system.h **** /**
 373:Drivers/STM32G4xx_HAL_Driver/Inc/stm32g4xx_ll_system.h ****   * @brief  Get memory mapping at address 0x00000000
 374:Drivers/STM32G4xx_HAL_Driver/Inc/stm32g4xx_ll_system.h ****   * @rmtoll SYSCFG_MEMRMP MEM_MODE      LL_SYSCFG_GetRemapMemory
 375:Drivers/STM32G4xx_HAL_Driver/Inc/stm32g4xx_ll_system.h ****   * @retval Returned value can be one of the following values:
 376:Drivers/STM32G4xx_HAL_Driver/Inc/stm32g4xx_ll_system.h ****   *         @arg @ref LL_SYSCFG_REMAP_FLASH
 377:Drivers/STM32G4xx_HAL_Driver/Inc/stm32g4xx_ll_system.h ****   *         @arg @ref LL_SYSCFG_REMAP_SYSTEMFLASH
 378:Drivers/STM32G4xx_HAL_Driver/Inc/stm32g4xx_ll_system.h ****   *         @arg @ref LL_SYSCFG_REMAP_SRAM
 379:Drivers/STM32G4xx_HAL_Driver/Inc/stm32g4xx_ll_system.h ****   *         @arg @ref LL_SYSCFG_REMAP_FMC (*)
 380:Drivers/STM32G4xx_HAL_Driver/Inc/stm32g4xx_ll_system.h ****   *         @arg @ref LL_SYSCFG_REMAP_QUADSPI (*)
 381:Drivers/STM32G4xx_HAL_Driver/Inc/stm32g4xx_ll_system.h ****   *
 382:Drivers/STM32G4xx_HAL_Driver/Inc/stm32g4xx_ll_system.h ****   *         (*) value not defined in all devices
 383:Drivers/STM32G4xx_HAL_Driver/Inc/stm32g4xx_ll_system.h ****   */
 384:Drivers/STM32G4xx_HAL_Driver/Inc/stm32g4xx_ll_system.h **** __STATIC_INLINE uint32_t LL_SYSCFG_GetRemapMemory(void)
 385:Drivers/STM32G4xx_HAL_Driver/Inc/stm32g4xx_ll_system.h **** {
 386:Drivers/STM32G4xx_HAL_Driver/Inc/stm32g4xx_ll_system.h ****   return (uint32_t)(READ_BIT(SYSCFG->MEMRMP, SYSCFG_MEMRMP_MEM_MODE));
 387:Drivers/STM32G4xx_HAL_Driver/Inc/stm32g4xx_ll_system.h **** }
 388:Drivers/STM32G4xx_HAL_Driver/Inc/stm32g4xx_ll_system.h **** 
 389:Drivers/STM32G4xx_HAL_Driver/Inc/stm32g4xx_ll_system.h **** #if defined(SYSCFG_MEMRMP_FB_MODE)
 390:Drivers/STM32G4xx_HAL_Driver/Inc/stm32g4xx_ll_system.h **** /**
 391:Drivers/STM32G4xx_HAL_Driver/Inc/stm32g4xx_ll_system.h ****   * @brief  Select Flash bank mode (Bank flashed at 0x08000000)
 392:Drivers/STM32G4xx_HAL_Driver/Inc/stm32g4xx_ll_system.h ****   * @rmtoll SYSCFG_MEMRMP FB_MODE       LL_SYSCFG_SetFlashBankMode
 393:Drivers/STM32G4xx_HAL_Driver/Inc/stm32g4xx_ll_system.h ****   * @param  Bank This parameter can be one of the following values:
 394:Drivers/STM32G4xx_HAL_Driver/Inc/stm32g4xx_ll_system.h ****   *         @arg @ref LL_SYSCFG_BANKMODE_BANK1
 395:Drivers/STM32G4xx_HAL_Driver/Inc/stm32g4xx_ll_system.h ****   *         @arg @ref LL_SYSCFG_BANKMODE_BANK2
 396:Drivers/STM32G4xx_HAL_Driver/Inc/stm32g4xx_ll_system.h ****   * @retval None
 397:Drivers/STM32G4xx_HAL_Driver/Inc/stm32g4xx_ll_system.h ****   */
 398:Drivers/STM32G4xx_HAL_Driver/Inc/stm32g4xx_ll_system.h **** __STATIC_INLINE void LL_SYSCFG_SetFlashBankMode(uint32_t Bank)
 399:Drivers/STM32G4xx_HAL_Driver/Inc/stm32g4xx_ll_system.h **** {
 400:Drivers/STM32G4xx_HAL_Driver/Inc/stm32g4xx_ll_system.h ****   MODIFY_REG(SYSCFG->MEMRMP, SYSCFG_MEMRMP_FB_MODE, Bank);
 401:Drivers/STM32G4xx_HAL_Driver/Inc/stm32g4xx_ll_system.h **** }
 402:Drivers/STM32G4xx_HAL_Driver/Inc/stm32g4xx_ll_system.h **** 
 403:Drivers/STM32G4xx_HAL_Driver/Inc/stm32g4xx_ll_system.h **** /**
 404:Drivers/STM32G4xx_HAL_Driver/Inc/stm32g4xx_ll_system.h ****   * @brief  Get Flash bank mode (Bank flashed at 0x08000000)
 405:Drivers/STM32G4xx_HAL_Driver/Inc/stm32g4xx_ll_system.h ****   * @rmtoll SYSCFG_MEMRMP FB_MODE       LL_SYSCFG_GetFlashBankMode
 406:Drivers/STM32G4xx_HAL_Driver/Inc/stm32g4xx_ll_system.h ****   * @retval Returned value can be one of the following values:
 407:Drivers/STM32G4xx_HAL_Driver/Inc/stm32g4xx_ll_system.h ****   *         @arg @ref LL_SYSCFG_BANKMODE_BANK1
 408:Drivers/STM32G4xx_HAL_Driver/Inc/stm32g4xx_ll_system.h ****   *         @arg @ref LL_SYSCFG_BANKMODE_BANK2
 409:Drivers/STM32G4xx_HAL_Driver/Inc/stm32g4xx_ll_system.h ****   */
 410:Drivers/STM32G4xx_HAL_Driver/Inc/stm32g4xx_ll_system.h **** __STATIC_INLINE uint32_t LL_SYSCFG_GetFlashBankMode(void)
 411:Drivers/STM32G4xx_HAL_Driver/Inc/stm32g4xx_ll_system.h **** {
 412:Drivers/STM32G4xx_HAL_Driver/Inc/stm32g4xx_ll_system.h ****   return (uint32_t)(READ_BIT(SYSCFG->MEMRMP, SYSCFG_MEMRMP_FB_MODE));
 413:Drivers/STM32G4xx_HAL_Driver/Inc/stm32g4xx_ll_system.h **** }
 414:Drivers/STM32G4xx_HAL_Driver/Inc/stm32g4xx_ll_system.h **** #endif /* SYSCFG_MEMRMP_FB_MODE */
 415:Drivers/STM32G4xx_HAL_Driver/Inc/stm32g4xx_ll_system.h **** 
 416:Drivers/STM32G4xx_HAL_Driver/Inc/stm32g4xx_ll_system.h **** /**
ARM GAS  /tmp/cchxaK2W.s 			page 52


 417:Drivers/STM32G4xx_HAL_Driver/Inc/stm32g4xx_ll_system.h ****   * @brief  Enable I/O analog switch voltage booster.
 418:Drivers/STM32G4xx_HAL_Driver/Inc/stm32g4xx_ll_system.h ****   * @note   When voltage booster is enabled, I/O analog switches are supplied
 419:Drivers/STM32G4xx_HAL_Driver/Inc/stm32g4xx_ll_system.h ****   *         by a dedicated voltage booster, from VDD power domain. This is
 420:Drivers/STM32G4xx_HAL_Driver/Inc/stm32g4xx_ll_system.h ****   *         the recommended configuration with low VDDA voltage operation.
 421:Drivers/STM32G4xx_HAL_Driver/Inc/stm32g4xx_ll_system.h ****   * @note   The I/O analog switch voltage booster is relevant for peripherals
 422:Drivers/STM32G4xx_HAL_Driver/Inc/stm32g4xx_ll_system.h ****   *         using I/O in analog input: ADC, COMP, OPAMP.
 423:Drivers/STM32G4xx_HAL_Driver/Inc/stm32g4xx_ll_system.h ****   *         However, COMP and OPAMP inputs have a high impedance and
 424:Drivers/STM32G4xx_HAL_Driver/Inc/stm32g4xx_ll_system.h ****   *         voltage booster do not impact performance significantly.
 425:Drivers/STM32G4xx_HAL_Driver/Inc/stm32g4xx_ll_system.h ****   *         Therefore, the voltage booster is mainly intended for
 426:Drivers/STM32G4xx_HAL_Driver/Inc/stm32g4xx_ll_system.h ****   *         usage with ADC.
 427:Drivers/STM32G4xx_HAL_Driver/Inc/stm32g4xx_ll_system.h ****   * @rmtoll SYSCFG_CFGR1 BOOSTEN       LL_SYSCFG_EnableAnalogBooster
 428:Drivers/STM32G4xx_HAL_Driver/Inc/stm32g4xx_ll_system.h ****   * @retval None
 429:Drivers/STM32G4xx_HAL_Driver/Inc/stm32g4xx_ll_system.h ****   */
 430:Drivers/STM32G4xx_HAL_Driver/Inc/stm32g4xx_ll_system.h **** __STATIC_INLINE void LL_SYSCFG_EnableAnalogBooster(void)
 431:Drivers/STM32G4xx_HAL_Driver/Inc/stm32g4xx_ll_system.h **** {
 432:Drivers/STM32G4xx_HAL_Driver/Inc/stm32g4xx_ll_system.h ****   SET_BIT(SYSCFG->CFGR1, SYSCFG_CFGR1_BOOSTEN);
 433:Drivers/STM32G4xx_HAL_Driver/Inc/stm32g4xx_ll_system.h **** }
 434:Drivers/STM32G4xx_HAL_Driver/Inc/stm32g4xx_ll_system.h **** 
 435:Drivers/STM32G4xx_HAL_Driver/Inc/stm32g4xx_ll_system.h **** /**
 436:Drivers/STM32G4xx_HAL_Driver/Inc/stm32g4xx_ll_system.h ****   * @brief  Disable I/O analog switch voltage booster.
 437:Drivers/STM32G4xx_HAL_Driver/Inc/stm32g4xx_ll_system.h ****   * @note   When voltage booster is enabled, I/O analog switches are supplied
 438:Drivers/STM32G4xx_HAL_Driver/Inc/stm32g4xx_ll_system.h ****   *         by a dedicated voltage booster, from VDD power domain. This is
 439:Drivers/STM32G4xx_HAL_Driver/Inc/stm32g4xx_ll_system.h ****   *         the recommended configuration with low VDDA voltage operation.
 440:Drivers/STM32G4xx_HAL_Driver/Inc/stm32g4xx_ll_system.h ****   * @note   The I/O analog switch voltage booster is relevant for peripherals
 441:Drivers/STM32G4xx_HAL_Driver/Inc/stm32g4xx_ll_system.h ****   *         using I/O in analog input: ADC, COMP, OPAMP.
 442:Drivers/STM32G4xx_HAL_Driver/Inc/stm32g4xx_ll_system.h ****   *         However, COMP and OPAMP inputs have a high impedance and
 443:Drivers/STM32G4xx_HAL_Driver/Inc/stm32g4xx_ll_system.h ****   *         voltage booster do not impact performance significantly.
 444:Drivers/STM32G4xx_HAL_Driver/Inc/stm32g4xx_ll_system.h ****   *         Therefore, the voltage booster is mainly intended for
 445:Drivers/STM32G4xx_HAL_Driver/Inc/stm32g4xx_ll_system.h ****   *         usage with ADC.
 446:Drivers/STM32G4xx_HAL_Driver/Inc/stm32g4xx_ll_system.h ****   * @rmtoll SYSCFG_CFGR1 BOOSTEN       LL_SYSCFG_DisableAnalogBooster
 447:Drivers/STM32G4xx_HAL_Driver/Inc/stm32g4xx_ll_system.h ****   * @retval None
 448:Drivers/STM32G4xx_HAL_Driver/Inc/stm32g4xx_ll_system.h ****   */
 449:Drivers/STM32G4xx_HAL_Driver/Inc/stm32g4xx_ll_system.h **** __STATIC_INLINE void LL_SYSCFG_DisableAnalogBooster(void)
 450:Drivers/STM32G4xx_HAL_Driver/Inc/stm32g4xx_ll_system.h **** {
 451:Drivers/STM32G4xx_HAL_Driver/Inc/stm32g4xx_ll_system.h ****   CLEAR_BIT(SYSCFG->CFGR1, SYSCFG_CFGR1_BOOSTEN);
 452:Drivers/STM32G4xx_HAL_Driver/Inc/stm32g4xx_ll_system.h **** }
 453:Drivers/STM32G4xx_HAL_Driver/Inc/stm32g4xx_ll_system.h **** 
 454:Drivers/STM32G4xx_HAL_Driver/Inc/stm32g4xx_ll_system.h **** /**
 455:Drivers/STM32G4xx_HAL_Driver/Inc/stm32g4xx_ll_system.h ****   * @brief  Enable the I2C fast mode plus driving capability.
 456:Drivers/STM32G4xx_HAL_Driver/Inc/stm32g4xx_ll_system.h ****   * @rmtoll SYSCFG_CFGR1 I2C_PBx_FMP   LL_SYSCFG_EnableFastModePlus\n
 457:Drivers/STM32G4xx_HAL_Driver/Inc/stm32g4xx_ll_system.h ****   *         SYSCFG_CFGR1 I2Cx_FMP      LL_SYSCFG_EnableFastModePlus
 458:Drivers/STM32G4xx_HAL_Driver/Inc/stm32g4xx_ll_system.h ****   * @param  ConfigFastModePlus This parameter can be a combination of the following values:
 459:Drivers/STM32G4xx_HAL_Driver/Inc/stm32g4xx_ll_system.h ****   *         @arg @ref LL_SYSCFG_I2C_FASTMODEPLUS_PB6
 460:Drivers/STM32G4xx_HAL_Driver/Inc/stm32g4xx_ll_system.h ****   *         @arg @ref LL_SYSCFG_I2C_FASTMODEPLUS_PB7
 461:Drivers/STM32G4xx_HAL_Driver/Inc/stm32g4xx_ll_system.h ****   *         @arg @ref LL_SYSCFG_I2C_FASTMODEPLUS_PB8 (*)
 462:Drivers/STM32G4xx_HAL_Driver/Inc/stm32g4xx_ll_system.h ****   *         @arg @ref LL_SYSCFG_I2C_FASTMODEPLUS_PB9 (*)
 463:Drivers/STM32G4xx_HAL_Driver/Inc/stm32g4xx_ll_system.h ****   *         @arg @ref LL_SYSCFG_I2C_FASTMODEPLUS_I2C1
 464:Drivers/STM32G4xx_HAL_Driver/Inc/stm32g4xx_ll_system.h ****   *         @arg @ref LL_SYSCFG_I2C_FASTMODEPLUS_I2C2 (*)
 465:Drivers/STM32G4xx_HAL_Driver/Inc/stm32g4xx_ll_system.h ****   *         @arg @ref LL_SYSCFG_I2C_FASTMODEPLUS_I2C3
 466:Drivers/STM32G4xx_HAL_Driver/Inc/stm32g4xx_ll_system.h ****   *         @arg @ref LL_SYSCFG_I2C_FASTMODEPLUS_I2C4 (*)
 467:Drivers/STM32G4xx_HAL_Driver/Inc/stm32g4xx_ll_system.h ****   *
 468:Drivers/STM32G4xx_HAL_Driver/Inc/stm32g4xx_ll_system.h ****   *         (*) value not defined in all devices
 469:Drivers/STM32G4xx_HAL_Driver/Inc/stm32g4xx_ll_system.h ****   * @retval None
 470:Drivers/STM32G4xx_HAL_Driver/Inc/stm32g4xx_ll_system.h ****   */
 471:Drivers/STM32G4xx_HAL_Driver/Inc/stm32g4xx_ll_system.h **** __STATIC_INLINE void LL_SYSCFG_EnableFastModePlus(uint32_t ConfigFastModePlus)
 472:Drivers/STM32G4xx_HAL_Driver/Inc/stm32g4xx_ll_system.h **** {
 473:Drivers/STM32G4xx_HAL_Driver/Inc/stm32g4xx_ll_system.h ****   SET_BIT(SYSCFG->CFGR1, ConfigFastModePlus);
ARM GAS  /tmp/cchxaK2W.s 			page 53


 474:Drivers/STM32G4xx_HAL_Driver/Inc/stm32g4xx_ll_system.h **** }
 475:Drivers/STM32G4xx_HAL_Driver/Inc/stm32g4xx_ll_system.h **** 
 476:Drivers/STM32G4xx_HAL_Driver/Inc/stm32g4xx_ll_system.h **** /**
 477:Drivers/STM32G4xx_HAL_Driver/Inc/stm32g4xx_ll_system.h ****   * @brief  Disable the I2C fast mode plus driving capability.
 478:Drivers/STM32G4xx_HAL_Driver/Inc/stm32g4xx_ll_system.h ****   * @rmtoll SYSCFG_CFGR1 I2C_PBx_FMP   LL_SYSCFG_DisableFastModePlus\n
