ARM GAS  /tmp/ccGBJuYA.s 			page 1


   1              		.cpu cortex-m4
   2              		.arch armv7e-m
   3              		.fpu fpv4-sp-d16
   4              		.eabi_attribute 27, 1
   5              		.eabi_attribute 28, 1
   6              		.eabi_attribute 20, 1
   7              		.eabi_attribute 21, 1
   8              		.eabi_attribute 23, 3
   9              		.eabi_attribute 24, 1
  10              		.eabi_attribute 25, 1
  11              		.eabi_attribute 26, 1
  12              		.eabi_attribute 30, 1
  13              		.eabi_attribute 34, 1
  14              		.eabi_attribute 18, 4
  15              		.file	"i2c.c"
  16              		.text
  17              	.Ltext0:
  18              		.cfi_sections	.debug_frame
  19              		.section	.text.MX_I2C1_Init,"ax",%progbits
  20              		.align	1
  21              		.global	MX_I2C1_Init
  22              		.syntax unified
  23              		.thumb
  24              		.thumb_func
  26              	MX_I2C1_Init:
  27              	.LFB1438:
  28              		.file 1 "Core/Src/i2c.c"
   1:Core/Src/i2c.c **** /* USER CODE BEGIN Header */
   2:Core/Src/i2c.c **** /**
   3:Core/Src/i2c.c ****   ******************************************************************************
   4:Core/Src/i2c.c ****   * @file    i2c.c
   5:Core/Src/i2c.c ****   * @brief   This file provides code for the configuration
   6:Core/Src/i2c.c ****   *          of the I2C instances.
   7:Core/Src/i2c.c ****   ******************************************************************************
   8:Core/Src/i2c.c ****   * @attention
   9:Core/Src/i2c.c ****   *
  10:Core/Src/i2c.c ****   * Copyright (c) 2022 STMicroelectronics.
  11:Core/Src/i2c.c ****   * All rights reserved.
  12:Core/Src/i2c.c ****   *
  13:Core/Src/i2c.c ****   * This software is licensed under terms that can be found in the LICENSE file
  14:Core/Src/i2c.c ****   * in the root directory of this software component.
  15:Core/Src/i2c.c ****   * If no LICENSE file comes with this software, it is provided AS-IS.
  16:Core/Src/i2c.c ****   *
  17:Core/Src/i2c.c ****   ******************************************************************************
  18:Core/Src/i2c.c ****   */
  19:Core/Src/i2c.c **** /* USER CODE END Header */
  20:Core/Src/i2c.c **** /* Includes ------------------------------------------------------------------*/
  21:Core/Src/i2c.c **** #include "i2c.h"
  22:Core/Src/i2c.c **** 
  23:Core/Src/i2c.c **** /* USER CODE BEGIN 0 */
  24:Core/Src/i2c.c **** 
  25:Core/Src/i2c.c **** /* USER CODE END 0 */
  26:Core/Src/i2c.c **** 
  27:Core/Src/i2c.c **** I2C_HandleTypeDef hi2c1;
  28:Core/Src/i2c.c **** I2C_HandleTypeDef hi2c2;
  29:Core/Src/i2c.c **** 
  30:Core/Src/i2c.c **** /* I2C1 init function */
ARM GAS  /tmp/ccGBJuYA.s 			page 2


  31:Core/Src/i2c.c **** void MX_I2C1_Init(void)
  32:Core/Src/i2c.c **** {
  29              		.loc 1 32 1 view -0
  30              		.cfi_startproc
  31              		@ args = 0, pretend = 0, frame = 0
  32              		@ frame_needed = 0, uses_anonymous_args = 0
  33 0000 08B5     		push	{r3, lr}
  34              	.LCFI0:
  35              		.cfi_def_cfa_offset 8
  36              		.cfi_offset 3, -8
  37              		.cfi_offset 14, -4
  33:Core/Src/i2c.c **** 
  34:Core/Src/i2c.c ****   /* USER CODE BEGIN I2C1_Init 0 */
  35:Core/Src/i2c.c **** 
  36:Core/Src/i2c.c ****   /* USER CODE END I2C1_Init 0 */
  37:Core/Src/i2c.c **** 
  38:Core/Src/i2c.c ****   /* USER CODE BEGIN I2C1_Init 1 */
  39:Core/Src/i2c.c **** 
  40:Core/Src/i2c.c ****   /* USER CODE END I2C1_Init 1 */
  41:Core/Src/i2c.c ****   hi2c1.Instance = I2C1;
  38              		.loc 1 41 3 view .LVU1
  39              		.loc 1 41 18 is_stmt 0 view .LVU2
  40 0002 1548     		ldr	r0, .L9
  41 0004 154B     		ldr	r3, .L9+4
  42 0006 0360     		str	r3, [r0]
  42:Core/Src/i2c.c ****   hi2c1.Init.Timing = 0x30A0A7FB;
  43              		.loc 1 42 3 is_stmt 1 view .LVU3
  44              		.loc 1 42 21 is_stmt 0 view .LVU4
  45 0008 A3F17563 		sub	r3, r3, #256901120
  46 000c A3F57A23 		sub	r3, r3, #1024000
  47 0010 A3F60543 		subw	r3, r3, #3077
  48 0014 4360     		str	r3, [r0, #4]
  43:Core/Src/i2c.c ****   hi2c1.Init.OwnAddress1 = 0;
  49              		.loc 1 43 3 is_stmt 1 view .LVU5
  50              		.loc 1 43 26 is_stmt 0 view .LVU6
  51 0016 0023     		movs	r3, #0
  52 0018 8360     		str	r3, [r0, #8]
  44:Core/Src/i2c.c ****   hi2c1.Init.AddressingMode = I2C_ADDRESSINGMODE_7BIT;
  53              		.loc 1 44 3 is_stmt 1 view .LVU7
  54              		.loc 1 44 29 is_stmt 0 view .LVU8
  55 001a 0122     		movs	r2, #1
  56 001c C260     		str	r2, [r0, #12]
  45:Core/Src/i2c.c ****   hi2c1.Init.DualAddressMode = I2C_DUALADDRESS_DISABLE;
  57              		.loc 1 45 3 is_stmt 1 view .LVU9
  58              		.loc 1 45 30 is_stmt 0 view .LVU10
  59 001e 0361     		str	r3, [r0, #16]
  46:Core/Src/i2c.c ****   hi2c1.Init.OwnAddress2 = 0;
  60              		.loc 1 46 3 is_stmt 1 view .LVU11
  61              		.loc 1 46 26 is_stmt 0 view .LVU12
  62 0020 4361     		str	r3, [r0, #20]
  47:Core/Src/i2c.c ****   hi2c1.Init.OwnAddress2Masks = I2C_OA2_NOMASK;
  63              		.loc 1 47 3 is_stmt 1 view .LVU13
  64              		.loc 1 47 31 is_stmt 0 view .LVU14
  65 0022 8361     		str	r3, [r0, #24]
  48:Core/Src/i2c.c ****   hi2c1.Init.GeneralCallMode = I2C_GENERALCALL_DISABLE;
  66              		.loc 1 48 3 is_stmt 1 view .LVU15
  67              		.loc 1 48 30 is_stmt 0 view .LVU16
ARM GAS  /tmp/ccGBJuYA.s 			page 3


  68 0024 C361     		str	r3, [r0, #28]
  49:Core/Src/i2c.c ****   hi2c1.Init.NoStretchMode = I2C_NOSTRETCH_DISABLE;
  69              		.loc 1 49 3 is_stmt 1 view .LVU17
  70              		.loc 1 49 28 is_stmt 0 view .LVU18
  71 0026 0362     		str	r3, [r0, #32]
  50:Core/Src/i2c.c ****   if (HAL_I2C_Init(&hi2c1) != HAL_OK)
  72              		.loc 1 50 3 is_stmt 1 view .LVU19
  73              		.loc 1 50 7 is_stmt 0 view .LVU20
  74 0028 FFF7FEFF 		bl	HAL_I2C_Init
  75              	.LVL0:
  76              		.loc 1 50 6 view .LVU21
  77 002c 50B9     		cbnz	r0, .L6
  78              	.L2:
  51:Core/Src/i2c.c ****   {
  52:Core/Src/i2c.c ****     Error_Handler();
  53:Core/Src/i2c.c ****   }
  54:Core/Src/i2c.c **** 
  55:Core/Src/i2c.c ****   /** Configure Analogue filter
  56:Core/Src/i2c.c ****   */
  57:Core/Src/i2c.c ****   if (HAL_I2CEx_ConfigAnalogFilter(&hi2c1, I2C_ANALOGFILTER_ENABLE) != HAL_OK)
  79              		.loc 1 57 3 is_stmt 1 view .LVU22
  80              		.loc 1 57 7 is_stmt 0 view .LVU23
  81 002e 0021     		movs	r1, #0
  82 0030 0948     		ldr	r0, .L9
  83 0032 FFF7FEFF 		bl	HAL_I2CEx_ConfigAnalogFilter
  84              	.LVL1:
  85              		.loc 1 57 6 view .LVU24
  86 0036 40B9     		cbnz	r0, .L7
  87              	.L3:
  58:Core/Src/i2c.c ****   {
  59:Core/Src/i2c.c ****     Error_Handler();
  60:Core/Src/i2c.c ****   }
  61:Core/Src/i2c.c **** 
  62:Core/Src/i2c.c ****   /** Configure Digital filter
  63:Core/Src/i2c.c ****   */
  64:Core/Src/i2c.c ****   if (HAL_I2CEx_ConfigDigitalFilter(&hi2c1, 0) != HAL_OK)
  88              		.loc 1 64 3 is_stmt 1 view .LVU25
  89              		.loc 1 64 7 is_stmt 0 view .LVU26
  90 0038 0021     		movs	r1, #0
  91 003a 0748     		ldr	r0, .L9
  92 003c FFF7FEFF 		bl	HAL_I2CEx_ConfigDigitalFilter
  93              	.LVL2:
  94              		.loc 1 64 6 view .LVU27
  95 0040 30B9     		cbnz	r0, .L8
  96              	.L1:
  65:Core/Src/i2c.c ****   {
  66:Core/Src/i2c.c ****     Error_Handler();
  67:Core/Src/i2c.c ****   }
  68:Core/Src/i2c.c ****   /* USER CODE BEGIN I2C1_Init 2 */
  69:Core/Src/i2c.c **** 
  70:Core/Src/i2c.c ****   /* USER CODE END I2C1_Init 2 */
  71:Core/Src/i2c.c **** 
  72:Core/Src/i2c.c **** }
  97              		.loc 1 72 1 view .LVU28
  98 0042 08BD     		pop	{r3, pc}
  99              	.L6:
  52:Core/Src/i2c.c ****   }
ARM GAS  /tmp/ccGBJuYA.s 			page 4


 100              		.loc 1 52 5 is_stmt 1 view .LVU29
 101 0044 FFF7FEFF 		bl	Error_Handler
 102              	.LVL3:
 103 0048 F1E7     		b	.L2
 104              	.L7:
  59:Core/Src/i2c.c ****   }
 105              		.loc 1 59 5 view .LVU30
 106 004a FFF7FEFF 		bl	Error_Handler
 107              	.LVL4:
 108 004e F3E7     		b	.L3
 109              	.L8:
  66:Core/Src/i2c.c ****   }
 110              		.loc 1 66 5 view .LVU31
 111 0050 FFF7FEFF 		bl	Error_Handler
 112              	.LVL5:
 113              		.loc 1 72 1 is_stmt 0 view .LVU32
 114 0054 F5E7     		b	.L1
 115              	.L10:
 116 0056 00BF     		.align	2
 117              	.L9:
 118 0058 00000000 		.word	.LANCHOR0
 119 005c 00540040 		.word	1073763328
 120              		.cfi_endproc
 121              	.LFE1438:
 123              		.section	.text.MX_I2C2_Init,"ax",%progbits
 124              		.align	1
 125              		.global	MX_I2C2_Init
 126              		.syntax unified
 127              		.thumb
 128              		.thumb_func
 130              	MX_I2C2_Init:
 131              	.LFB1439:
  73:Core/Src/i2c.c **** /* I2C2 init function */
  74:Core/Src/i2c.c **** void MX_I2C2_Init(void)
  75:Core/Src/i2c.c **** {
 132              		.loc 1 75 1 is_stmt 1 view -0
 133              		.cfi_startproc
 134              		@ args = 0, pretend = 0, frame = 0
 135              		@ frame_needed = 0, uses_anonymous_args = 0
 136 0000 08B5     		push	{r3, lr}
 137              	.LCFI1:
 138              		.cfi_def_cfa_offset 8
 139              		.cfi_offset 3, -8
 140              		.cfi_offset 14, -4
  76:Core/Src/i2c.c **** 
  77:Core/Src/i2c.c ****   /* USER CODE BEGIN I2C2_Init 0 */
  78:Core/Src/i2c.c **** 
  79:Core/Src/i2c.c ****   /* USER CODE END I2C2_Init 0 */
  80:Core/Src/i2c.c **** 
  81:Core/Src/i2c.c ****   /* USER CODE BEGIN I2C2_Init 1 */
  82:Core/Src/i2c.c **** 
  83:Core/Src/i2c.c ****   /* USER CODE END I2C2_Init 1 */
  84:Core/Src/i2c.c ****   hi2c2.Instance = I2C2;
 141              		.loc 1 84 3 view .LVU34
 142              		.loc 1 84 18 is_stmt 0 view .LVU35
 143 0002 1448     		ldr	r0, .L19
 144 0004 144B     		ldr	r3, .L19+4
ARM GAS  /tmp/ccGBJuYA.s 			page 5


 145 0006 0360     		str	r3, [r0]
  85:Core/Src/i2c.c ****   hi2c2.Init.Timing = 0x30A0A7FB;
 146              		.loc 1 85 3 is_stmt 1 view .LVU36
 147              		.loc 1 85 21 is_stmt 0 view .LVU37
 148 0008 A3F17563 		sub	r3, r3, #256901120
 149 000c A3F57B23 		sub	r3, r3, #1028096
 150 0010 053B     		subs	r3, r3, #5
 151 0012 4360     		str	r3, [r0, #4]
  86:Core/Src/i2c.c ****   hi2c2.Init.OwnAddress1 = 0;
 152              		.loc 1 86 3 is_stmt 1 view .LVU38
 153              		.loc 1 86 26 is_stmt 0 view .LVU39
 154 0014 0023     		movs	r3, #0
 155 0016 8360     		str	r3, [r0, #8]
  87:Core/Src/i2c.c ****   hi2c2.Init.AddressingMode = I2C_ADDRESSINGMODE_7BIT;
 156              		.loc 1 87 3 is_stmt 1 view .LVU40
 157              		.loc 1 87 29 is_stmt 0 view .LVU41
 158 0018 0122     		movs	r2, #1
 159 001a C260     		str	r2, [r0, #12]
  88:Core/Src/i2c.c ****   hi2c2.Init.DualAddressMode = I2C_DUALADDRESS_DISABLE;
 160              		.loc 1 88 3 is_stmt 1 view .LVU42
 161              		.loc 1 88 30 is_stmt 0 view .LVU43
 162 001c 0361     		str	r3, [r0, #16]
  89:Core/Src/i2c.c ****   hi2c2.Init.OwnAddress2 = 0;
 163              		.loc 1 89 3 is_stmt 1 view .LVU44
 164              		.loc 1 89 26 is_stmt 0 view .LVU45
 165 001e 4361     		str	r3, [r0, #20]
  90:Core/Src/i2c.c ****   hi2c2.Init.OwnAddress2Masks = I2C_OA2_NOMASK;
 166              		.loc 1 90 3 is_stmt 1 view .LVU46
 167              		.loc 1 90 31 is_stmt 0 view .LVU47
 168 0020 8361     		str	r3, [r0, #24]
  91:Core/Src/i2c.c ****   hi2c2.Init.GeneralCallMode = I2C_GENERALCALL_DISABLE;
 169              		.loc 1 91 3 is_stmt 1 view .LVU48
 170              		.loc 1 91 30 is_stmt 0 view .LVU49
 171 0022 C361     		str	r3, [r0, #28]
  92:Core/Src/i2c.c ****   hi2c2.Init.NoStretchMode = I2C_NOSTRETCH_DISABLE;
 172              		.loc 1 92 3 is_stmt 1 view .LVU50
 173              		.loc 1 92 28 is_stmt 0 view .LVU51
 174 0024 0362     		str	r3, [r0, #32]
  93:Core/Src/i2c.c ****   if (HAL_I2C_Init(&hi2c2) != HAL_OK)
 175              		.loc 1 93 3 is_stmt 1 view .LVU52
 176              		.loc 1 93 7 is_stmt 0 view .LVU53
 177 0026 FFF7FEFF 		bl	HAL_I2C_Init
 178              	.LVL6:
 179              		.loc 1 93 6 view .LVU54
 180 002a 50B9     		cbnz	r0, .L16
 181              	.L12:
  94:Core/Src/i2c.c ****   {
  95:Core/Src/i2c.c ****     Error_Handler();
  96:Core/Src/i2c.c ****   }
  97:Core/Src/i2c.c **** 
  98:Core/Src/i2c.c ****   /** Configure Analogue filter
  99:Core/Src/i2c.c ****   */
 100:Core/Src/i2c.c ****   if (HAL_I2CEx_ConfigAnalogFilter(&hi2c2, I2C_ANALOGFILTER_ENABLE) != HAL_OK)
 182              		.loc 1 100 3 is_stmt 1 view .LVU55
 183              		.loc 1 100 7 is_stmt 0 view .LVU56
 184 002c 0021     		movs	r1, #0
 185 002e 0948     		ldr	r0, .L19
ARM GAS  /tmp/ccGBJuYA.s 			page 6


 186 0030 FFF7FEFF 		bl	HAL_I2CEx_ConfigAnalogFilter
 187              	.LVL7:
 188              		.loc 1 100 6 view .LVU57
 189 0034 40B9     		cbnz	r0, .L17
 190              	.L13:
 101:Core/Src/i2c.c ****   {
 102:Core/Src/i2c.c ****     Error_Handler();
 103:Core/Src/i2c.c ****   }
 104:Core/Src/i2c.c **** 
 105:Core/Src/i2c.c ****   /** Configure Digital filter
 106:Core/Src/i2c.c ****   */
 107:Core/Src/i2c.c ****   if (HAL_I2CEx_ConfigDigitalFilter(&hi2c2, 0) != HAL_OK)
 191              		.loc 1 107 3 is_stmt 1 view .LVU58
 192              		.loc 1 107 7 is_stmt 0 view .LVU59
 193 0036 0021     		movs	r1, #0
 194 0038 0648     		ldr	r0, .L19
 195 003a FFF7FEFF 		bl	HAL_I2CEx_ConfigDigitalFilter
 196              	.LVL8:
 197              		.loc 1 107 6 view .LVU60
 198 003e 30B9     		cbnz	r0, .L18
 199              	.L11:
 108:Core/Src/i2c.c ****   {
 109:Core/Src/i2c.c ****     Error_Handler();
 110:Core/Src/i2c.c ****   }
 111:Core/Src/i2c.c ****   /* USER CODE BEGIN I2C2_Init 2 */
 112:Core/Src/i2c.c **** 
 113:Core/Src/i2c.c ****   /* USER CODE END I2C2_Init 2 */
 114:Core/Src/i2c.c **** 
 115:Core/Src/i2c.c **** }
 200              		.loc 1 115 1 view .LVU61
 201 0040 08BD     		pop	{r3, pc}
 202              	.L16:
  95:Core/Src/i2c.c ****   }
 203              		.loc 1 95 5 is_stmt 1 view .LVU62
 204 0042 FFF7FEFF 		bl	Error_Handler
 205              	.LVL9:
 206 0046 F1E7     		b	.L12
 207              	.L17:
 102:Core/Src/i2c.c ****   }
 208              		.loc 1 102 5 view .LVU63
 209 0048 FFF7FEFF 		bl	Error_Handler
 210              	.LVL10:
 211 004c F3E7     		b	.L13
 212              	.L18:
 109:Core/Src/i2c.c ****   }
 213              		.loc 1 109 5 view .LVU64
 214 004e FFF7FEFF 		bl	Error_Handler
 215              	.LVL11:
 216              		.loc 1 115 1 is_stmt 0 view .LVU65
 217 0052 F5E7     		b	.L11
 218              	.L20:
 219              		.align	2
 220              	.L19:
 221 0054 00000000 		.word	.LANCHOR1
 222 0058 00580040 		.word	1073764352
 223              		.cfi_endproc
 224              	.LFE1439:
ARM GAS  /tmp/ccGBJuYA.s 			page 7


 226              		.section	.text.HAL_I2C_MspInit,"ax",%progbits
 227              		.align	1
 228              		.global	HAL_I2C_MspInit
 229              		.syntax unified
 230              		.thumb
 231              		.thumb_func
 233              	HAL_I2C_MspInit:
 234              	.LVL12:
 235              	.LFB1440:
 116:Core/Src/i2c.c **** 
 117:Core/Src/i2c.c **** void HAL_I2C_MspInit(I2C_HandleTypeDef* i2cHandle)
 118:Core/Src/i2c.c **** {
 236              		.loc 1 118 1 is_stmt 1 view -0
 237              		.cfi_startproc
 238              		@ args = 0, pretend = 0, frame = 128
 239              		@ frame_needed = 0, uses_anonymous_args = 0
 240              		.loc 1 118 1 is_stmt 0 view .LVU67
 241 0000 F0B5     		push	{r4, r5, r6, r7, lr}
 242              	.LCFI2:
 243              		.cfi_def_cfa_offset 20
 244              		.cfi_offset 4, -20
 245              		.cfi_offset 5, -16
 246              		.cfi_offset 6, -12
 247              		.cfi_offset 7, -8
 248              		.cfi_offset 14, -4
 249 0002 A1B0     		sub	sp, sp, #132
 250              	.LCFI3:
 251              		.cfi_def_cfa_offset 152
 252 0004 0446     		mov	r4, r0
 119:Core/Src/i2c.c **** 
 120:Core/Src/i2c.c ****   GPIO_InitTypeDef GPIO_InitStruct = {0};
 253              		.loc 1 120 3 is_stmt 1 view .LVU68
 254              		.loc 1 120 20 is_stmt 0 view .LVU69
 255 0006 0021     		movs	r1, #0
 256 0008 1B91     		str	r1, [sp, #108]
 257 000a 1C91     		str	r1, [sp, #112]
 258 000c 1D91     		str	r1, [sp, #116]
 259 000e 1E91     		str	r1, [sp, #120]
 260 0010 1F91     		str	r1, [sp, #124]
 121:Core/Src/i2c.c ****   RCC_PeriphCLKInitTypeDef PeriphClkInit = {0};
 261              		.loc 1 121 3 is_stmt 1 view .LVU70
 262              		.loc 1 121 28 is_stmt 0 view .LVU71
 263 0012 5422     		movs	r2, #84
 264 0014 06A8     		add	r0, sp, #24
 265              	.LVL13:
 266              		.loc 1 121 28 view .LVU72
 267 0016 FFF7FEFF 		bl	memset
 268              	.LVL14:
 122:Core/Src/i2c.c ****   if(i2cHandle->Instance==I2C1)
 269              		.loc 1 122 3 is_stmt 1 view .LVU73
 270              		.loc 1 122 15 is_stmt 0 view .LVU74
 271 001a 2368     		ldr	r3, [r4]
 272              		.loc 1 122 5 view .LVU75
 273 001c 3A4A     		ldr	r2, .L31
 274 001e 9342     		cmp	r3, r2
 275 0020 04D0     		beq	.L27
 123:Core/Src/i2c.c ****   {
ARM GAS  /tmp/ccGBJuYA.s 			page 8


 124:Core/Src/i2c.c ****   /* USER CODE BEGIN I2C1_MspInit 0 */
 125:Core/Src/i2c.c **** 
 126:Core/Src/i2c.c ****   /* USER CODE END I2C1_MspInit 0 */
 127:Core/Src/i2c.c **** 
 128:Core/Src/i2c.c ****   /** Initializes the peripherals clocks
 129:Core/Src/i2c.c ****   */
 130:Core/Src/i2c.c ****     PeriphClkInit.PeriphClockSelection = RCC_PERIPHCLK_I2C1;
 131:Core/Src/i2c.c ****     PeriphClkInit.I2c1ClockSelection = RCC_I2C1CLKSOURCE_PCLK1;
 132:Core/Src/i2c.c ****     if (HAL_RCCEx_PeriphCLKConfig(&PeriphClkInit) != HAL_OK)
 133:Core/Src/i2c.c ****     {
 134:Core/Src/i2c.c ****       Error_Handler();
 135:Core/Src/i2c.c ****     }
 136:Core/Src/i2c.c **** 
 137:Core/Src/i2c.c ****     __HAL_RCC_GPIOA_CLK_ENABLE();
 138:Core/Src/i2c.c ****     __HAL_RCC_GPIOB_CLK_ENABLE();
 139:Core/Src/i2c.c ****     /**I2C1 GPIO Configuration
 140:Core/Src/i2c.c ****     PA15     ------> I2C1_SCL
 141:Core/Src/i2c.c ****     PB7     ------> I2C1_SDA
 142:Core/Src/i2c.c ****     */
 143:Core/Src/i2c.c ****     GPIO_InitStruct.Pin = GPIO_PIN_15;
 144:Core/Src/i2c.c ****     GPIO_InitStruct.Mode = GPIO_MODE_AF_OD;
 145:Core/Src/i2c.c ****     GPIO_InitStruct.Pull = GPIO_NOPULL;
 146:Core/Src/i2c.c ****     GPIO_InitStruct.Speed = GPIO_SPEED_FREQ_LOW;
 147:Core/Src/i2c.c ****     GPIO_InitStruct.Alternate = GPIO_AF4_I2C1;
 148:Core/Src/i2c.c ****     HAL_GPIO_Init(GPIOA, &GPIO_InitStruct);
 149:Core/Src/i2c.c **** 
 150:Core/Src/i2c.c ****     GPIO_InitStruct.Pin = GPIO_PIN_7;
 151:Core/Src/i2c.c ****     GPIO_InitStruct.Mode = GPIO_MODE_AF_OD;
 152:Core/Src/i2c.c ****     GPIO_InitStruct.Pull = GPIO_NOPULL;
 153:Core/Src/i2c.c ****     GPIO_InitStruct.Speed = GPIO_SPEED_FREQ_LOW;
 154:Core/Src/i2c.c ****     GPIO_InitStruct.Alternate = GPIO_AF4_I2C1;
 155:Core/Src/i2c.c ****     HAL_GPIO_Init(GPIOB, &GPIO_InitStruct);
 156:Core/Src/i2c.c **** 
 157:Core/Src/i2c.c ****     /* I2C1 clock enable */
 158:Core/Src/i2c.c ****     __HAL_RCC_I2C1_CLK_ENABLE();
 159:Core/Src/i2c.c ****   /* USER CODE BEGIN I2C1_MspInit 1 */
 160:Core/Src/i2c.c **** 
 161:Core/Src/i2c.c ****   /* USER CODE END I2C1_MspInit 1 */
 162:Core/Src/i2c.c ****   }
 163:Core/Src/i2c.c ****   else if(i2cHandle->Instance==I2C2)
 276              		.loc 1 163 8 is_stmt 1 view .LVU76
 277              		.loc 1 163 10 is_stmt 0 view .LVU77
 278 0022 3A4A     		ldr	r2, .L31+4
 279 0024 9342     		cmp	r3, r2
 280 0026 41D0     		beq	.L28
 281              	.LVL15:
 282              	.L21:
 164:Core/Src/i2c.c ****   {
 165:Core/Src/i2c.c ****   /* USER CODE BEGIN I2C2_MspInit 0 */
 166:Core/Src/i2c.c **** 
 167:Core/Src/i2c.c ****   /* USER CODE END I2C2_MspInit 0 */
 168:Core/Src/i2c.c **** 
 169:Core/Src/i2c.c ****   /** Initializes the peripherals clocks
 170:Core/Src/i2c.c ****   */
 171:Core/Src/i2c.c ****     PeriphClkInit.PeriphClockSelection = RCC_PERIPHCLK_I2C2;
 172:Core/Src/i2c.c ****     PeriphClkInit.I2c2ClockSelection = RCC_I2C2CLKSOURCE_PCLK1;
 173:Core/Src/i2c.c ****     if (HAL_RCCEx_PeriphCLKConfig(&PeriphClkInit) != HAL_OK)
ARM GAS  /tmp/ccGBJuYA.s 			page 9


 174:Core/Src/i2c.c ****     {
 175:Core/Src/i2c.c ****       Error_Handler();
 176:Core/Src/i2c.c ****     }
 177:Core/Src/i2c.c **** 
 178:Core/Src/i2c.c ****     __HAL_RCC_GPIOA_CLK_ENABLE();
 179:Core/Src/i2c.c ****     /**I2C2 GPIO Configuration
 180:Core/Src/i2c.c ****     PA8     ------> I2C2_SDA
 181:Core/Src/i2c.c ****     PA9     ------> I2C2_SCL
 182:Core/Src/i2c.c ****     */
 183:Core/Src/i2c.c ****     GPIO_InitStruct.Pin = GPIO_PIN_8|GPIO_PIN_9;
 184:Core/Src/i2c.c ****     GPIO_InitStruct.Mode = GPIO_MODE_AF_OD;
 185:Core/Src/i2c.c ****     GPIO_InitStruct.Pull = GPIO_PULLUP;
 186:Core/Src/i2c.c ****     GPIO_InitStruct.Speed = GPIO_SPEED_FREQ_LOW;
 187:Core/Src/i2c.c ****     GPIO_InitStruct.Alternate = GPIO_AF4_I2C2;
 188:Core/Src/i2c.c ****     HAL_GPIO_Init(GPIOA, &GPIO_InitStruct);
 189:Core/Src/i2c.c **** 
 190:Core/Src/i2c.c ****     /* I2C2 clock enable */
 191:Core/Src/i2c.c ****     __HAL_RCC_I2C2_CLK_ENABLE();
 192:Core/Src/i2c.c ****   /* USER CODE BEGIN I2C2_MspInit 1 */
 193:Core/Src/i2c.c **** 
 194:Core/Src/i2c.c ****   /* USER CODE END I2C2_MspInit 1 */
 195:Core/Src/i2c.c ****   }
 196:Core/Src/i2c.c **** }
 283              		.loc 1 196 1 view .LVU78
 284 0028 21B0     		add	sp, sp, #132
 285              	.LCFI4:
 286              		.cfi_remember_state
 287              		.cfi_def_cfa_offset 20
 288              		@ sp needed
 289 002a F0BD     		pop	{r4, r5, r6, r7, pc}
 290              	.LVL16:
 291              	.L27:
 292              	.LCFI5:
 293              		.cfi_restore_state
 130:Core/Src/i2c.c ****     PeriphClkInit.I2c1ClockSelection = RCC_I2C1CLKSOURCE_PCLK1;
 294              		.loc 1 130 5 is_stmt 1 view .LVU79
 130:Core/Src/i2c.c ****     PeriphClkInit.I2c1ClockSelection = RCC_I2C1CLKSOURCE_PCLK1;
 295              		.loc 1 130 40 is_stmt 0 view .LVU80
 296 002c 4023     		movs	r3, #64
 297 002e 0693     		str	r3, [sp, #24]
 131:Core/Src/i2c.c ****     if (HAL_RCCEx_PeriphCLKConfig(&PeriphClkInit) != HAL_OK)
 298              		.loc 1 131 5 is_stmt 1 view .LVU81
 132:Core/Src/i2c.c ****     {
 299              		.loc 1 132 5 view .LVU82
 132:Core/Src/i2c.c ****     {
 300              		.loc 1 132 9 is_stmt 0 view .LVU83
 301 0030 06A8     		add	r0, sp, #24
 302 0032 FFF7FEFF 		bl	HAL_RCCEx_PeriphCLKConfig
 303              	.LVL17:
 132:Core/Src/i2c.c ****     {
 304              		.loc 1 132 8 view .LVU84
 305 0036 0028     		cmp	r0, #0
 306 0038 35D1     		bne	.L29
 307              	.L23:
 137:Core/Src/i2c.c ****     __HAL_RCC_GPIOB_CLK_ENABLE();
 308              		.loc 1 137 5 is_stmt 1 view .LVU85
 309              	.LBB2:
ARM GAS  /tmp/ccGBJuYA.s 			page 10


 137:Core/Src/i2c.c ****     __HAL_RCC_GPIOB_CLK_ENABLE();
 310              		.loc 1 137 5 view .LVU86
 137:Core/Src/i2c.c ****     __HAL_RCC_GPIOB_CLK_ENABLE();
 311              		.loc 1 137 5 view .LVU87
 312 003a 354C     		ldr	r4, .L31+8
 313              	.LVL18:
 137:Core/Src/i2c.c ****     __HAL_RCC_GPIOB_CLK_ENABLE();
 314              		.loc 1 137 5 is_stmt 0 view .LVU88
 315 003c E36C     		ldr	r3, [r4, #76]
 316 003e 43F00103 		orr	r3, r3, #1
 317 0042 E364     		str	r3, [r4, #76]
 137:Core/Src/i2c.c ****     __HAL_RCC_GPIOB_CLK_ENABLE();
 318              		.loc 1 137 5 is_stmt 1 view .LVU89
 319 0044 E36C     		ldr	r3, [r4, #76]
 320 0046 03F00103 		and	r3, r3, #1
 321 004a 0193     		str	r3, [sp, #4]
 137:Core/Src/i2c.c ****     __HAL_RCC_GPIOB_CLK_ENABLE();
 322              		.loc 1 137 5 view .LVU90
 323 004c 019B     		ldr	r3, [sp, #4]
 324              	.LBE2:
 137:Core/Src/i2c.c ****     __HAL_RCC_GPIOB_CLK_ENABLE();
 325              		.loc 1 137 5 view .LVU91
 138:Core/Src/i2c.c ****     /**I2C1 GPIO Configuration
 326              		.loc 1 138 5 view .LVU92
 327              	.LBB3:
 138:Core/Src/i2c.c ****     /**I2C1 GPIO Configuration
 328              		.loc 1 138 5 view .LVU93
 138:Core/Src/i2c.c ****     /**I2C1 GPIO Configuration
 329              		.loc 1 138 5 view .LVU94
 330 004e E36C     		ldr	r3, [r4, #76]
 331 0050 43F00203 		orr	r3, r3, #2
 332 0054 E364     		str	r3, [r4, #76]
 138:Core/Src/i2c.c ****     /**I2C1 GPIO Configuration
 333              		.loc 1 138 5 view .LVU95
 334 0056 E36C     		ldr	r3, [r4, #76]
 335 0058 03F00203 		and	r3, r3, #2
 336 005c 0293     		str	r3, [sp, #8]
 138:Core/Src/i2c.c ****     /**I2C1 GPIO Configuration
 337              		.loc 1 138 5 view .LVU96
 338 005e 029B     		ldr	r3, [sp, #8]
 339              	.LBE3:
 138:Core/Src/i2c.c ****     /**I2C1 GPIO Configuration
 340              		.loc 1 138 5 view .LVU97
 143:Core/Src/i2c.c ****     GPIO_InitStruct.Mode = GPIO_MODE_AF_OD;
 341              		.loc 1 143 5 view .LVU98
 143:Core/Src/i2c.c ****     GPIO_InitStruct.Mode = GPIO_MODE_AF_OD;
 342              		.loc 1 143 25 is_stmt 0 view .LVU99
 343 0060 4FF40043 		mov	r3, #32768
 344 0064 1B93     		str	r3, [sp, #108]
 144:Core/Src/i2c.c ****     GPIO_InitStruct.Pull = GPIO_NOPULL;
 345              		.loc 1 144 5 is_stmt 1 view .LVU100
 144:Core/Src/i2c.c ****     GPIO_InitStruct.Pull = GPIO_NOPULL;
 346              		.loc 1 144 26 is_stmt 0 view .LVU101
 347 0066 1227     		movs	r7, #18
 348 0068 1C97     		str	r7, [sp, #112]
 145:Core/Src/i2c.c ****     GPIO_InitStruct.Speed = GPIO_SPEED_FREQ_LOW;
 349              		.loc 1 145 5 is_stmt 1 view .LVU102
ARM GAS  /tmp/ccGBJuYA.s 			page 11


 145:Core/Src/i2c.c ****     GPIO_InitStruct.Speed = GPIO_SPEED_FREQ_LOW;
 350              		.loc 1 145 26 is_stmt 0 view .LVU103
 351 006a 0025     		movs	r5, #0
 352 006c 1D95     		str	r5, [sp, #116]
 146:Core/Src/i2c.c ****     GPIO_InitStruct.Alternate = GPIO_AF4_I2C1;
 353              		.loc 1 146 5 is_stmt 1 view .LVU104
 146:Core/Src/i2c.c ****     GPIO_InitStruct.Alternate = GPIO_AF4_I2C1;
 354              		.loc 1 146 27 is_stmt 0 view .LVU105
 355 006e 1E95     		str	r5, [sp, #120]
 147:Core/Src/i2c.c ****     HAL_GPIO_Init(GPIOA, &GPIO_InitStruct);
 356              		.loc 1 147 5 is_stmt 1 view .LVU106
 147:Core/Src/i2c.c ****     HAL_GPIO_Init(GPIOA, &GPIO_InitStruct);
 357              		.loc 1 147 31 is_stmt 0 view .LVU107
 358 0070 0426     		movs	r6, #4
 359 0072 1F96     		str	r6, [sp, #124]
 148:Core/Src/i2c.c **** 
 360              		.loc 1 148 5 is_stmt 1 view .LVU108
 361 0074 1BA9     		add	r1, sp, #108
 362 0076 4FF09040 		mov	r0, #1207959552
 363 007a FFF7FEFF 		bl	HAL_GPIO_Init
 364              	.LVL19:
 150:Core/Src/i2c.c ****     GPIO_InitStruct.Mode = GPIO_MODE_AF_OD;
 365              		.loc 1 150 5 view .LVU109
 150:Core/Src/i2c.c ****     GPIO_InitStruct.Mode = GPIO_MODE_AF_OD;
 366              		.loc 1 150 25 is_stmt 0 view .LVU110
 367 007e 8023     		movs	r3, #128
 368 0080 1B93     		str	r3, [sp, #108]
 151:Core/Src/i2c.c ****     GPIO_InitStruct.Pull = GPIO_NOPULL;
 369              		.loc 1 151 5 is_stmt 1 view .LVU111
 151:Core/Src/i2c.c ****     GPIO_InitStruct.Pull = GPIO_NOPULL;
 370              		.loc 1 151 26 is_stmt 0 view .LVU112
 371 0082 1C97     		str	r7, [sp, #112]
 152:Core/Src/i2c.c ****     GPIO_InitStruct.Speed = GPIO_SPEED_FREQ_LOW;
 372              		.loc 1 152 5 is_stmt 1 view .LVU113
 152:Core/Src/i2c.c ****     GPIO_InitStruct.Speed = GPIO_SPEED_FREQ_LOW;
 373              		.loc 1 152 26 is_stmt 0 view .LVU114
 374 0084 1D95     		str	r5, [sp, #116]
 153:Core/Src/i2c.c ****     GPIO_InitStruct.Alternate = GPIO_AF4_I2C1;
 375              		.loc 1 153 5 is_stmt 1 view .LVU115
 153:Core/Src/i2c.c ****     GPIO_InitStruct.Alternate = GPIO_AF4_I2C1;
 376              		.loc 1 153 27 is_stmt 0 view .LVU116
 377 0086 1E95     		str	r5, [sp, #120]
 154:Core/Src/i2c.c ****     HAL_GPIO_Init(GPIOB, &GPIO_InitStruct);
 378              		.loc 1 154 5 is_stmt 1 view .LVU117
 154:Core/Src/i2c.c ****     HAL_GPIO_Init(GPIOB, &GPIO_InitStruct);
 379              		.loc 1 154 31 is_stmt 0 view .LVU118
 380 0088 1F96     		str	r6, [sp, #124]
 155:Core/Src/i2c.c **** 
 381              		.loc 1 155 5 is_stmt 1 view .LVU119
 382 008a 1BA9     		add	r1, sp, #108
 383 008c 2148     		ldr	r0, .L31+12
 384 008e FFF7FEFF 		bl	HAL_GPIO_Init
 385              	.LVL20:
 158:Core/Src/i2c.c ****   /* USER CODE BEGIN I2C1_MspInit 1 */
 386              		.loc 1 158 5 view .LVU120
 387              	.LBB4:
 158:Core/Src/i2c.c ****   /* USER CODE BEGIN I2C1_MspInit 1 */
ARM GAS  /tmp/ccGBJuYA.s 			page 12


 388              		.loc 1 158 5 view .LVU121
 158:Core/Src/i2c.c ****   /* USER CODE BEGIN I2C1_MspInit 1 */
 389              		.loc 1 158 5 view .LVU122
 390 0092 A36D     		ldr	r3, [r4, #88]
 391 0094 43F40013 		orr	r3, r3, #2097152
 392 0098 A365     		str	r3, [r4, #88]
 158:Core/Src/i2c.c ****   /* USER CODE BEGIN I2C1_MspInit 1 */
 393              		.loc 1 158 5 view .LVU123
 394 009a A36D     		ldr	r3, [r4, #88]
 395 009c 03F40013 		and	r3, r3, #2097152
 396 00a0 0393     		str	r3, [sp, #12]
 158:Core/Src/i2c.c ****   /* USER CODE BEGIN I2C1_MspInit 1 */
 397              		.loc 1 158 5 view .LVU124
 398 00a2 039B     		ldr	r3, [sp, #12]
 399              	.LBE4:
 158:Core/Src/i2c.c ****   /* USER CODE BEGIN I2C1_MspInit 1 */
 400              		.loc 1 158 5 view .LVU125
 401 00a4 C0E7     		b	.L21
 402              	.LVL21:
 403              	.L29:
 134:Core/Src/i2c.c ****     }
 404              		.loc 1 134 7 view .LVU126
 405 00a6 FFF7FEFF 		bl	Error_Handler
 406              	.LVL22:
 407 00aa C6E7     		b	.L23
 408              	.L28:
 171:Core/Src/i2c.c ****     PeriphClkInit.I2c2ClockSelection = RCC_I2C2CLKSOURCE_PCLK1;
 409              		.loc 1 171 5 view .LVU127
 171:Core/Src/i2c.c ****     PeriphClkInit.I2c2ClockSelection = RCC_I2C2CLKSOURCE_PCLK1;
 410              		.loc 1 171 40 is_stmt 0 view .LVU128
 411 00ac 8023     		movs	r3, #128
 412 00ae 0693     		str	r3, [sp, #24]
 172:Core/Src/i2c.c ****     if (HAL_RCCEx_PeriphCLKConfig(&PeriphClkInit) != HAL_OK)
 413              		.loc 1 172 5 is_stmt 1 view .LVU129
 173:Core/Src/i2c.c ****     {
 414              		.loc 1 173 5 view .LVU130
 173:Core/Src/i2c.c ****     {
 415              		.loc 1 173 9 is_stmt 0 view .LVU131
 416 00b0 06A8     		add	r0, sp, #24
 417 00b2 FFF7FEFF 		bl	HAL_RCCEx_PeriphCLKConfig
 418              	.LVL23:
 173:Core/Src/i2c.c ****     {
 419              		.loc 1 173 8 view .LVU132
 420 00b6 18BB     		cbnz	r0, .L30
 421              	.L25:
 178:Core/Src/i2c.c ****     /**I2C2 GPIO Configuration
 422              		.loc 1 178 5 is_stmt 1 view .LVU133
 423              	.LBB5:
 178:Core/Src/i2c.c ****     /**I2C2 GPIO Configuration
 424              		.loc 1 178 5 view .LVU134
 178:Core/Src/i2c.c ****     /**I2C2 GPIO Configuration
 425              		.loc 1 178 5 view .LVU135
 426 00b8 154C     		ldr	r4, .L31+8
 427              	.LVL24:
 178:Core/Src/i2c.c ****     /**I2C2 GPIO Configuration
 428              		.loc 1 178 5 is_stmt 0 view .LVU136
 429 00ba E36C     		ldr	r3, [r4, #76]
ARM GAS  /tmp/ccGBJuYA.s 			page 13


 430 00bc 43F00103 		orr	r3, r3, #1
 431 00c0 E364     		str	r3, [r4, #76]
 178:Core/Src/i2c.c ****     /**I2C2 GPIO Configuration
 432              		.loc 1 178 5 is_stmt 1 view .LVU137
 433 00c2 E36C     		ldr	r3, [r4, #76]
 434 00c4 03F00103 		and	r3, r3, #1
 435 00c8 0493     		str	r3, [sp, #16]
 178:Core/Src/i2c.c ****     /**I2C2 GPIO Configuration
 436              		.loc 1 178 5 view .LVU138
 437 00ca 049B     		ldr	r3, [sp, #16]
 438              	.LBE5:
 178:Core/Src/i2c.c ****     /**I2C2 GPIO Configuration
 439              		.loc 1 178 5 view .LVU139
 183:Core/Src/i2c.c ****     GPIO_InitStruct.Mode = GPIO_MODE_AF_OD;
 440              		.loc 1 183 5 view .LVU140
 183:Core/Src/i2c.c ****     GPIO_InitStruct.Mode = GPIO_MODE_AF_OD;
 441              		.loc 1 183 25 is_stmt 0 view .LVU141
 442 00cc 4FF44073 		mov	r3, #768
 443 00d0 1B93     		str	r3, [sp, #108]
 184:Core/Src/i2c.c ****     GPIO_InitStruct.Pull = GPIO_PULLUP;
 444              		.loc 1 184 5 is_stmt 1 view .LVU142
 184:Core/Src/i2c.c ****     GPIO_InitStruct.Pull = GPIO_PULLUP;
 445              		.loc 1 184 26 is_stmt 0 view .LVU143
 446 00d2 1223     		movs	r3, #18
 447 00d4 1C93     		str	r3, [sp, #112]
 185:Core/Src/i2c.c ****     GPIO_InitStruct.Speed = GPIO_SPEED_FREQ_LOW;
 448              		.loc 1 185 5 is_stmt 1 view .LVU144
 185:Core/Src/i2c.c ****     GPIO_InitStruct.Speed = GPIO_SPEED_FREQ_LOW;
 449              		.loc 1 185 26 is_stmt 0 view .LVU145
 450 00d6 0123     		movs	r3, #1
 451 00d8 1D93     		str	r3, [sp, #116]
 186:Core/Src/i2c.c ****     GPIO_InitStruct.Alternate = GPIO_AF4_I2C2;
 452              		.loc 1 186 5 is_stmt 1 view .LVU146
 186:Core/Src/i2c.c ****     GPIO_InitStruct.Alternate = GPIO_AF4_I2C2;
 453              		.loc 1 186 27 is_stmt 0 view .LVU147
 454 00da 0023     		movs	r3, #0
 455 00dc 1E93     		str	r3, [sp, #120]
 187:Core/Src/i2c.c ****     HAL_GPIO_Init(GPIOA, &GPIO_InitStruct);
 456              		.loc 1 187 5 is_stmt 1 view .LVU148
 187:Core/Src/i2c.c ****     HAL_GPIO_Init(GPIOA, &GPIO_InitStruct);
 457              		.loc 1 187 31 is_stmt 0 view .LVU149
 458 00de 0423     		movs	r3, #4
 459 00e0 1F93     		str	r3, [sp, #124]
 188:Core/Src/i2c.c **** 
 460              		.loc 1 188 5 is_stmt 1 view .LVU150
 461 00e2 1BA9     		add	r1, sp, #108
 462 00e4 4FF09040 		mov	r0, #1207959552
 463 00e8 FFF7FEFF 		bl	HAL_GPIO_Init
 464              	.LVL25:
 191:Core/Src/i2c.c ****   /* USER CODE BEGIN I2C2_MspInit 1 */
 465              		.loc 1 191 5 view .LVU151
 466              	.LBB6:
 191:Core/Src/i2c.c ****   /* USER CODE BEGIN I2C2_MspInit 1 */
 467              		.loc 1 191 5 view .LVU152
 191:Core/Src/i2c.c ****   /* USER CODE BEGIN I2C2_MspInit 1 */
 468              		.loc 1 191 5 view .LVU153
 469 00ec A36D     		ldr	r3, [r4, #88]
ARM GAS  /tmp/ccGBJuYA.s 			page 14


 470 00ee 43F48003 		orr	r3, r3, #4194304
 471 00f2 A365     		str	r3, [r4, #88]
 191:Core/Src/i2c.c ****   /* USER CODE BEGIN I2C2_MspInit 1 */
 472              		.loc 1 191 5 view .LVU154
 473 00f4 A36D     		ldr	r3, [r4, #88]
 474 00f6 03F48003 		and	r3, r3, #4194304
 475 00fa 0593     		str	r3, [sp, #20]
 191:Core/Src/i2c.c ****   /* USER CODE BEGIN I2C2_MspInit 1 */
 476              		.loc 1 191 5 view .LVU155
 477 00fc 059B     		ldr	r3, [sp, #20]
 478              	.LBE6:
 191:Core/Src/i2c.c ****   /* USER CODE BEGIN I2C2_MspInit 1 */
 479              		.loc 1 191 5 view .LVU156
 480              		.loc 1 196 1 is_stmt 0 view .LVU157
 481 00fe 93E7     		b	.L21
 482              	.LVL26:
 483              	.L30:
 175:Core/Src/i2c.c ****     }
 484              		.loc 1 175 7 is_stmt 1 view .LVU158
 485 0100 FFF7FEFF 		bl	Error_Handler
 486              	.LVL27:
 487 0104 D8E7     		b	.L25
 488              	.L32:
 489 0106 00BF     		.align	2
 490              	.L31:
 491 0108 00540040 		.word	1073763328
 492 010c 00580040 		.word	1073764352
 493 0110 00100240 		.word	1073876992
 494 0114 00040048 		.word	1207960576
 495              		.cfi_endproc
 496              	.LFE1440:
 498              		.section	.text.HAL_I2C_MspDeInit,"ax",%progbits
 499              		.align	1
 500              		.global	HAL_I2C_MspDeInit
 501              		.syntax unified
 502              		.thumb
 503              		.thumb_func
 505              	HAL_I2C_MspDeInit:
 506              	.LVL28:
 507              	.LFB1441:
 197:Core/Src/i2c.c **** 
 198:Core/Src/i2c.c **** void HAL_I2C_MspDeInit(I2C_HandleTypeDef* i2cHandle)
 199:Core/Src/i2c.c **** {
 508              		.loc 1 199 1 view -0
 509              		.cfi_startproc
 510              		@ args = 0, pretend = 0, frame = 0
 511              		@ frame_needed = 0, uses_anonymous_args = 0
 512              		.loc 1 199 1 is_stmt 0 view .LVU160
 513 0000 08B5     		push	{r3, lr}
 514              	.LCFI6:
 515              		.cfi_def_cfa_offset 8
 516              		.cfi_offset 3, -8
 517              		.cfi_offset 14, -4
 200:Core/Src/i2c.c **** 
 201:Core/Src/i2c.c ****   if(i2cHandle->Instance==I2C1)
 518              		.loc 1 201 3 is_stmt 1 view .LVU161
 519              		.loc 1 201 15 is_stmt 0 view .LVU162
ARM GAS  /tmp/ccGBJuYA.s 			page 15


 520 0002 0368     		ldr	r3, [r0]
 521              		.loc 1 201 5 view .LVU163
 522 0004 154A     		ldr	r2, .L39
 523 0006 9342     		cmp	r3, r2
 524 0008 03D0     		beq	.L37
 202:Core/Src/i2c.c ****   {
 203:Core/Src/i2c.c ****   /* USER CODE BEGIN I2C1_MspDeInit 0 */
 204:Core/Src/i2c.c **** 
 205:Core/Src/i2c.c ****   /* USER CODE END I2C1_MspDeInit 0 */
 206:Core/Src/i2c.c ****     /* Peripheral clock disable */
 207:Core/Src/i2c.c ****     __HAL_RCC_I2C1_CLK_DISABLE();
 208:Core/Src/i2c.c **** 
 209:Core/Src/i2c.c ****     /**I2C1 GPIO Configuration
 210:Core/Src/i2c.c ****     PA15     ------> I2C1_SCL
 211:Core/Src/i2c.c ****     PB7     ------> I2C1_SDA
 212:Core/Src/i2c.c ****     */
 213:Core/Src/i2c.c ****     HAL_GPIO_DeInit(GPIOA, GPIO_PIN_15);
 214:Core/Src/i2c.c **** 
 215:Core/Src/i2c.c ****     HAL_GPIO_DeInit(GPIOB, GPIO_PIN_7);
 216:Core/Src/i2c.c **** 
 217:Core/Src/i2c.c ****   /* USER CODE BEGIN I2C1_MspDeInit 1 */
 218:Core/Src/i2c.c **** 
 219:Core/Src/i2c.c ****   /* USER CODE END I2C1_MspDeInit 1 */
 220:Core/Src/i2c.c ****   }
 221:Core/Src/i2c.c ****   else if(i2cHandle->Instance==I2C2)
 525              		.loc 1 221 8 is_stmt 1 view .LVU164
 526              		.loc 1 221 10 is_stmt 0 view .LVU165
 527 000a 154A     		ldr	r2, .L39+4
 528 000c 9342     		cmp	r3, r2
 529 000e 11D0     		beq	.L38
 530              	.LVL29:
 531              	.L33:
 222:Core/Src/i2c.c ****   {
 223:Core/Src/i2c.c ****   /* USER CODE BEGIN I2C2_MspDeInit 0 */
 224:Core/Src/i2c.c **** 
 225:Core/Src/i2c.c ****   /* USER CODE END I2C2_MspDeInit 0 */
 226:Core/Src/i2c.c ****     /* Peripheral clock disable */
 227:Core/Src/i2c.c ****     __HAL_RCC_I2C2_CLK_DISABLE();
 228:Core/Src/i2c.c **** 
 229:Core/Src/i2c.c ****     /**I2C2 GPIO Configuration
 230:Core/Src/i2c.c ****     PA8     ------> I2C2_SDA
 231:Core/Src/i2c.c ****     PA9     ------> I2C2_SCL
 232:Core/Src/i2c.c ****     */
 233:Core/Src/i2c.c ****     HAL_GPIO_DeInit(GPIOA, GPIO_PIN_8);
 234:Core/Src/i2c.c **** 
 235:Core/Src/i2c.c ****     HAL_GPIO_DeInit(GPIOA, GPIO_PIN_9);
 236:Core/Src/i2c.c **** 
 237:Core/Src/i2c.c ****   /* USER CODE BEGIN I2C2_MspDeInit 1 */
 238:Core/Src/i2c.c **** 
 239:Core/Src/i2c.c ****   /* USER CODE END I2C2_MspDeInit 1 */
 240:Core/Src/i2c.c ****   }
 241:Core/Src/i2c.c **** }
 532              		.loc 1 241 1 view .LVU166
 533 0010 08BD     		pop	{r3, pc}
 534              	.LVL30:
 535              	.L37:
 207:Core/Src/i2c.c **** 
ARM GAS  /tmp/ccGBJuYA.s 			page 16


 536              		.loc 1 207 5 is_stmt 1 view .LVU167
 537 0012 02F5DE32 		add	r2, r2, #113664
 538 0016 936D     		ldr	r3, [r2, #88]
 539 0018 23F40013 		bic	r3, r3, #2097152
 540 001c 9365     		str	r3, [r2, #88]
 213:Core/Src/i2c.c **** 
 541              		.loc 1 213 5 view .LVU168
 542 001e 4FF40041 		mov	r1, #32768
 543 0022 4FF09040 		mov	r0, #1207959552
 544              	.LVL31:
 213:Core/Src/i2c.c **** 
 545              		.loc 1 213 5 is_stmt 0 view .LVU169
 546 0026 FFF7FEFF 		bl	HAL_GPIO_DeInit
 547              	.LVL32:
 215:Core/Src/i2c.c **** 
 548              		.loc 1 215 5 is_stmt 1 view .LVU170
 549 002a 8021     		movs	r1, #128
 550 002c 0D48     		ldr	r0, .L39+8
 551 002e FFF7FEFF 		bl	HAL_GPIO_DeInit
 552              	.LVL33:
 553 0032 EDE7     		b	.L33
 554              	.LVL34:
 555              	.L38:
 227:Core/Src/i2c.c **** 
 556              		.loc 1 227 5 view .LVU171
 557 0034 02F5DC32 		add	r2, r2, #112640
 558 0038 936D     		ldr	r3, [r2, #88]
 559 003a 23F48003 		bic	r3, r3, #4194304
 560 003e 9365     		str	r3, [r2, #88]
 233:Core/Src/i2c.c **** 
 561              		.loc 1 233 5 view .LVU172
 562 0040 4FF48071 		mov	r1, #256
 563 0044 4FF09040 		mov	r0, #1207959552
 564              	.LVL35:
 233:Core/Src/i2c.c **** 
 565              		.loc 1 233 5 is_stmt 0 view .LVU173
 566 0048 FFF7FEFF 		bl	HAL_GPIO_DeInit
 567              	.LVL36:
 235:Core/Src/i2c.c **** 
 568              		.loc 1 235 5 is_stmt 1 view .LVU174
 569 004c 4FF40071 		mov	r1, #512
 570 0050 4FF09040 		mov	r0, #1207959552
 571 0054 FFF7FEFF 		bl	HAL_GPIO_DeInit
 572              	.LVL37:
 573              		.loc 1 241 1 is_stmt 0 view .LVU175
 574 0058 DAE7     		b	.L33
 575              	.L40:
 576 005a 00BF     		.align	2
 577              	.L39:
 578 005c 00540040 		.word	1073763328
 579 0060 00580040 		.word	1073764352
 580 0064 00040048 		.word	1207960576
 581              		.cfi_endproc
 582              	.LFE1441:
 584              		.global	hi2c2
 585              		.global	hi2c1
 586              		.section	.bss.hi2c1,"aw",%nobits
ARM GAS  /tmp/ccGBJuYA.s 			page 17


 587              		.align	2
 588              		.set	.LANCHOR0,. + 0
 591              	hi2c1:
 592 0000 00000000 		.space	76
 592      00000000 
 592      00000000 
 592      00000000 
 592      00000000 
 593              		.section	.bss.hi2c2,"aw",%nobits
 594              		.align	2
 595              		.set	.LANCHOR1,. + 0
 598              	hi2c2:
 599 0000 00000000 		.space	76
 599      00000000 
 599      00000000 
 599      00000000 
 599      00000000 
 600              		.text
 601              	.Letext0:
 602              		.file 2 "/usr/share/gcc-arm-none-eabi-10.3-2021.10/arm-none-eabi/include/machine/_default_types.h"
 603              		.file 3 "/usr/share/gcc-arm-none-eabi-10.3-2021.10/arm-none-eabi/include/sys/_stdint.h"
 604              		.file 4 "Drivers/CMSIS/Device/ST/STM32G4xx/Include/stm32g474xx.h"
 605              		.file 5 "Drivers/STM32G4xx_HAL_Driver/Inc/stm32g4xx_hal_def.h"
 606              		.file 6 "Drivers/STM32G4xx_HAL_Driver/Inc/stm32g4xx_hal_rcc_ex.h"
 607              		.file 7 "Drivers/STM32G4xx_HAL_Driver/Inc/stm32g4xx_hal_gpio.h"
 608              		.file 8 "Drivers/STM32G4xx_HAL_Driver/Inc/stm32g4xx_hal_dma.h"
 609              		.file 9 "Drivers/STM32G4xx_HAL_Driver/Inc/stm32g4xx_hal_i2c.h"
 610              		.file 10 "Drivers/STM32G4xx_HAL_Driver/Inc/stm32g4xx_ll_tim.h"
 611              		.file 11 "Drivers/STM32G4xx_HAL_Driver/Inc/stm32g4xx_ll_usart.h"
 612              		.file 12 "Drivers/STM32G4xx_HAL_Driver/Inc/stm32g4xx_ll_dma.h"
 613              		.file 13 "Core/Inc/i2c.h"
 614              		.file 14 "Core/Inc/main.h"
 615              		.file 15 "Drivers/STM32G4xx_HAL_Driver/Inc/stm32g4xx_hal_i2c_ex.h"
 616              		.file 16 "<built-in>"
ARM GAS  /tmp/ccGBJuYA.s 			page 18

