ARM GAS  /tmp/ccY33PvM.s 			page 1


   1              		.cpu cortex-m4
   2              		.arch armv7e-m
   3              		.fpu fpv4-sp-d16
   4              		.eabi_attribute 27, 1
   5              		.eabi_attribute 28, 1
   6              		.eabi_attribute 20, 1
   7              		.eabi_attribute 21, 1
   8              		.eabi_attribute 23, 3
   9              		.eabi_attribute 24, 1
  10              		.eabi_attribute 25, 1
  11              		.eabi_attribute 26, 1
  12              		.eabi_attribute 30, 1
  13              		.eabi_attribute 34, 1
  14              		.eabi_attribute 18, 4
  15              		.file	"lcd_demo.c"
  16              		.text
  17              	.Ltext0:
  18              		.cfi_sections	.debug_frame
  19              		.section	.text.LCD_Intro_LogoSlide,"ax",%progbits
  20              		.align	1
  21              		.global	LCD_Intro_LogoSlide
  22              		.syntax unified
  23              		.thumb
  24              		.thumb_func
  26              	LCD_Intro_LogoSlide:
  27              	.LFB329:
  28              		.file 1 "Drivers/external/lcd_demo.c"
   1:Drivers/external/lcd_demo.c **** #include "lcd_demo.h"
   2:Drivers/external/lcd_demo.c **** 
   3:Drivers/external/lcd_demo.c **** /*!
   4:Drivers/external/lcd_demo.c ****  * @brief Prikaži in animiraj logotip `MIŠKO 3'
   5:Drivers/external/lcd_demo.c ****  *
   6:Drivers/external/lcd_demo.c ****  * Funkcija izriše logotip, vklopi LED diode, počaka 3 sekunde in izstopi.
   7:Drivers/external/lcd_demo.c ****  * @note Potrebujeta se datoteki `lcd_grafika.{c,h}'
   8:Drivers/external/lcd_demo.c ****  */
   9:Drivers/external/lcd_demo.c **** void LCD_Intro_LogoSlide()
  10:Drivers/external/lcd_demo.c **** {
  29              		.loc 1 10 1 view -0
  30              		.cfi_startproc
  31              		@ args = 0, pretend = 0, frame = 0
  32              		@ frame_needed = 0, uses_anonymous_args = 0
  33 0000 10B5     		push	{r4, lr}
  34              	.LCFI0:
  35              		.cfi_def_cfa_offset 8
  36              		.cfi_offset 4, -8
  37              		.cfi_offset 14, -4
  11:Drivers/external/lcd_demo.c ****     ILI9341_SetOrientation(ILI9341_MISKO_ROTATE_270); // Zaradi smeri izrisovanja
  38              		.loc 1 11 5 view .LVU1
  39 0002 0020     		movs	r0, #0
  40 0004 FFF7FEFF 		bl	ILI9341_SetOrientation
  41              	.LVL0:
  12:Drivers/external/lcd_demo.c ****     ILI9341_InvertDisplay(1);
  42              		.loc 1 12 5 view .LVU2
  43 0008 0120     		movs	r0, #1
  44 000a FFF7FEFF 		bl	ILI9341_InvertDisplay
  45              	.LVL1:
  13:Drivers/external/lcd_demo.c ****     ILI9341_SetDisplayWindow(80, 80, LOGO_X, LOGO_Y);
ARM GAS  /tmp/ccY33PvM.s 			page 2


  46              		.loc 1 13 5 view .LVU3
  47 000e 9E23     		movs	r3, #158
  48 0010 4922     		movs	r2, #73
  49 0012 5021     		movs	r1, #80
  50 0014 0846     		mov	r0, r1
  51 0016 FFF7FEFF 		bl	ILI9341_SetDisplayWindow
  52              	.LVL2:
  14:Drivers/external/lcd_demo.c **** 
  15:Drivers/external/lcd_demo.c ****     for (uint32_t i = 0; i < LOGO_SIZE; i += 2) {
  53              		.loc 1 15 5 view .LVU4
  54              	.LBB2:
  55              		.loc 1 15 10 view .LVU5
  56              		.loc 1 15 19 is_stmt 0 view .LVU6
  57 001a 0024     		movs	r4, #0
  58              		.loc 1 15 5 view .LVU7
  59 001c 00E0     		b	.L2
  60              	.LVL3:
  61              	.L3:
  62              		.loc 1 15 41 is_stmt 1 discriminator 2 view .LVU8
  63              		.loc 1 15 43 is_stmt 0 discriminator 2 view .LVU9
  64 001e 0234     		adds	r4, r4, #2
  65              	.LVL4:
  66              	.L2:
  67              		.loc 1 15 26 is_stmt 1 discriminator 1 view .LVU10
  68              		.loc 1 15 5 is_stmt 0 discriminator 1 view .LVU11
  69 0020 45F61B23 		movw	r3, #23067
  70 0024 9C42     		cmp	r4, r3
  71 0026 12D8     		bhi	.L6
  16:Drivers/external/lcd_demo.c ****         ILI9341_SendData((LCD_IO_Data_t *)&img_logotip[i], 1);
  72              		.loc 1 16 9 is_stmt 1 view .LVU12
  73 0028 0121     		movs	r1, #1
  74 002a 0C48     		ldr	r0, .L7
  75 002c 2044     		add	r0, r0, r4
  76 002e FFF7FEFF 		bl	ILI9341_SendData
  77              	.LVL5:
  17:Drivers/external/lcd_demo.c **** 
  18:Drivers/external/lcd_demo.c ****         if (i % (LOGO_Y * 2) == 0)
  78              		.loc 1 18 9 view .LVU13
  79              		.loc 1 18 15 is_stmt 0 view .LVU14
  80 0032 0B4B     		ldr	r3, .L7+4
  81 0034 A3FB0423 		umull	r2, r3, r3, r4
  82 0038 1B0A     		lsrs	r3, r3, #8
  83 003a 4FF49E72 		mov	r2, #316
  84 003e 02FB1343 		mls	r3, r2, r3, r4
  85              		.loc 1 18 12 view .LVU15
  86 0042 002B     		cmp	r3, #0
  87 0044 EBD1     		bne	.L3
  19:Drivers/external/lcd_demo.c ****             HAL_Delay(20);
  88              		.loc 1 19 13 is_stmt 1 view .LVU16
  89 0046 1420     		movs	r0, #20
  90 0048 FFF7FEFF 		bl	HAL_Delay
  91              	.LVL6:
  92 004c E7E7     		b	.L3
  93              	.L6:
  94              	.LBE2:
  20:Drivers/external/lcd_demo.c ****     }
  21:Drivers/external/lcd_demo.c ****     ILI9341_InvertDisplay(0);
ARM GAS  /tmp/ccY33PvM.s 			page 3


  95              		.loc 1 21 5 view .LVU17
  96 004e 0020     		movs	r0, #0
  97 0050 FFF7FEFF 		bl	ILI9341_InvertDisplay
  98              	.LVL7:
  22:Drivers/external/lcd_demo.c ****     ILI9341_SetOrientation(ILI9341_MISKO_ROTATE_0);
  99              		.loc 1 22 5 view .LVU18
 100 0054 0320     		movs	r0, #3
 101 0056 FFF7FEFF 		bl	ILI9341_SetOrientation
 102              	.LVL8:
  23:Drivers/external/lcd_demo.c **** }
 103              		.loc 1 23 1 is_stmt 0 view .LVU19
 104 005a 10BD     		pop	{r4, pc}
 105              	.LVL9:
 106              	.L8:
 107              		.loc 1 23 1 view .LVU20
 108              		.align	2
 109              	.L7:
 110 005c 00000000 		.word	img_logotip
 111 0060 A97464CF 		.word	-815500119
 112              		.cfi_endproc
 113              	.LFE329:
 115              		.section	.rodata.LCD_Intro_NoProgramHalt.str1.4,"aMS",%progbits,1
 116              		.align	2
 117              	.LC0:
 118 0000 4E692070 		.ascii	"Ni programa...\000"
 118      726F6772 
 118      616D612E 
 118      2E2E00
 119              		.section	.text.LCD_Intro_NoProgramHalt,"ax",%progbits
 120              		.align	1
 121              		.global	LCD_Intro_NoProgramHalt
 122              		.syntax unified
 123              		.thumb
 124              		.thumb_func
 126              	LCD_Intro_NoProgramHalt:
 127              	.LFB330:
  24:Drivers/external/lcd_demo.c **** 
  25:Drivers/external/lcd_demo.c **** /*!
  26:Drivers/external/lcd_demo.c ****  * @brief Izris grafike z napisom `Ni programa...'
  27:Drivers/external/lcd_demo.c ****  *
  28:Drivers/external/lcd_demo.c ****  * Funkcija, ki nadomesti pomanjkanje programa (vsaj glavna ideja je taka). Deluje v neskončni
  29:Drivers/external/lcd_demo.c ****  * zanki in nikoli ne izstopi.
  30:Drivers/external/lcd_demo.c ****  * @note Potrebujeta se datoteki `lcd_grafika.{c,h}'
  31:Drivers/external/lcd_demo.c ****  * @note Grafika zasede dobršen del pomnilnika!
  32:Drivers/external/lcd_demo.c ****  */
  33:Drivers/external/lcd_demo.c **** void LCD_Intro_NoProgramHalt()
  34:Drivers/external/lcd_demo.c **** {
 128              		.loc 1 34 1 is_stmt 1 view -0
 129              		.cfi_startproc
 130              		@ args = 0, pretend = 0, frame = 0
 131              		@ frame_needed = 0, uses_anonymous_args = 0
 132 0000 F0B5     		push	{r4, r5, r6, r7, lr}
 133              	.LCFI1:
 134              		.cfi_def_cfa_offset 20
 135              		.cfi_offset 4, -20
 136              		.cfi_offset 5, -16
 137              		.cfi_offset 6, -12
ARM GAS  /tmp/ccY33PvM.s 			page 4


 138              		.cfi_offset 7, -8
 139              		.cfi_offset 14, -4
 140 0002 83B0     		sub	sp, sp, #12
 141              	.LCFI2:
 142              		.cfi_def_cfa_offset 32
  35:Drivers/external/lcd_demo.c ****     uint16_t stevec = 0;
 143              		.loc 1 35 5 view .LVU22
 144              	.LVL10:
  36:Drivers/external/lcd_demo.c **** 
  37:Drivers/external/lcd_demo.c ****     UG_FillFrame(0, 0, 320, 240, C_WHITE);
 145              		.loc 1 37 5 view .LVU23
 146 0004 4FF6FF74 		movw	r4, #65535
 147 0008 0094     		str	r4, [sp]
 148 000a F023     		movs	r3, #240
 149 000c 4FF4A072 		mov	r2, #320
 150 0010 0021     		movs	r1, #0
 151 0012 0846     		mov	r0, r1
 152 0014 FFF7FEFF 		bl	UG_FillFrame
 153              	.LVL11:
  38:Drivers/external/lcd_demo.c ****     UG_FontSelect(&FONT_12X16);
 154              		.loc 1 38 5 view .LVU24
 155 0018 8648     		ldr	r0, .L18
 156 001a FFF7FEFF 		bl	UG_FontSelect
 157              	.LVL12:
  39:Drivers/external/lcd_demo.c ****     UG_SetBackcolor(C_WHITE);
 158              		.loc 1 39 5 view .LVU25
 159 001e 2046     		mov	r0, r4
 160 0020 FFF7FEFF 		bl	UG_SetBackcolor
 161              	.LVL13:
  40:Drivers/external/lcd_demo.c ****     ILI9341_SetDisplayWindow(2, 20, AMIGA_X, AMIGA_Y);
 162              		.loc 1 40 5 view .LVU26
 163 0024 C823     		movs	r3, #200
 164 0026 1A46     		mov	r2, r3
 165 0028 1421     		movs	r1, #20
 166 002a 0220     		movs	r0, #2
 167 002c FFF7FEFF 		bl	ILI9341_SetDisplayWindow
 168              	.LVL14:
  41:Drivers/external/lcd_demo.c **** 
  42:Drivers/external/lcd_demo.c ****     ILI9341_SendData((LCD_IO_Data_t *)&img_ni_programa, AMIGA_SIZE);
 169              		.loc 1 42 5 view .LVU27
 170 0030 49F64041 		movw	r1, #40000
 171 0034 8048     		ldr	r0, .L18+4
 172 0036 FFF7FEFF 		bl	ILI9341_SendData
 173              	.LVL15:
  43:Drivers/external/lcd_demo.c **** 
  44:Drivers/external/lcd_demo.c ****     for (uint8_t casovnik = 0; casovnik < 15; casovnik++) {
 174              		.loc 1 44 5 view .LVU28
 175              	.LBB3:
 176              		.loc 1 44 10 view .LVU29
 177              		.loc 1 44 18 is_stmt 0 view .LVU30
 178 003a 0024     		movs	r4, #0
 179              		.loc 1 44 5 view .LVU31
 180 003c 1CE0     		b	.L10
 181              	.LVL16:
 182              	.L11:
  45:Drivers/external/lcd_demo.c ****         UG_SetForecolor(C_DIM_GRAY);
 183              		.loc 1 45 9 is_stmt 1 discriminator 3 view .LVU32
ARM GAS  /tmp/ccY33PvM.s 			page 5


 184 003e 46F64D30 		movw	r0, #27469
 185 0042 FFF7FEFF 		bl	UG_SetForecolor
 186              	.LVL17:
  46:Drivers/external/lcd_demo.c ****         UG_PutString(120, 180, "Ni programa...");
 187              		.loc 1 46 9 discriminator 3 view .LVU33
 188 0046 7D4D     		ldr	r5, .L18+8
 189 0048 2A46     		mov	r2, r5
 190 004a B421     		movs	r1, #180
 191 004c 7820     		movs	r0, #120
 192 004e FFF7FEFF 		bl	UG_PutString
 193              	.LVL18:
  47:Drivers/external/lcd_demo.c ****         HAL_Delay(1000);
 194              		.loc 1 47 9 discriminator 3 view .LVU34
 195 0052 4FF47A70 		mov	r0, #1000
 196 0056 FFF7FEFF 		bl	HAL_Delay
 197              	.LVL19:
  48:Drivers/external/lcd_demo.c ****         UG_SetForecolor(C_MAROON);
 198              		.loc 1 48 9 discriminator 3 view .LVU35
 199 005a 4FF40040 		mov	r0, #32768
 200 005e FFF7FEFF 		bl	UG_SetForecolor
 201              	.LVL20:
  49:Drivers/external/lcd_demo.c ****         UG_PutString(120, 180, "Ni programa...");
 202              		.loc 1 49 9 discriminator 3 view .LVU36
 203 0062 2A46     		mov	r2, r5
 204 0064 B421     		movs	r1, #180
 205 0066 7820     		movs	r0, #120
 206 0068 FFF7FEFF 		bl	UG_PutString
 207              	.LVL21:
  50:Drivers/external/lcd_demo.c ****         HAL_Delay(1000);
 208              		.loc 1 50 9 discriminator 3 view .LVU37
 209 006c 4FF47A70 		mov	r0, #1000
 210 0070 FFF7FEFF 		bl	HAL_Delay
 211              	.LVL22:
  44:Drivers/external/lcd_demo.c ****         UG_SetForecolor(C_DIM_GRAY);
 212              		.loc 1 44 47 discriminator 3 view .LVU38
  44:Drivers/external/lcd_demo.c ****         UG_SetForecolor(C_DIM_GRAY);
 213              		.loc 1 44 55 is_stmt 0 discriminator 3 view .LVU39
 214 0074 0134     		adds	r4, r4, #1
 215              	.LVL23:
  44:Drivers/external/lcd_demo.c ****         UG_SetForecolor(C_DIM_GRAY);
 216              		.loc 1 44 55 discriminator 3 view .LVU40
 217 0076 E4B2     		uxtb	r4, r4
 218              	.LVL24:
 219              	.L10:
  44:Drivers/external/lcd_demo.c ****         UG_SetForecolor(C_DIM_GRAY);
 220              		.loc 1 44 32 is_stmt 1 discriminator 1 view .LVU41
  44:Drivers/external/lcd_demo.c ****         UG_SetForecolor(C_DIM_GRAY);
 221              		.loc 1 44 5 is_stmt 0 discriminator 1 view .LVU42
 222 0078 0E2C     		cmp	r4, #14
 223 007a E0D9     		bls	.L11
 224              	.LBE3:
  35:Drivers/external/lcd_demo.c **** 
 225              		.loc 1 35 14 view .LVU43
 226 007c 0024     		movs	r4, #0
 227              	.LVL25:
  35:Drivers/external/lcd_demo.c **** 
 228              		.loc 1 35 14 view .LVU44
ARM GAS  /tmp/ccY33PvM.s 			page 6


 229 007e 00E0     		b	.L12
 230              	.LVL26:
 231              	.L17:
  51:Drivers/external/lcd_demo.c ****     }
  52:Drivers/external/lcd_demo.c **** 
  53:Drivers/external/lcd_demo.c ****     for (;;) {
  54:Drivers/external/lcd_demo.c ****         UG_SetForecolor(C_DIM_GRAY);
  55:Drivers/external/lcd_demo.c ****         UG_PutString(120, 180, "Ni programa...");
  56:Drivers/external/lcd_demo.c ****         HAL_Delay(100); ILI9341_ScrollScreen(stevec++, SCROLL_LEFT);
  57:Drivers/external/lcd_demo.c ****         HAL_Delay(100); ILI9341_ScrollScreen(stevec++, SCROLL_LEFT);
  58:Drivers/external/lcd_demo.c ****         HAL_Delay(100); ILI9341_ScrollScreen(stevec++, SCROLL_LEFT);
  59:Drivers/external/lcd_demo.c ****         HAL_Delay(100); ILI9341_ScrollScreen(stevec++, SCROLL_LEFT);
  60:Drivers/external/lcd_demo.c ****         HAL_Delay(100); ILI9341_ScrollScreen(stevec++, SCROLL_LEFT);
  61:Drivers/external/lcd_demo.c ****         HAL_Delay(100); ILI9341_ScrollScreen(stevec++, SCROLL_LEFT);
  62:Drivers/external/lcd_demo.c ****         HAL_Delay(100); ILI9341_ScrollScreen(stevec++, SCROLL_LEFT);
  63:Drivers/external/lcd_demo.c ****         HAL_Delay(100); ILI9341_ScrollScreen(stevec++, SCROLL_LEFT);
  64:Drivers/external/lcd_demo.c ****         HAL_Delay(100); ILI9341_ScrollScreen(stevec++, SCROLL_LEFT);
  65:Drivers/external/lcd_demo.c ****         HAL_Delay(100); ILI9341_ScrollScreen(stevec++, SCROLL_LEFT);
  66:Drivers/external/lcd_demo.c ****         UG_SetForecolor(C_MAROON);
  67:Drivers/external/lcd_demo.c ****         UG_PutString(120, 180, "Ni programa...");
  68:Drivers/external/lcd_demo.c ****         HAL_Delay(100); ILI9341_ScrollScreen(stevec++, SCROLL_LEFT);
  69:Drivers/external/lcd_demo.c ****         HAL_Delay(100); ILI9341_ScrollScreen(stevec++, SCROLL_LEFT);
  70:Drivers/external/lcd_demo.c ****         HAL_Delay(100); ILI9341_ScrollScreen(stevec++, SCROLL_LEFT);
  71:Drivers/external/lcd_demo.c ****         HAL_Delay(100); ILI9341_ScrollScreen(stevec++, SCROLL_LEFT);
  72:Drivers/external/lcd_demo.c ****         HAL_Delay(100); ILI9341_ScrollScreen(stevec++, SCROLL_LEFT);
  73:Drivers/external/lcd_demo.c ****         HAL_Delay(100); ILI9341_ScrollScreen(stevec++, SCROLL_LEFT);
  74:Drivers/external/lcd_demo.c ****         HAL_Delay(100); ILI9341_ScrollScreen(stevec++, SCROLL_LEFT);
  75:Drivers/external/lcd_demo.c ****         HAL_Delay(100); ILI9341_ScrollScreen(stevec++, SCROLL_LEFT);
  76:Drivers/external/lcd_demo.c ****         HAL_Delay(100); ILI9341_ScrollScreen(stevec++, SCROLL_LEFT);
  77:Drivers/external/lcd_demo.c ****         HAL_Delay(100); ILI9341_ScrollScreen(stevec++, SCROLL_LEFT);
  78:Drivers/external/lcd_demo.c ****         if(stevec == 320)
  79:Drivers/external/lcd_demo.c ****             stevec = 0;
 232              		.loc 1 79 20 view .LVU45
 233 0080 0024     		movs	r4, #0
 234              	.LVL27:
 235              	.L12:
  53:Drivers/external/lcd_demo.c ****         UG_SetForecolor(C_DIM_GRAY);
 236              		.loc 1 53 5 is_stmt 1 view .LVU46
  54:Drivers/external/lcd_demo.c ****         UG_PutString(120, 180, "Ni programa...");
 237              		.loc 1 54 9 view .LVU47
 238 0082 46F64D30 		movw	r0, #27469
 239 0086 FFF7FEFF 		bl	UG_SetForecolor
 240              	.LVL28:
  55:Drivers/external/lcd_demo.c ****         HAL_Delay(100); ILI9341_ScrollScreen(stevec++, SCROLL_LEFT);
 241              		.loc 1 55 9 view .LVU48
 242 008a 6C4F     		ldr	r7, .L18+8
 243 008c 3A46     		mov	r2, r7
 244 008e B421     		movs	r1, #180
 245 0090 7820     		movs	r0, #120
 246 0092 FFF7FEFF 		bl	UG_PutString
 247              	.LVL29:
  56:Drivers/external/lcd_demo.c ****         HAL_Delay(100); ILI9341_ScrollScreen(stevec++, SCROLL_LEFT);
 248              		.loc 1 56 9 view .LVU49
 249 0096 6420     		movs	r0, #100
 250 0098 FFF7FEFF 		bl	HAL_Delay
 251              	.LVL30:
  56:Drivers/external/lcd_demo.c ****         HAL_Delay(100); ILI9341_ScrollScreen(stevec++, SCROLL_LEFT);
ARM GAS  /tmp/ccY33PvM.s 			page 7


 252              		.loc 1 56 25 view .LVU50
 253 009c 651C     		adds	r5, r4, #1
 254 009e ADB2     		uxth	r5, r5
 255              	.LVL31:
  56:Drivers/external/lcd_demo.c ****         HAL_Delay(100); ILI9341_ScrollScreen(stevec++, SCROLL_LEFT);
 256              		.loc 1 56 25 is_stmt 0 view .LVU51
 257 00a0 0021     		movs	r1, #0
 258 00a2 2046     		mov	r0, r4
 259 00a4 FFF7FEFF 		bl	ILI9341_ScrollScreen
 260              	.LVL32:
  57:Drivers/external/lcd_demo.c ****         HAL_Delay(100); ILI9341_ScrollScreen(stevec++, SCROLL_LEFT);
 261              		.loc 1 57 9 is_stmt 1 view .LVU52
 262 00a8 6420     		movs	r0, #100
 263 00aa FFF7FEFF 		bl	HAL_Delay
 264              	.LVL33:
  57:Drivers/external/lcd_demo.c ****         HAL_Delay(100); ILI9341_ScrollScreen(stevec++, SCROLL_LEFT);
 265              		.loc 1 57 25 view .LVU53
 266 00ae A61C     		adds	r6, r4, #2
 267 00b0 B6B2     		uxth	r6, r6
 268              	.LVL34:
  57:Drivers/external/lcd_demo.c ****         HAL_Delay(100); ILI9341_ScrollScreen(stevec++, SCROLL_LEFT);
 269              		.loc 1 57 25 is_stmt 0 view .LVU54
 270 00b2 0021     		movs	r1, #0
 271 00b4 2846     		mov	r0, r5
 272 00b6 FFF7FEFF 		bl	ILI9341_ScrollScreen
 273              	.LVL35:
  58:Drivers/external/lcd_demo.c ****         HAL_Delay(100); ILI9341_ScrollScreen(stevec++, SCROLL_LEFT);
 274              		.loc 1 58 9 is_stmt 1 view .LVU55
 275 00ba 6420     		movs	r0, #100
 276 00bc FFF7FEFF 		bl	HAL_Delay
 277              	.LVL36:
  58:Drivers/external/lcd_demo.c ****         HAL_Delay(100); ILI9341_ScrollScreen(stevec++, SCROLL_LEFT);
 278              		.loc 1 58 25 view .LVU56
 279 00c0 E51C     		adds	r5, r4, #3
 280 00c2 ADB2     		uxth	r5, r5
 281              	.LVL37:
  58:Drivers/external/lcd_demo.c ****         HAL_Delay(100); ILI9341_ScrollScreen(stevec++, SCROLL_LEFT);
 282              		.loc 1 58 25 is_stmt 0 view .LVU57
 283 00c4 0021     		movs	r1, #0
 284 00c6 3046     		mov	r0, r6
 285 00c8 FFF7FEFF 		bl	ILI9341_ScrollScreen
 286              	.LVL38:
  59:Drivers/external/lcd_demo.c ****         HAL_Delay(100); ILI9341_ScrollScreen(stevec++, SCROLL_LEFT);
 287              		.loc 1 59 9 is_stmt 1 view .LVU58
 288 00cc 6420     		movs	r0, #100
 289 00ce FFF7FEFF 		bl	HAL_Delay
 290              	.LVL39:
  59:Drivers/external/lcd_demo.c ****         HAL_Delay(100); ILI9341_ScrollScreen(stevec++, SCROLL_LEFT);
 291              		.loc 1 59 25 view .LVU59
 292 00d2 261D     		adds	r6, r4, #4
 293 00d4 B6B2     		uxth	r6, r6
 294              	.LVL40:
  59:Drivers/external/lcd_demo.c ****         HAL_Delay(100); ILI9341_ScrollScreen(stevec++, SCROLL_LEFT);
 295              		.loc 1 59 25 is_stmt 0 view .LVU60
 296 00d6 0021     		movs	r1, #0
 297 00d8 2846     		mov	r0, r5
 298 00da FFF7FEFF 		bl	ILI9341_ScrollScreen
ARM GAS  /tmp/ccY33PvM.s 			page 8


 299              	.LVL41:
  60:Drivers/external/lcd_demo.c ****         HAL_Delay(100); ILI9341_ScrollScreen(stevec++, SCROLL_LEFT);
 300              		.loc 1 60 9 is_stmt 1 view .LVU61
 301 00de 6420     		movs	r0, #100
 302 00e0 FFF7FEFF 		bl	HAL_Delay
 303              	.LVL42:
  60:Drivers/external/lcd_demo.c ****         HAL_Delay(100); ILI9341_ScrollScreen(stevec++, SCROLL_LEFT);
 304              		.loc 1 60 25 view .LVU62
 305 00e4 651D     		adds	r5, r4, #5
 306 00e6 ADB2     		uxth	r5, r5
 307              	.LVL43:
  60:Drivers/external/lcd_demo.c ****         HAL_Delay(100); ILI9341_ScrollScreen(stevec++, SCROLL_LEFT);
 308              		.loc 1 60 25 is_stmt 0 view .LVU63
 309 00e8 0021     		movs	r1, #0
 310 00ea 3046     		mov	r0, r6
 311 00ec FFF7FEFF 		bl	ILI9341_ScrollScreen
 312              	.LVL44:
  61:Drivers/external/lcd_demo.c ****         HAL_Delay(100); ILI9341_ScrollScreen(stevec++, SCROLL_LEFT);
 313              		.loc 1 61 9 is_stmt 1 view .LVU64
 314 00f0 6420     		movs	r0, #100
 315 00f2 FFF7FEFF 		bl	HAL_Delay
 316              	.LVL45:
  61:Drivers/external/lcd_demo.c ****         HAL_Delay(100); ILI9341_ScrollScreen(stevec++, SCROLL_LEFT);
 317              		.loc 1 61 25 view .LVU65
 318 00f6 A61D     		adds	r6, r4, #6
 319 00f8 B6B2     		uxth	r6, r6
 320              	.LVL46:
  61:Drivers/external/lcd_demo.c ****         HAL_Delay(100); ILI9341_ScrollScreen(stevec++, SCROLL_LEFT);
 321              		.loc 1 61 25 is_stmt 0 view .LVU66
 322 00fa 0021     		movs	r1, #0
 323 00fc 2846     		mov	r0, r5
 324 00fe FFF7FEFF 		bl	ILI9341_ScrollScreen
 325              	.LVL47:
  62:Drivers/external/lcd_demo.c ****         HAL_Delay(100); ILI9341_ScrollScreen(stevec++, SCROLL_LEFT);
 326              		.loc 1 62 9 is_stmt 1 view .LVU67
 327 0102 6420     		movs	r0, #100
 328 0104 FFF7FEFF 		bl	HAL_Delay
 329              	.LVL48:
  62:Drivers/external/lcd_demo.c ****         HAL_Delay(100); ILI9341_ScrollScreen(stevec++, SCROLL_LEFT);
 330              		.loc 1 62 25 view .LVU68
 331 0108 E51D     		adds	r5, r4, #7
 332 010a ADB2     		uxth	r5, r5
 333              	.LVL49:
  62:Drivers/external/lcd_demo.c ****         HAL_Delay(100); ILI9341_ScrollScreen(stevec++, SCROLL_LEFT);
 334              		.loc 1 62 25 is_stmt 0 view .LVU69
 335 010c 0021     		movs	r1, #0
 336 010e 3046     		mov	r0, r6
 337 0110 FFF7FEFF 		bl	ILI9341_ScrollScreen
 338              	.LVL50:
  63:Drivers/external/lcd_demo.c ****         HAL_Delay(100); ILI9341_ScrollScreen(stevec++, SCROLL_LEFT);
 339              		.loc 1 63 9 is_stmt 1 view .LVU70
 340 0114 6420     		movs	r0, #100
 341 0116 FFF7FEFF 		bl	HAL_Delay
 342              	.LVL51:
  63:Drivers/external/lcd_demo.c ****         HAL_Delay(100); ILI9341_ScrollScreen(stevec++, SCROLL_LEFT);
 343              		.loc 1 63 25 view .LVU71
 344 011a 04F10806 		add	r6, r4, #8
ARM GAS  /tmp/ccY33PvM.s 			page 9


 345 011e B6B2     		uxth	r6, r6
 346              	.LVL52:
  63:Drivers/external/lcd_demo.c ****         HAL_Delay(100); ILI9341_ScrollScreen(stevec++, SCROLL_LEFT);
 347              		.loc 1 63 25 is_stmt 0 view .LVU72
 348 0120 0021     		movs	r1, #0
 349 0122 2846     		mov	r0, r5
 350 0124 FFF7FEFF 		bl	ILI9341_ScrollScreen
 351              	.LVL53:
  64:Drivers/external/lcd_demo.c ****         HAL_Delay(100); ILI9341_ScrollScreen(stevec++, SCROLL_LEFT);
 352              		.loc 1 64 9 is_stmt 1 view .LVU73
 353 0128 6420     		movs	r0, #100
 354 012a FFF7FEFF 		bl	HAL_Delay
 355              	.LVL54:
  64:Drivers/external/lcd_demo.c ****         HAL_Delay(100); ILI9341_ScrollScreen(stevec++, SCROLL_LEFT);
 356              		.loc 1 64 25 view .LVU74
 357 012e 04F10905 		add	r5, r4, #9
 358 0132 ADB2     		uxth	r5, r5
 359              	.LVL55:
  64:Drivers/external/lcd_demo.c ****         HAL_Delay(100); ILI9341_ScrollScreen(stevec++, SCROLL_LEFT);
 360              		.loc 1 64 25 is_stmt 0 view .LVU75
 361 0134 0021     		movs	r1, #0
 362 0136 3046     		mov	r0, r6
 363 0138 FFF7FEFF 		bl	ILI9341_ScrollScreen
 364              	.LVL56:
  65:Drivers/external/lcd_demo.c ****         UG_SetForecolor(C_MAROON);
 365              		.loc 1 65 9 is_stmt 1 view .LVU76
 366 013c 6420     		movs	r0, #100
 367 013e FFF7FEFF 		bl	HAL_Delay
 368              	.LVL57:
  65:Drivers/external/lcd_demo.c ****         UG_SetForecolor(C_MAROON);
 369              		.loc 1 65 25 view .LVU77
 370 0142 04F10A06 		add	r6, r4, #10
 371 0146 B6B2     		uxth	r6, r6
 372              	.LVL58:
  65:Drivers/external/lcd_demo.c ****         UG_SetForecolor(C_MAROON);
 373              		.loc 1 65 25 is_stmt 0 view .LVU78
 374 0148 0021     		movs	r1, #0
 375 014a 2846     		mov	r0, r5
 376 014c FFF7FEFF 		bl	ILI9341_ScrollScreen
 377              	.LVL59:
  66:Drivers/external/lcd_demo.c ****         UG_PutString(120, 180, "Ni programa...");
 378              		.loc 1 66 9 is_stmt 1 view .LVU79
 379 0150 4FF40040 		mov	r0, #32768
 380 0154 FFF7FEFF 		bl	UG_SetForecolor
 381              	.LVL60:
  67:Drivers/external/lcd_demo.c ****         HAL_Delay(100); ILI9341_ScrollScreen(stevec++, SCROLL_LEFT);
 382              		.loc 1 67 9 view .LVU80
 383 0158 3A46     		mov	r2, r7
 384 015a B421     		movs	r1, #180
 385 015c 7820     		movs	r0, #120
 386 015e FFF7FEFF 		bl	UG_PutString
 387              	.LVL61:
  68:Drivers/external/lcd_demo.c ****         HAL_Delay(100); ILI9341_ScrollScreen(stevec++, SCROLL_LEFT);
 388              		.loc 1 68 9 view .LVU81
 389 0162 6420     		movs	r0, #100
 390 0164 FFF7FEFF 		bl	HAL_Delay
 391              	.LVL62:
ARM GAS  /tmp/ccY33PvM.s 			page 10


  68:Drivers/external/lcd_demo.c ****         HAL_Delay(100); ILI9341_ScrollScreen(stevec++, SCROLL_LEFT);
 392              		.loc 1 68 25 view .LVU82
 393 0168 04F10B05 		add	r5, r4, #11
 394 016c ADB2     		uxth	r5, r5
 395              	.LVL63:
  68:Drivers/external/lcd_demo.c ****         HAL_Delay(100); ILI9341_ScrollScreen(stevec++, SCROLL_LEFT);
 396              		.loc 1 68 25 is_stmt 0 view .LVU83
 397 016e 0021     		movs	r1, #0
 398 0170 3046     		mov	r0, r6
 399 0172 FFF7FEFF 		bl	ILI9341_ScrollScreen
 400              	.LVL64:
  69:Drivers/external/lcd_demo.c ****         HAL_Delay(100); ILI9341_ScrollScreen(stevec++, SCROLL_LEFT);
 401              		.loc 1 69 9 is_stmt 1 view .LVU84
 402 0176 6420     		movs	r0, #100
 403 0178 FFF7FEFF 		bl	HAL_Delay
 404              	.LVL65:
  69:Drivers/external/lcd_demo.c ****         HAL_Delay(100); ILI9341_ScrollScreen(stevec++, SCROLL_LEFT);
 405              		.loc 1 69 25 view .LVU85
 406 017c 04F10C06 		add	r6, r4, #12
 407 0180 B6B2     		uxth	r6, r6
 408              	.LVL66:
  69:Drivers/external/lcd_demo.c ****         HAL_Delay(100); ILI9341_ScrollScreen(stevec++, SCROLL_LEFT);
 409              		.loc 1 69 25 is_stmt 0 view .LVU86
 410 0182 0021     		movs	r1, #0
 411 0184 2846     		mov	r0, r5
 412 0186 FFF7FEFF 		bl	ILI9341_ScrollScreen
 413              	.LVL67:
  70:Drivers/external/lcd_demo.c ****         HAL_Delay(100); ILI9341_ScrollScreen(stevec++, SCROLL_LEFT);
 414              		.loc 1 70 9 is_stmt 1 view .LVU87
 415 018a 6420     		movs	r0, #100
 416 018c FFF7FEFF 		bl	HAL_Delay
 417              	.LVL68:
  70:Drivers/external/lcd_demo.c ****         HAL_Delay(100); ILI9341_ScrollScreen(stevec++, SCROLL_LEFT);
 418              		.loc 1 70 25 view .LVU88
 419 0190 04F10D05 		add	r5, r4, #13
 420 0194 ADB2     		uxth	r5, r5
 421              	.LVL69:
  70:Drivers/external/lcd_demo.c ****         HAL_Delay(100); ILI9341_ScrollScreen(stevec++, SCROLL_LEFT);
 422              		.loc 1 70 25 is_stmt 0 view .LVU89
 423 0196 0021     		movs	r1, #0
 424 0198 3046     		mov	r0, r6
 425 019a FFF7FEFF 		bl	ILI9341_ScrollScreen
 426              	.LVL70:
  71:Drivers/external/lcd_demo.c ****         HAL_Delay(100); ILI9341_ScrollScreen(stevec++, SCROLL_LEFT);
 427              		.loc 1 71 9 is_stmt 1 view .LVU90
 428 019e 6420     		movs	r0, #100
 429 01a0 FFF7FEFF 		bl	HAL_Delay
 430              	.LVL71:
  71:Drivers/external/lcd_demo.c ****         HAL_Delay(100); ILI9341_ScrollScreen(stevec++, SCROLL_LEFT);
 431              		.loc 1 71 25 view .LVU91
 432 01a4 04F10E06 		add	r6, r4, #14
 433 01a8 B6B2     		uxth	r6, r6
 434              	.LVL72:
  71:Drivers/external/lcd_demo.c ****         HAL_Delay(100); ILI9341_ScrollScreen(stevec++, SCROLL_LEFT);
 435              		.loc 1 71 25 is_stmt 0 view .LVU92
 436 01aa 0021     		movs	r1, #0
 437 01ac 2846     		mov	r0, r5
ARM GAS  /tmp/ccY33PvM.s 			page 11


 438 01ae FFF7FEFF 		bl	ILI9341_ScrollScreen
 439              	.LVL73:
  72:Drivers/external/lcd_demo.c ****         HAL_Delay(100); ILI9341_ScrollScreen(stevec++, SCROLL_LEFT);
 440              		.loc 1 72 9 is_stmt 1 view .LVU93
 441 01b2 6420     		movs	r0, #100
 442 01b4 FFF7FEFF 		bl	HAL_Delay
 443              	.LVL74:
  72:Drivers/external/lcd_demo.c ****         HAL_Delay(100); ILI9341_ScrollScreen(stevec++, SCROLL_LEFT);
 444              		.loc 1 72 25 view .LVU94
 445 01b8 04F10F05 		add	r5, r4, #15
 446 01bc ADB2     		uxth	r5, r5
 447              	.LVL75:
  72:Drivers/external/lcd_demo.c ****         HAL_Delay(100); ILI9341_ScrollScreen(stevec++, SCROLL_LEFT);
 448              		.loc 1 72 25 is_stmt 0 view .LVU95
 449 01be 0021     		movs	r1, #0
 450 01c0 3046     		mov	r0, r6
 451 01c2 FFF7FEFF 		bl	ILI9341_ScrollScreen
 452              	.LVL76:
  73:Drivers/external/lcd_demo.c ****         HAL_Delay(100); ILI9341_ScrollScreen(stevec++, SCROLL_LEFT);
 453              		.loc 1 73 9 is_stmt 1 view .LVU96
 454 01c6 6420     		movs	r0, #100
 455 01c8 FFF7FEFF 		bl	HAL_Delay
 456              	.LVL77:
  73:Drivers/external/lcd_demo.c ****         HAL_Delay(100); ILI9341_ScrollScreen(stevec++, SCROLL_LEFT);
 457              		.loc 1 73 25 view .LVU97
 458 01cc 04F11006 		add	r6, r4, #16
 459 01d0 B6B2     		uxth	r6, r6
 460              	.LVL78:
  73:Drivers/external/lcd_demo.c ****         HAL_Delay(100); ILI9341_ScrollScreen(stevec++, SCROLL_LEFT);
 461              		.loc 1 73 25 is_stmt 0 view .LVU98
 462 01d2 0021     		movs	r1, #0
 463 01d4 2846     		mov	r0, r5
 464 01d6 FFF7FEFF 		bl	ILI9341_ScrollScreen
 465              	.LVL79:
  74:Drivers/external/lcd_demo.c ****         HAL_Delay(100); ILI9341_ScrollScreen(stevec++, SCROLL_LEFT);
 466              		.loc 1 74 9 is_stmt 1 view .LVU99
 467 01da 6420     		movs	r0, #100
 468 01dc FFF7FEFF 		bl	HAL_Delay
 469              	.LVL80:
  74:Drivers/external/lcd_demo.c ****         HAL_Delay(100); ILI9341_ScrollScreen(stevec++, SCROLL_LEFT);
 470              		.loc 1 74 25 view .LVU100
 471 01e0 04F11105 		add	r5, r4, #17
 472 01e4 ADB2     		uxth	r5, r5
 473              	.LVL81:
  74:Drivers/external/lcd_demo.c ****         HAL_Delay(100); ILI9341_ScrollScreen(stevec++, SCROLL_LEFT);
 474              		.loc 1 74 25 is_stmt 0 view .LVU101
 475 01e6 0021     		movs	r1, #0
 476 01e8 3046     		mov	r0, r6
 477 01ea FFF7FEFF 		bl	ILI9341_ScrollScreen
 478              	.LVL82:
  75:Drivers/external/lcd_demo.c ****         HAL_Delay(100); ILI9341_ScrollScreen(stevec++, SCROLL_LEFT);
 479              		.loc 1 75 9 is_stmt 1 view .LVU102
 480 01ee 6420     		movs	r0, #100
 481 01f0 FFF7FEFF 		bl	HAL_Delay
 482              	.LVL83:
  75:Drivers/external/lcd_demo.c ****         HAL_Delay(100); ILI9341_ScrollScreen(stevec++, SCROLL_LEFT);
 483              		.loc 1 75 25 view .LVU103
ARM GAS  /tmp/ccY33PvM.s 			page 12


 484 01f4 04F11206 		add	r6, r4, #18
 485 01f8 B6B2     		uxth	r6, r6
 486              	.LVL84:
  75:Drivers/external/lcd_demo.c ****         HAL_Delay(100); ILI9341_ScrollScreen(stevec++, SCROLL_LEFT);
 487              		.loc 1 75 25 is_stmt 0 view .LVU104
 488 01fa 0021     		movs	r1, #0
 489 01fc 2846     		mov	r0, r5
 490 01fe FFF7FEFF 		bl	ILI9341_ScrollScreen
 491              	.LVL85:
  76:Drivers/external/lcd_demo.c ****         HAL_Delay(100); ILI9341_ScrollScreen(stevec++, SCROLL_LEFT);
 492              		.loc 1 76 9 is_stmt 1 view .LVU105
 493 0202 6420     		movs	r0, #100
 494 0204 FFF7FEFF 		bl	HAL_Delay
 495              	.LVL86:
  76:Drivers/external/lcd_demo.c ****         HAL_Delay(100); ILI9341_ScrollScreen(stevec++, SCROLL_LEFT);
 496              		.loc 1 76 25 view .LVU106
 497 0208 04F11305 		add	r5, r4, #19
 498 020c ADB2     		uxth	r5, r5
 499              	.LVL87:
  76:Drivers/external/lcd_demo.c ****         HAL_Delay(100); ILI9341_ScrollScreen(stevec++, SCROLL_LEFT);
 500              		.loc 1 76 25 is_stmt 0 view .LVU107
 501 020e 0021     		movs	r1, #0
 502 0210 3046     		mov	r0, r6
 503 0212 FFF7FEFF 		bl	ILI9341_ScrollScreen
 504              	.LVL88:
  77:Drivers/external/lcd_demo.c ****         if(stevec == 320)
 505              		.loc 1 77 9 is_stmt 1 view .LVU108
 506 0216 6420     		movs	r0, #100
 507 0218 FFF7FEFF 		bl	HAL_Delay
 508              	.LVL89:
  77:Drivers/external/lcd_demo.c ****         if(stevec == 320)
 509              		.loc 1 77 25 view .LVU109
 510 021c 1434     		adds	r4, r4, #20
 511 021e A4B2     		uxth	r4, r4
 512              	.LVL90:
  77:Drivers/external/lcd_demo.c ****         if(stevec == 320)
 513              		.loc 1 77 25 is_stmt 0 view .LVU110
 514 0220 0021     		movs	r1, #0
 515 0222 2846     		mov	r0, r5
 516 0224 FFF7FEFF 		bl	ILI9341_ScrollScreen
 517              	.LVL91:
  78:Drivers/external/lcd_demo.c ****             stevec = 0;
 518              		.loc 1 78 9 is_stmt 1 view .LVU111
  78:Drivers/external/lcd_demo.c ****             stevec = 0;
 519              		.loc 1 78 11 is_stmt 0 view .LVU112
 520 0228 B4F5A07F 		cmp	r4, #320
 521 022c 7FF429AF 		bne	.L12
 522 0230 26E7     		b	.L17
 523              	.L19:
 524 0232 00BF     		.align	2
 525              	.L18:
 526 0234 00000000 		.word	FONT_12X16
 527 0238 00000000 		.word	img_ni_programa
 528 023c 00000000 		.word	.LC0
 529              		.cfi_endproc
 530              	.LFE330:
 532              		.text
ARM GAS  /tmp/ccY33PvM.s 			page 13


 533              	.Letext0:
 534              		.file 2 "/usr/share/gcc-arm-none-eabi-10.3-2021.10/arm-none-eabi/include/machine/_default_types.h"
 535              		.file 3 "/usr/share/gcc-arm-none-eabi-10.3-2021.10/arm-none-eabi/include/sys/_stdint.h"
 536              		.file 4 "Drivers/external/lcd_ili9341.h"
 537              		.file 5 "Drivers/external/ugui_config.h"
 538              		.file 6 "Drivers/external/ugui.h"
 539              		.file 7 "Drivers/external/lcd_grafika.h"
 540              		.file 8 "Drivers/STM32G4xx_HAL_Driver/Inc/stm32g4xx_hal.h"
ARM GAS  /tmp/ccY33PvM.s 			page 14

