ARM GAS  /tmp/cc4B6zn6.s 			page 1


   1              		.cpu cortex-m4
   2              		.arch armv7e-m
   3              		.fpu fpv4-sp-d16
   4              		.eabi_attribute 27, 1
   5              		.eabi_attribute 28, 1
   6              		.eabi_attribute 20, 1
   7              		.eabi_attribute 21, 1
   8              		.eabi_attribute 23, 3
   9              		.eabi_attribute 24, 1
  10              		.eabi_attribute 25, 1
  11              		.eabi_attribute 26, 1
  12              		.eabi_attribute 30, 1
  13              		.eabi_attribute 34, 1
  14              		.eabi_attribute 18, 4
  15              		.file	"stm32g4xx_hal_sram.c"
  16              		.text
  17              	.Ltext0:
  18              		.cfi_sections	.debug_frame
  19              		.section	.text.HAL_SRAM_MspInit,"ax",%progbits
  20              		.align	1
  21              		.weak	HAL_SRAM_MspInit
  22              		.syntax unified
  23              		.thumb
  24              		.thumb_func
  26              	HAL_SRAM_MspInit:
  27              	.LVL0:
  28              	.LFB331:
  29              		.file 1 "Drivers/STM32G4xx_HAL_Driver/Src/stm32g4xx_hal_sram.c"
   1:Drivers/STM32G4xx_HAL_Driver/Src/stm32g4xx_hal_sram.c **** /**
   2:Drivers/STM32G4xx_HAL_Driver/Src/stm32g4xx_hal_sram.c ****   ******************************************************************************
   3:Drivers/STM32G4xx_HAL_Driver/Src/stm32g4xx_hal_sram.c ****   * @file    stm32g4xx_hal_sram.c
   4:Drivers/STM32G4xx_HAL_Driver/Src/stm32g4xx_hal_sram.c ****   * @author  MCD Application Team
   5:Drivers/STM32G4xx_HAL_Driver/Src/stm32g4xx_hal_sram.c ****   * @brief   SRAM HAL module driver.
   6:Drivers/STM32G4xx_HAL_Driver/Src/stm32g4xx_hal_sram.c ****   *          This file provides a generic firmware to drive SRAM memories
   7:Drivers/STM32G4xx_HAL_Driver/Src/stm32g4xx_hal_sram.c ****   *          mounted as external device.
   8:Drivers/STM32G4xx_HAL_Driver/Src/stm32g4xx_hal_sram.c ****   *
   9:Drivers/STM32G4xx_HAL_Driver/Src/stm32g4xx_hal_sram.c ****   ******************************************************************************
  10:Drivers/STM32G4xx_HAL_Driver/Src/stm32g4xx_hal_sram.c ****   * @attention
  11:Drivers/STM32G4xx_HAL_Driver/Src/stm32g4xx_hal_sram.c ****   *
  12:Drivers/STM32G4xx_HAL_Driver/Src/stm32g4xx_hal_sram.c ****   * Copyright (c) 2019 STMicroelectronics.
  13:Drivers/STM32G4xx_HAL_Driver/Src/stm32g4xx_hal_sram.c ****   * All rights reserved.
  14:Drivers/STM32G4xx_HAL_Driver/Src/stm32g4xx_hal_sram.c ****   *
  15:Drivers/STM32G4xx_HAL_Driver/Src/stm32g4xx_hal_sram.c ****   * This software is licensed under terms that can be found in the LICENSE file
  16:Drivers/STM32G4xx_HAL_Driver/Src/stm32g4xx_hal_sram.c ****   * in the root directory of this software component.
  17:Drivers/STM32G4xx_HAL_Driver/Src/stm32g4xx_hal_sram.c ****   * If no LICENSE file comes with this software, it is provided AS-IS.
  18:Drivers/STM32G4xx_HAL_Driver/Src/stm32g4xx_hal_sram.c ****   *
  19:Drivers/STM32G4xx_HAL_Driver/Src/stm32g4xx_hal_sram.c ****   ******************************************************************************
  20:Drivers/STM32G4xx_HAL_Driver/Src/stm32g4xx_hal_sram.c ****   @verbatim
  21:Drivers/STM32G4xx_HAL_Driver/Src/stm32g4xx_hal_sram.c ****   ==============================================================================
  22:Drivers/STM32G4xx_HAL_Driver/Src/stm32g4xx_hal_sram.c ****                           ##### How to use this driver #####
  23:Drivers/STM32G4xx_HAL_Driver/Src/stm32g4xx_hal_sram.c ****   ==============================================================================
  24:Drivers/STM32G4xx_HAL_Driver/Src/stm32g4xx_hal_sram.c ****   [..]
  25:Drivers/STM32G4xx_HAL_Driver/Src/stm32g4xx_hal_sram.c ****     This driver is a generic layered driver which contains a set of APIs used to
  26:Drivers/STM32G4xx_HAL_Driver/Src/stm32g4xx_hal_sram.c ****     control SRAM memories. It uses the FMC layer functions to interface
  27:Drivers/STM32G4xx_HAL_Driver/Src/stm32g4xx_hal_sram.c ****     with SRAM devices.
  28:Drivers/STM32G4xx_HAL_Driver/Src/stm32g4xx_hal_sram.c ****     The following sequence should be followed to configure the FMC to interface
  29:Drivers/STM32G4xx_HAL_Driver/Src/stm32g4xx_hal_sram.c ****     with SRAM/PSRAM memories:
ARM GAS  /tmp/cc4B6zn6.s 			page 2


  30:Drivers/STM32G4xx_HAL_Driver/Src/stm32g4xx_hal_sram.c **** 
  31:Drivers/STM32G4xx_HAL_Driver/Src/stm32g4xx_hal_sram.c ****    (#) Declare a SRAM_HandleTypeDef handle structure, for example:
  32:Drivers/STM32G4xx_HAL_Driver/Src/stm32g4xx_hal_sram.c ****           SRAM_HandleTypeDef  hsram; and:
  33:Drivers/STM32G4xx_HAL_Driver/Src/stm32g4xx_hal_sram.c **** 
  34:Drivers/STM32G4xx_HAL_Driver/Src/stm32g4xx_hal_sram.c ****        (++) Fill the SRAM_HandleTypeDef handle "Init" field with the allowed
  35:Drivers/STM32G4xx_HAL_Driver/Src/stm32g4xx_hal_sram.c ****             values of the structure member.
  36:Drivers/STM32G4xx_HAL_Driver/Src/stm32g4xx_hal_sram.c **** 
  37:Drivers/STM32G4xx_HAL_Driver/Src/stm32g4xx_hal_sram.c ****        (++) Fill the SRAM_HandleTypeDef handle "Instance" field with a predefined
  38:Drivers/STM32G4xx_HAL_Driver/Src/stm32g4xx_hal_sram.c ****             base register instance for NOR or SRAM device
  39:Drivers/STM32G4xx_HAL_Driver/Src/stm32g4xx_hal_sram.c **** 
  40:Drivers/STM32G4xx_HAL_Driver/Src/stm32g4xx_hal_sram.c ****        (++) Fill the SRAM_HandleTypeDef handle "Extended" field with a predefined
  41:Drivers/STM32G4xx_HAL_Driver/Src/stm32g4xx_hal_sram.c ****             base register instance for NOR or SRAM extended mode
  42:Drivers/STM32G4xx_HAL_Driver/Src/stm32g4xx_hal_sram.c **** 
  43:Drivers/STM32G4xx_HAL_Driver/Src/stm32g4xx_hal_sram.c ****    (#) Declare two FMC_NORSRAM_TimingTypeDef structures, for both normal and extended
  44:Drivers/STM32G4xx_HAL_Driver/Src/stm32g4xx_hal_sram.c ****        mode timings; for example:
  45:Drivers/STM32G4xx_HAL_Driver/Src/stm32g4xx_hal_sram.c ****           FMC_NORSRAM_TimingTypeDef  Timing and FMC_NORSRAM_TimingTypeDef  ExTiming;
  46:Drivers/STM32G4xx_HAL_Driver/Src/stm32g4xx_hal_sram.c ****       and fill its fields with the allowed values of the structure member.
  47:Drivers/STM32G4xx_HAL_Driver/Src/stm32g4xx_hal_sram.c **** 
  48:Drivers/STM32G4xx_HAL_Driver/Src/stm32g4xx_hal_sram.c ****    (#) Initialize the SRAM Controller by calling the function HAL_SRAM_Init(). This function
  49:Drivers/STM32G4xx_HAL_Driver/Src/stm32g4xx_hal_sram.c ****        performs the following sequence:
  50:Drivers/STM32G4xx_HAL_Driver/Src/stm32g4xx_hal_sram.c **** 
  51:Drivers/STM32G4xx_HAL_Driver/Src/stm32g4xx_hal_sram.c ****        (##) MSP hardware layer configuration using the function HAL_SRAM_MspInit()
  52:Drivers/STM32G4xx_HAL_Driver/Src/stm32g4xx_hal_sram.c ****        (##) Control register configuration using the FMC NORSRAM interface function
  53:Drivers/STM32G4xx_HAL_Driver/Src/stm32g4xx_hal_sram.c ****             FMC_NORSRAM_Init()
  54:Drivers/STM32G4xx_HAL_Driver/Src/stm32g4xx_hal_sram.c ****        (##) Timing register configuration using the FMC NORSRAM interface function
  55:Drivers/STM32G4xx_HAL_Driver/Src/stm32g4xx_hal_sram.c ****             FMC_NORSRAM_Timing_Init()
  56:Drivers/STM32G4xx_HAL_Driver/Src/stm32g4xx_hal_sram.c ****        (##) Extended mode Timing register configuration using the FMC NORSRAM interface function
  57:Drivers/STM32G4xx_HAL_Driver/Src/stm32g4xx_hal_sram.c ****             FMC_NORSRAM_Extended_Timing_Init()
  58:Drivers/STM32G4xx_HAL_Driver/Src/stm32g4xx_hal_sram.c ****        (##) Enable the SRAM device using the macro __FMC_NORSRAM_ENABLE()
  59:Drivers/STM32G4xx_HAL_Driver/Src/stm32g4xx_hal_sram.c **** 
  60:Drivers/STM32G4xx_HAL_Driver/Src/stm32g4xx_hal_sram.c ****    (#) At this stage you can perform read/write accesses from/to the memory connected
  61:Drivers/STM32G4xx_HAL_Driver/Src/stm32g4xx_hal_sram.c ****        to the NOR/SRAM Bank. You can perform either polling or DMA transfer using the
  62:Drivers/STM32G4xx_HAL_Driver/Src/stm32g4xx_hal_sram.c ****        following APIs:
  63:Drivers/STM32G4xx_HAL_Driver/Src/stm32g4xx_hal_sram.c ****        (++) HAL_SRAM_Read()/HAL_SRAM_Write() for polling read/write access
  64:Drivers/STM32G4xx_HAL_Driver/Src/stm32g4xx_hal_sram.c ****        (++) HAL_SRAM_Read_DMA()/HAL_SRAM_Write_DMA() for DMA read/write transfer
  65:Drivers/STM32G4xx_HAL_Driver/Src/stm32g4xx_hal_sram.c **** 
  66:Drivers/STM32G4xx_HAL_Driver/Src/stm32g4xx_hal_sram.c ****    (#) You can also control the SRAM device by calling the control APIs HAL_SRAM_WriteOperation_Ena
  67:Drivers/STM32G4xx_HAL_Driver/Src/stm32g4xx_hal_sram.c ****        HAL_SRAM_WriteOperation_Disable() to respectively enable/disable the SRAM write operation
  68:Drivers/STM32G4xx_HAL_Driver/Src/stm32g4xx_hal_sram.c **** 
  69:Drivers/STM32G4xx_HAL_Driver/Src/stm32g4xx_hal_sram.c ****    (#) You can continuously monitor the SRAM device HAL state by calling the function
  70:Drivers/STM32G4xx_HAL_Driver/Src/stm32g4xx_hal_sram.c ****        HAL_SRAM_GetState()
  71:Drivers/STM32G4xx_HAL_Driver/Src/stm32g4xx_hal_sram.c **** 
  72:Drivers/STM32G4xx_HAL_Driver/Src/stm32g4xx_hal_sram.c ****        *** Callback registration ***
  73:Drivers/STM32G4xx_HAL_Driver/Src/stm32g4xx_hal_sram.c ****     =============================================
  74:Drivers/STM32G4xx_HAL_Driver/Src/stm32g4xx_hal_sram.c ****     [..]
  75:Drivers/STM32G4xx_HAL_Driver/Src/stm32g4xx_hal_sram.c ****       The compilation define  USE_HAL_SRAM_REGISTER_CALLBACKS when set to 1
  76:Drivers/STM32G4xx_HAL_Driver/Src/stm32g4xx_hal_sram.c ****       allows the user to configure dynamically the driver callbacks.
  77:Drivers/STM32G4xx_HAL_Driver/Src/stm32g4xx_hal_sram.c **** 
  78:Drivers/STM32G4xx_HAL_Driver/Src/stm32g4xx_hal_sram.c ****       Use Functions HAL_SRAM_RegisterCallback() to register a user callback,
  79:Drivers/STM32G4xx_HAL_Driver/Src/stm32g4xx_hal_sram.c ****       it allows to register following callbacks:
  80:Drivers/STM32G4xx_HAL_Driver/Src/stm32g4xx_hal_sram.c ****         (+) MspInitCallback    : SRAM MspInit.
  81:Drivers/STM32G4xx_HAL_Driver/Src/stm32g4xx_hal_sram.c ****         (+) MspDeInitCallback  : SRAM MspDeInit.
  82:Drivers/STM32G4xx_HAL_Driver/Src/stm32g4xx_hal_sram.c ****       This function takes as parameters the HAL peripheral handle, the Callback ID
  83:Drivers/STM32G4xx_HAL_Driver/Src/stm32g4xx_hal_sram.c ****       and a pointer to the user callback function.
  84:Drivers/STM32G4xx_HAL_Driver/Src/stm32g4xx_hal_sram.c **** 
  85:Drivers/STM32G4xx_HAL_Driver/Src/stm32g4xx_hal_sram.c ****       Use function HAL_SRAM_UnRegisterCallback() to reset a callback to the default
  86:Drivers/STM32G4xx_HAL_Driver/Src/stm32g4xx_hal_sram.c ****       weak (surcharged) function. It allows to reset following callbacks:
ARM GAS  /tmp/cc4B6zn6.s 			page 3


  87:Drivers/STM32G4xx_HAL_Driver/Src/stm32g4xx_hal_sram.c ****         (+) MspInitCallback    : SRAM MspInit.
  88:Drivers/STM32G4xx_HAL_Driver/Src/stm32g4xx_hal_sram.c ****         (+) MspDeInitCallback  : SRAM MspDeInit.
  89:Drivers/STM32G4xx_HAL_Driver/Src/stm32g4xx_hal_sram.c ****       This function) takes as parameters the HAL peripheral handle and the Callback ID.
  90:Drivers/STM32G4xx_HAL_Driver/Src/stm32g4xx_hal_sram.c **** 
  91:Drivers/STM32G4xx_HAL_Driver/Src/stm32g4xx_hal_sram.c ****       By default, after the HAL_SRAM_Init and if the state is HAL_SRAM_STATE_RESET
  92:Drivers/STM32G4xx_HAL_Driver/Src/stm32g4xx_hal_sram.c ****       all callbacks are reset to the corresponding legacy weak (surcharged) functions.
  93:Drivers/STM32G4xx_HAL_Driver/Src/stm32g4xx_hal_sram.c ****       Exception done for MspInit and MspDeInit callbacks that are respectively
  94:Drivers/STM32G4xx_HAL_Driver/Src/stm32g4xx_hal_sram.c ****       reset to the legacy weak (surcharged) functions in the HAL_SRAM_Init
  95:Drivers/STM32G4xx_HAL_Driver/Src/stm32g4xx_hal_sram.c ****       and  HAL_SRAM_DeInit only when these callbacks are null (not registered beforehand).
  96:Drivers/STM32G4xx_HAL_Driver/Src/stm32g4xx_hal_sram.c ****       If not, MspInit or MspDeInit are not null, the HAL_SRAM_Init and HAL_SRAM_DeInit
  97:Drivers/STM32G4xx_HAL_Driver/Src/stm32g4xx_hal_sram.c ****       keep and use the user MspInit/MspDeInit callbacks (registered beforehand)
  98:Drivers/STM32G4xx_HAL_Driver/Src/stm32g4xx_hal_sram.c **** 
  99:Drivers/STM32G4xx_HAL_Driver/Src/stm32g4xx_hal_sram.c ****       Callbacks can be registered/unregistered in READY state only.
 100:Drivers/STM32G4xx_HAL_Driver/Src/stm32g4xx_hal_sram.c ****       Exception done for MspInit/MspDeInit callbacks that can be registered/unregistered
 101:Drivers/STM32G4xx_HAL_Driver/Src/stm32g4xx_hal_sram.c ****       in READY or RESET state, thus registered (user) MspInit/DeInit callbacks can be used
 102:Drivers/STM32G4xx_HAL_Driver/Src/stm32g4xx_hal_sram.c ****       during the Init/DeInit.
 103:Drivers/STM32G4xx_HAL_Driver/Src/stm32g4xx_hal_sram.c ****       In that case first register the MspInit/MspDeInit user callbacks
 104:Drivers/STM32G4xx_HAL_Driver/Src/stm32g4xx_hal_sram.c ****       using HAL_SRAM_RegisterCallback before calling HAL_SRAM_DeInit
 105:Drivers/STM32G4xx_HAL_Driver/Src/stm32g4xx_hal_sram.c ****       or HAL_SRAM_Init function.
 106:Drivers/STM32G4xx_HAL_Driver/Src/stm32g4xx_hal_sram.c **** 
 107:Drivers/STM32G4xx_HAL_Driver/Src/stm32g4xx_hal_sram.c ****       When The compilation define USE_HAL_SRAM_REGISTER_CALLBACKS is set to 0 or
 108:Drivers/STM32G4xx_HAL_Driver/Src/stm32g4xx_hal_sram.c ****       not defined, the callback registering feature is not available
 109:Drivers/STM32G4xx_HAL_Driver/Src/stm32g4xx_hal_sram.c ****       and weak (surcharged) callbacks are used.
 110:Drivers/STM32G4xx_HAL_Driver/Src/stm32g4xx_hal_sram.c **** 
 111:Drivers/STM32G4xx_HAL_Driver/Src/stm32g4xx_hal_sram.c ****   @endverbatim
 112:Drivers/STM32G4xx_HAL_Driver/Src/stm32g4xx_hal_sram.c ****   ******************************************************************************
 113:Drivers/STM32G4xx_HAL_Driver/Src/stm32g4xx_hal_sram.c ****   */
 114:Drivers/STM32G4xx_HAL_Driver/Src/stm32g4xx_hal_sram.c **** 
 115:Drivers/STM32G4xx_HAL_Driver/Src/stm32g4xx_hal_sram.c **** /* Includes ------------------------------------------------------------------*/
 116:Drivers/STM32G4xx_HAL_Driver/Src/stm32g4xx_hal_sram.c **** #include "stm32g4xx_hal.h"
 117:Drivers/STM32G4xx_HAL_Driver/Src/stm32g4xx_hal_sram.c **** 
 118:Drivers/STM32G4xx_HAL_Driver/Src/stm32g4xx_hal_sram.c **** #if defined(FMC_BANK1)
 119:Drivers/STM32G4xx_HAL_Driver/Src/stm32g4xx_hal_sram.c **** 
 120:Drivers/STM32G4xx_HAL_Driver/Src/stm32g4xx_hal_sram.c **** /** @addtogroup STM32G4xx_HAL_Driver
 121:Drivers/STM32G4xx_HAL_Driver/Src/stm32g4xx_hal_sram.c ****   * @{
 122:Drivers/STM32G4xx_HAL_Driver/Src/stm32g4xx_hal_sram.c ****   */
 123:Drivers/STM32G4xx_HAL_Driver/Src/stm32g4xx_hal_sram.c **** 
 124:Drivers/STM32G4xx_HAL_Driver/Src/stm32g4xx_hal_sram.c **** #ifdef HAL_SRAM_MODULE_ENABLED
 125:Drivers/STM32G4xx_HAL_Driver/Src/stm32g4xx_hal_sram.c **** 
 126:Drivers/STM32G4xx_HAL_Driver/Src/stm32g4xx_hal_sram.c **** /** @defgroup SRAM SRAM
 127:Drivers/STM32G4xx_HAL_Driver/Src/stm32g4xx_hal_sram.c ****   * @brief SRAM driver modules
 128:Drivers/STM32G4xx_HAL_Driver/Src/stm32g4xx_hal_sram.c ****   * @{
 129:Drivers/STM32G4xx_HAL_Driver/Src/stm32g4xx_hal_sram.c ****   */
 130:Drivers/STM32G4xx_HAL_Driver/Src/stm32g4xx_hal_sram.c **** 
 131:Drivers/STM32G4xx_HAL_Driver/Src/stm32g4xx_hal_sram.c **** /* Private typedef -----------------------------------------------------------*/
 132:Drivers/STM32G4xx_HAL_Driver/Src/stm32g4xx_hal_sram.c **** /* Private define ------------------------------------------------------------*/
 133:Drivers/STM32G4xx_HAL_Driver/Src/stm32g4xx_hal_sram.c **** /* Private macro -------------------------------------------------------------*/
 134:Drivers/STM32G4xx_HAL_Driver/Src/stm32g4xx_hal_sram.c **** /* Private variables ---------------------------------------------------------*/
 135:Drivers/STM32G4xx_HAL_Driver/Src/stm32g4xx_hal_sram.c **** /* Private function prototypes -----------------------------------------------*/
 136:Drivers/STM32G4xx_HAL_Driver/Src/stm32g4xx_hal_sram.c **** static void SRAM_DMACplt(DMA_HandleTypeDef *hdma);
 137:Drivers/STM32G4xx_HAL_Driver/Src/stm32g4xx_hal_sram.c **** static void SRAM_DMACpltProt(DMA_HandleTypeDef *hdma);
 138:Drivers/STM32G4xx_HAL_Driver/Src/stm32g4xx_hal_sram.c **** static void SRAM_DMAError(DMA_HandleTypeDef *hdma);
 139:Drivers/STM32G4xx_HAL_Driver/Src/stm32g4xx_hal_sram.c **** 
 140:Drivers/STM32G4xx_HAL_Driver/Src/stm32g4xx_hal_sram.c **** /* Exported functions --------------------------------------------------------*/
 141:Drivers/STM32G4xx_HAL_Driver/Src/stm32g4xx_hal_sram.c **** 
 142:Drivers/STM32G4xx_HAL_Driver/Src/stm32g4xx_hal_sram.c **** /** @defgroup SRAM_Exported_Functions SRAM Exported Functions
 143:Drivers/STM32G4xx_HAL_Driver/Src/stm32g4xx_hal_sram.c ****   * @{
ARM GAS  /tmp/cc4B6zn6.s 			page 4


 144:Drivers/STM32G4xx_HAL_Driver/Src/stm32g4xx_hal_sram.c ****   */
 145:Drivers/STM32G4xx_HAL_Driver/Src/stm32g4xx_hal_sram.c **** 
 146:Drivers/STM32G4xx_HAL_Driver/Src/stm32g4xx_hal_sram.c **** /** @defgroup SRAM_Exported_Functions_Group1 Initialization and de-initialization functions
 147:Drivers/STM32G4xx_HAL_Driver/Src/stm32g4xx_hal_sram.c ****   * @brief    Initialization and Configuration functions.
 148:Drivers/STM32G4xx_HAL_Driver/Src/stm32g4xx_hal_sram.c ****   *
 149:Drivers/STM32G4xx_HAL_Driver/Src/stm32g4xx_hal_sram.c ****   @verbatim
 150:Drivers/STM32G4xx_HAL_Driver/Src/stm32g4xx_hal_sram.c ****   ==============================================================================
 151:Drivers/STM32G4xx_HAL_Driver/Src/stm32g4xx_hal_sram.c ****            ##### SRAM Initialization and de_initialization functions #####
 152:Drivers/STM32G4xx_HAL_Driver/Src/stm32g4xx_hal_sram.c ****   ==============================================================================
 153:Drivers/STM32G4xx_HAL_Driver/Src/stm32g4xx_hal_sram.c ****     [..]  This section provides functions allowing to initialize/de-initialize
 154:Drivers/STM32G4xx_HAL_Driver/Src/stm32g4xx_hal_sram.c ****           the SRAM memory
 155:Drivers/STM32G4xx_HAL_Driver/Src/stm32g4xx_hal_sram.c **** 
 156:Drivers/STM32G4xx_HAL_Driver/Src/stm32g4xx_hal_sram.c **** @endverbatim
 157:Drivers/STM32G4xx_HAL_Driver/Src/stm32g4xx_hal_sram.c ****   * @{
 158:Drivers/STM32G4xx_HAL_Driver/Src/stm32g4xx_hal_sram.c ****   */
 159:Drivers/STM32G4xx_HAL_Driver/Src/stm32g4xx_hal_sram.c **** 
 160:Drivers/STM32G4xx_HAL_Driver/Src/stm32g4xx_hal_sram.c **** /**
 161:Drivers/STM32G4xx_HAL_Driver/Src/stm32g4xx_hal_sram.c ****   * @brief  Performs the SRAM device initialization sequence
 162:Drivers/STM32G4xx_HAL_Driver/Src/stm32g4xx_hal_sram.c ****   * @param  hsram pointer to a SRAM_HandleTypeDef structure that contains
 163:Drivers/STM32G4xx_HAL_Driver/Src/stm32g4xx_hal_sram.c ****   *                the configuration information for SRAM module.
 164:Drivers/STM32G4xx_HAL_Driver/Src/stm32g4xx_hal_sram.c ****   * @param  Timing Pointer to SRAM control timing structure
 165:Drivers/STM32G4xx_HAL_Driver/Src/stm32g4xx_hal_sram.c ****   * @param  ExtTiming Pointer to SRAM extended mode timing structure
 166:Drivers/STM32G4xx_HAL_Driver/Src/stm32g4xx_hal_sram.c ****   * @retval HAL status
 167:Drivers/STM32G4xx_HAL_Driver/Src/stm32g4xx_hal_sram.c ****   */
 168:Drivers/STM32G4xx_HAL_Driver/Src/stm32g4xx_hal_sram.c **** HAL_StatusTypeDef HAL_SRAM_Init(SRAM_HandleTypeDef *hsram, FMC_NORSRAM_TimingTypeDef *Timing,
 169:Drivers/STM32G4xx_HAL_Driver/Src/stm32g4xx_hal_sram.c ****                                 FMC_NORSRAM_TimingTypeDef *ExtTiming)
 170:Drivers/STM32G4xx_HAL_Driver/Src/stm32g4xx_hal_sram.c **** {
 171:Drivers/STM32G4xx_HAL_Driver/Src/stm32g4xx_hal_sram.c ****   /* Check the SRAM handle parameter */
 172:Drivers/STM32G4xx_HAL_Driver/Src/stm32g4xx_hal_sram.c ****   if (hsram == NULL)
 173:Drivers/STM32G4xx_HAL_Driver/Src/stm32g4xx_hal_sram.c ****   {
 174:Drivers/STM32G4xx_HAL_Driver/Src/stm32g4xx_hal_sram.c ****     return HAL_ERROR;
 175:Drivers/STM32G4xx_HAL_Driver/Src/stm32g4xx_hal_sram.c ****   }
 176:Drivers/STM32G4xx_HAL_Driver/Src/stm32g4xx_hal_sram.c **** 
 177:Drivers/STM32G4xx_HAL_Driver/Src/stm32g4xx_hal_sram.c ****   if (hsram->State == HAL_SRAM_STATE_RESET)
 178:Drivers/STM32G4xx_HAL_Driver/Src/stm32g4xx_hal_sram.c ****   {
 179:Drivers/STM32G4xx_HAL_Driver/Src/stm32g4xx_hal_sram.c ****     /* Allocate lock resource and initialize it */
 180:Drivers/STM32G4xx_HAL_Driver/Src/stm32g4xx_hal_sram.c ****     hsram->Lock = HAL_UNLOCKED;
 181:Drivers/STM32G4xx_HAL_Driver/Src/stm32g4xx_hal_sram.c **** 
 182:Drivers/STM32G4xx_HAL_Driver/Src/stm32g4xx_hal_sram.c **** #if (USE_HAL_SRAM_REGISTER_CALLBACKS == 1)
 183:Drivers/STM32G4xx_HAL_Driver/Src/stm32g4xx_hal_sram.c ****     if (hsram->MspInitCallback == NULL)
 184:Drivers/STM32G4xx_HAL_Driver/Src/stm32g4xx_hal_sram.c ****     {
 185:Drivers/STM32G4xx_HAL_Driver/Src/stm32g4xx_hal_sram.c ****       hsram->MspInitCallback = HAL_SRAM_MspInit;
 186:Drivers/STM32G4xx_HAL_Driver/Src/stm32g4xx_hal_sram.c ****     }
 187:Drivers/STM32G4xx_HAL_Driver/Src/stm32g4xx_hal_sram.c ****     hsram->DmaXferCpltCallback = HAL_SRAM_DMA_XferCpltCallback;
 188:Drivers/STM32G4xx_HAL_Driver/Src/stm32g4xx_hal_sram.c ****     hsram->DmaXferErrorCallback = HAL_SRAM_DMA_XferErrorCallback;
 189:Drivers/STM32G4xx_HAL_Driver/Src/stm32g4xx_hal_sram.c **** 
 190:Drivers/STM32G4xx_HAL_Driver/Src/stm32g4xx_hal_sram.c ****     /* Init the low level hardware */
 191:Drivers/STM32G4xx_HAL_Driver/Src/stm32g4xx_hal_sram.c ****     hsram->MspInitCallback(hsram);
 192:Drivers/STM32G4xx_HAL_Driver/Src/stm32g4xx_hal_sram.c **** #else
 193:Drivers/STM32G4xx_HAL_Driver/Src/stm32g4xx_hal_sram.c ****     /* Initialize the low level hardware (MSP) */
 194:Drivers/STM32G4xx_HAL_Driver/Src/stm32g4xx_hal_sram.c ****     HAL_SRAM_MspInit(hsram);
 195:Drivers/STM32G4xx_HAL_Driver/Src/stm32g4xx_hal_sram.c **** #endif /* USE_HAL_SRAM_REGISTER_CALLBACKS */
 196:Drivers/STM32G4xx_HAL_Driver/Src/stm32g4xx_hal_sram.c ****   }
 197:Drivers/STM32G4xx_HAL_Driver/Src/stm32g4xx_hal_sram.c **** 
 198:Drivers/STM32G4xx_HAL_Driver/Src/stm32g4xx_hal_sram.c ****   /* Initialize SRAM control Interface */
 199:Drivers/STM32G4xx_HAL_Driver/Src/stm32g4xx_hal_sram.c ****   (void)FMC_NORSRAM_Init(hsram->Instance, &(hsram->Init));
 200:Drivers/STM32G4xx_HAL_Driver/Src/stm32g4xx_hal_sram.c **** 
ARM GAS  /tmp/cc4B6zn6.s 			page 5


 201:Drivers/STM32G4xx_HAL_Driver/Src/stm32g4xx_hal_sram.c ****   /* Initialize SRAM timing Interface */
 202:Drivers/STM32G4xx_HAL_Driver/Src/stm32g4xx_hal_sram.c ****   (void)FMC_NORSRAM_Timing_Init(hsram->Instance, Timing, hsram->Init.NSBank);
 203:Drivers/STM32G4xx_HAL_Driver/Src/stm32g4xx_hal_sram.c **** 
 204:Drivers/STM32G4xx_HAL_Driver/Src/stm32g4xx_hal_sram.c ****   /* Initialize SRAM extended mode timing Interface */
 205:Drivers/STM32G4xx_HAL_Driver/Src/stm32g4xx_hal_sram.c ****   (void)FMC_NORSRAM_Extended_Timing_Init(hsram->Extended, ExtTiming, hsram->Init.NSBank,
 206:Drivers/STM32G4xx_HAL_Driver/Src/stm32g4xx_hal_sram.c ****                                          hsram->Init.ExtendedMode);
 207:Drivers/STM32G4xx_HAL_Driver/Src/stm32g4xx_hal_sram.c **** 
 208:Drivers/STM32G4xx_HAL_Driver/Src/stm32g4xx_hal_sram.c ****   /* Enable the NORSRAM device */
 209:Drivers/STM32G4xx_HAL_Driver/Src/stm32g4xx_hal_sram.c ****   __FMC_NORSRAM_ENABLE(hsram->Instance, hsram->Init.NSBank);
 210:Drivers/STM32G4xx_HAL_Driver/Src/stm32g4xx_hal_sram.c **** 
 211:Drivers/STM32G4xx_HAL_Driver/Src/stm32g4xx_hal_sram.c ****   /* Initialize the SRAM controller state */
 212:Drivers/STM32G4xx_HAL_Driver/Src/stm32g4xx_hal_sram.c ****   hsram->State = HAL_SRAM_STATE_READY;
 213:Drivers/STM32G4xx_HAL_Driver/Src/stm32g4xx_hal_sram.c **** 
 214:Drivers/STM32G4xx_HAL_Driver/Src/stm32g4xx_hal_sram.c ****   return HAL_OK;
 215:Drivers/STM32G4xx_HAL_Driver/Src/stm32g4xx_hal_sram.c **** }
 216:Drivers/STM32G4xx_HAL_Driver/Src/stm32g4xx_hal_sram.c **** 
 217:Drivers/STM32G4xx_HAL_Driver/Src/stm32g4xx_hal_sram.c **** /**
 218:Drivers/STM32G4xx_HAL_Driver/Src/stm32g4xx_hal_sram.c ****   * @brief  Performs the SRAM device De-initialization sequence.
 219:Drivers/STM32G4xx_HAL_Driver/Src/stm32g4xx_hal_sram.c ****   * @param  hsram pointer to a SRAM_HandleTypeDef structure that contains
 220:Drivers/STM32G4xx_HAL_Driver/Src/stm32g4xx_hal_sram.c ****   *                the configuration information for SRAM module.
 221:Drivers/STM32G4xx_HAL_Driver/Src/stm32g4xx_hal_sram.c ****   * @retval HAL status
 222:Drivers/STM32G4xx_HAL_Driver/Src/stm32g4xx_hal_sram.c ****   */
 223:Drivers/STM32G4xx_HAL_Driver/Src/stm32g4xx_hal_sram.c **** HAL_StatusTypeDef HAL_SRAM_DeInit(SRAM_HandleTypeDef *hsram)
 224:Drivers/STM32G4xx_HAL_Driver/Src/stm32g4xx_hal_sram.c **** {
 225:Drivers/STM32G4xx_HAL_Driver/Src/stm32g4xx_hal_sram.c **** #if (USE_HAL_SRAM_REGISTER_CALLBACKS == 1)
 226:Drivers/STM32G4xx_HAL_Driver/Src/stm32g4xx_hal_sram.c ****   if (hsram->MspDeInitCallback == NULL)
 227:Drivers/STM32G4xx_HAL_Driver/Src/stm32g4xx_hal_sram.c ****   {
 228:Drivers/STM32G4xx_HAL_Driver/Src/stm32g4xx_hal_sram.c ****     hsram->MspDeInitCallback = HAL_SRAM_MspDeInit;
 229:Drivers/STM32G4xx_HAL_Driver/Src/stm32g4xx_hal_sram.c ****   }
 230:Drivers/STM32G4xx_HAL_Driver/Src/stm32g4xx_hal_sram.c **** 
 231:Drivers/STM32G4xx_HAL_Driver/Src/stm32g4xx_hal_sram.c ****   /* DeInit the low level hardware */
 232:Drivers/STM32G4xx_HAL_Driver/Src/stm32g4xx_hal_sram.c ****   hsram->MspDeInitCallback(hsram);
 233:Drivers/STM32G4xx_HAL_Driver/Src/stm32g4xx_hal_sram.c **** #else
 234:Drivers/STM32G4xx_HAL_Driver/Src/stm32g4xx_hal_sram.c ****   /* De-Initialize the low level hardware (MSP) */
 235:Drivers/STM32G4xx_HAL_Driver/Src/stm32g4xx_hal_sram.c ****   HAL_SRAM_MspDeInit(hsram);
 236:Drivers/STM32G4xx_HAL_Driver/Src/stm32g4xx_hal_sram.c **** #endif /* USE_HAL_SRAM_REGISTER_CALLBACKS */
 237:Drivers/STM32G4xx_HAL_Driver/Src/stm32g4xx_hal_sram.c **** 
 238:Drivers/STM32G4xx_HAL_Driver/Src/stm32g4xx_hal_sram.c ****   /* Configure the SRAM registers with their reset values */
 239:Drivers/STM32G4xx_HAL_Driver/Src/stm32g4xx_hal_sram.c ****   (void)FMC_NORSRAM_DeInit(hsram->Instance, hsram->Extended, hsram->Init.NSBank);
 240:Drivers/STM32G4xx_HAL_Driver/Src/stm32g4xx_hal_sram.c **** 
 241:Drivers/STM32G4xx_HAL_Driver/Src/stm32g4xx_hal_sram.c ****   /* Reset the SRAM controller state */
 242:Drivers/STM32G4xx_HAL_Driver/Src/stm32g4xx_hal_sram.c ****   hsram->State = HAL_SRAM_STATE_RESET;
 243:Drivers/STM32G4xx_HAL_Driver/Src/stm32g4xx_hal_sram.c **** 
 244:Drivers/STM32G4xx_HAL_Driver/Src/stm32g4xx_hal_sram.c ****   /* Release Lock */
 245:Drivers/STM32G4xx_HAL_Driver/Src/stm32g4xx_hal_sram.c ****   __HAL_UNLOCK(hsram);
 246:Drivers/STM32G4xx_HAL_Driver/Src/stm32g4xx_hal_sram.c **** 
 247:Drivers/STM32G4xx_HAL_Driver/Src/stm32g4xx_hal_sram.c ****   return HAL_OK;
 248:Drivers/STM32G4xx_HAL_Driver/Src/stm32g4xx_hal_sram.c **** }
 249:Drivers/STM32G4xx_HAL_Driver/Src/stm32g4xx_hal_sram.c **** 
 250:Drivers/STM32G4xx_HAL_Driver/Src/stm32g4xx_hal_sram.c **** /**
 251:Drivers/STM32G4xx_HAL_Driver/Src/stm32g4xx_hal_sram.c ****   * @brief  SRAM MSP Init.
 252:Drivers/STM32G4xx_HAL_Driver/Src/stm32g4xx_hal_sram.c ****   * @param  hsram pointer to a SRAM_HandleTypeDef structure that contains
 253:Drivers/STM32G4xx_HAL_Driver/Src/stm32g4xx_hal_sram.c ****   *                the configuration information for SRAM module.
 254:Drivers/STM32G4xx_HAL_Driver/Src/stm32g4xx_hal_sram.c ****   * @retval None
 255:Drivers/STM32G4xx_HAL_Driver/Src/stm32g4xx_hal_sram.c ****   */
 256:Drivers/STM32G4xx_HAL_Driver/Src/stm32g4xx_hal_sram.c **** __weak void HAL_SRAM_MspInit(SRAM_HandleTypeDef *hsram)
 257:Drivers/STM32G4xx_HAL_Driver/Src/stm32g4xx_hal_sram.c **** {
ARM GAS  /tmp/cc4B6zn6.s 			page 6


  30              		.loc 1 257 1 view -0
  31              		.cfi_startproc
  32              		@ args = 0, pretend = 0, frame = 0
  33              		@ frame_needed = 0, uses_anonymous_args = 0
  34              		@ link register save eliminated.
 258:Drivers/STM32G4xx_HAL_Driver/Src/stm32g4xx_hal_sram.c ****   /* Prevent unused argument(s) compilation warning */
 259:Drivers/STM32G4xx_HAL_Driver/Src/stm32g4xx_hal_sram.c ****   UNUSED(hsram);
  35              		.loc 1 259 3 view .LVU1
 260:Drivers/STM32G4xx_HAL_Driver/Src/stm32g4xx_hal_sram.c **** 
 261:Drivers/STM32G4xx_HAL_Driver/Src/stm32g4xx_hal_sram.c ****   /* NOTE : This function Should not be modified, when the callback is needed,
 262:Drivers/STM32G4xx_HAL_Driver/Src/stm32g4xx_hal_sram.c ****             the HAL_SRAM_MspInit could be implemented in the user file
 263:Drivers/STM32G4xx_HAL_Driver/Src/stm32g4xx_hal_sram.c ****    */
 264:Drivers/STM32G4xx_HAL_Driver/Src/stm32g4xx_hal_sram.c **** }
  36              		.loc 1 264 1 is_stmt 0 view .LVU2
  37 0000 7047     		bx	lr
  38              		.cfi_endproc
  39              	.LFE331:
  41              		.section	.text.HAL_SRAM_Init,"ax",%progbits
  42              		.align	1
  43              		.global	HAL_SRAM_Init
  44              		.syntax unified
  45              		.thumb
  46              		.thumb_func
  48              	HAL_SRAM_Init:
  49              	.LVL1:
  50              	.LFB329:
 170:Drivers/STM32G4xx_HAL_Driver/Src/stm32g4xx_hal_sram.c ****   /* Check the SRAM handle parameter */
  51              		.loc 1 170 1 is_stmt 1 view -0
  52              		.cfi_startproc
  53              		@ args = 0, pretend = 0, frame = 0
  54              		@ frame_needed = 0, uses_anonymous_args = 0
 172:Drivers/STM32G4xx_HAL_Driver/Src/stm32g4xx_hal_sram.c ****   {
  55              		.loc 1 172 3 view .LVU4
 172:Drivers/STM32G4xx_HAL_Driver/Src/stm32g4xx_hal_sram.c ****   {
  56              		.loc 1 172 6 is_stmt 0 view .LVU5
  57 0000 40B3     		cbz	r0, .L5
 170:Drivers/STM32G4xx_HAL_Driver/Src/stm32g4xx_hal_sram.c ****   /* Check the SRAM handle parameter */
  58              		.loc 1 170 1 view .LVU6
  59 0002 70B5     		push	{r4, r5, r6, lr}
  60              	.LCFI0:
  61              		.cfi_def_cfa_offset 16
  62              		.cfi_offset 4, -16
  63              		.cfi_offset 5, -12
  64              		.cfi_offset 6, -8
  65              		.cfi_offset 14, -4
  66 0004 0E46     		mov	r6, r1
  67 0006 1546     		mov	r5, r2
  68 0008 0446     		mov	r4, r0
 177:Drivers/STM32G4xx_HAL_Driver/Src/stm32g4xx_hal_sram.c ****   {
  69              		.loc 1 177 3 is_stmt 1 view .LVU7
 177:Drivers/STM32G4xx_HAL_Driver/Src/stm32g4xx_hal_sram.c ****   {
  70              		.loc 1 177 12 is_stmt 0 view .LVU8
  71 000a 90F85130 		ldrb	r3, [r0, #81]	@ zero_extendqisi2
 177:Drivers/STM32G4xx_HAL_Driver/Src/stm32g4xx_hal_sram.c ****   {
  72              		.loc 1 177 6 view .LVU9
  73 000e E3B1     		cbz	r3, .L10
  74              	.LVL2:
ARM GAS  /tmp/cc4B6zn6.s 			page 7


  75              	.L4:
 199:Drivers/STM32G4xx_HAL_Driver/Src/stm32g4xx_hal_sram.c **** 
  76              		.loc 1 199 3 is_stmt 1 view .LVU10
 199:Drivers/STM32G4xx_HAL_Driver/Src/stm32g4xx_hal_sram.c **** 
  77              		.loc 1 199 9 is_stmt 0 view .LVU11
  78 0010 2146     		mov	r1, r4
  79 0012 51F8080B 		ldr	r0, [r1], #8
  80 0016 FFF7FEFF 		bl	FMC_NORSRAM_Init
  81              	.LVL3:
 202:Drivers/STM32G4xx_HAL_Driver/Src/stm32g4xx_hal_sram.c **** 
  82              		.loc 1 202 3 is_stmt 1 view .LVU12
 202:Drivers/STM32G4xx_HAL_Driver/Src/stm32g4xx_hal_sram.c **** 
  83              		.loc 1 202 9 is_stmt 0 view .LVU13
  84 001a A268     		ldr	r2, [r4, #8]
  85 001c 3146     		mov	r1, r6
  86 001e 2068     		ldr	r0, [r4]
  87 0020 FFF7FEFF 		bl	FMC_NORSRAM_Timing_Init
  88              	.LVL4:
 205:Drivers/STM32G4xx_HAL_Driver/Src/stm32g4xx_hal_sram.c ****                                          hsram->Init.ExtendedMode);
  89              		.loc 1 205 3 is_stmt 1 view .LVU14
 205:Drivers/STM32G4xx_HAL_Driver/Src/stm32g4xx_hal_sram.c ****                                          hsram->Init.ExtendedMode);
  90              		.loc 1 205 9 is_stmt 0 view .LVU15
  91 0024 E36A     		ldr	r3, [r4, #44]
  92 0026 A268     		ldr	r2, [r4, #8]
  93 0028 2946     		mov	r1, r5
  94 002a 6068     		ldr	r0, [r4, #4]
  95 002c FFF7FEFF 		bl	FMC_NORSRAM_Extended_Timing_Init
  96              	.LVL5:
 209:Drivers/STM32G4xx_HAL_Driver/Src/stm32g4xx_hal_sram.c **** 
  97              		.loc 1 209 3 is_stmt 1 view .LVU16
  98 0030 2268     		ldr	r2, [r4]
  99 0032 A168     		ldr	r1, [r4, #8]
 100 0034 52F82130 		ldr	r3, [r2, r1, lsl #2]
 101 0038 43F00103 		orr	r3, r3, #1
 102 003c 42F82130 		str	r3, [r2, r1, lsl #2]
 212:Drivers/STM32G4xx_HAL_Driver/Src/stm32g4xx_hal_sram.c **** 
 103              		.loc 1 212 3 view .LVU17
 212:Drivers/STM32G4xx_HAL_Driver/Src/stm32g4xx_hal_sram.c **** 
 104              		.loc 1 212 16 is_stmt 0 view .LVU18
 105 0040 0123     		movs	r3, #1
 106 0042 84F85130 		strb	r3, [r4, #81]
 214:Drivers/STM32G4xx_HAL_Driver/Src/stm32g4xx_hal_sram.c **** }
 107              		.loc 1 214 3 is_stmt 1 view .LVU19
 214:Drivers/STM32G4xx_HAL_Driver/Src/stm32g4xx_hal_sram.c **** }
 108              		.loc 1 214 10 is_stmt 0 view .LVU20
 109 0046 0020     		movs	r0, #0
 215:Drivers/STM32G4xx_HAL_Driver/Src/stm32g4xx_hal_sram.c **** 
 110              		.loc 1 215 1 view .LVU21
 111 0048 70BD     		pop	{r4, r5, r6, pc}
 112              	.LVL6:
 113              	.L10:
 180:Drivers/STM32G4xx_HAL_Driver/Src/stm32g4xx_hal_sram.c **** 
 114              		.loc 1 180 5 is_stmt 1 view .LVU22
 180:Drivers/STM32G4xx_HAL_Driver/Src/stm32g4xx_hal_sram.c **** 
 115              		.loc 1 180 17 is_stmt 0 view .LVU23
 116 004a 80F85030 		strb	r3, [r0, #80]
 194:Drivers/STM32G4xx_HAL_Driver/Src/stm32g4xx_hal_sram.c **** #endif /* USE_HAL_SRAM_REGISTER_CALLBACKS */
ARM GAS  /tmp/cc4B6zn6.s 			page 8


 117              		.loc 1 194 5 is_stmt 1 view .LVU24
 118 004e FFF7FEFF 		bl	HAL_SRAM_MspInit
 119              	.LVL7:
 194:Drivers/STM32G4xx_HAL_Driver/Src/stm32g4xx_hal_sram.c **** #endif /* USE_HAL_SRAM_REGISTER_CALLBACKS */
 120              		.loc 1 194 5 is_stmt 0 view .LVU25
 121 0052 DDE7     		b	.L4
 122              	.LVL8:
 123              	.L5:
 124              	.LCFI1:
 125              		.cfi_def_cfa_offset 0
 126              		.cfi_restore 4
 127              		.cfi_restore 5
 128              		.cfi_restore 6
 129              		.cfi_restore 14
 174:Drivers/STM32G4xx_HAL_Driver/Src/stm32g4xx_hal_sram.c ****   }
 130              		.loc 1 174 12 view .LVU26
 131 0054 0120     		movs	r0, #1
 132              	.LVL9:
 215:Drivers/STM32G4xx_HAL_Driver/Src/stm32g4xx_hal_sram.c **** 
 133              		.loc 1 215 1 view .LVU27
 134 0056 7047     		bx	lr
 135              		.cfi_endproc
 136              	.LFE329:
 138              		.section	.text.HAL_SRAM_MspDeInit,"ax",%progbits
 139              		.align	1
 140              		.weak	HAL_SRAM_MspDeInit
 141              		.syntax unified
 142              		.thumb
 143              		.thumb_func
 145              	HAL_SRAM_MspDeInit:
 146              	.LVL10:
 147              	.LFB332:
 265:Drivers/STM32G4xx_HAL_Driver/Src/stm32g4xx_hal_sram.c **** 
 266:Drivers/STM32G4xx_HAL_Driver/Src/stm32g4xx_hal_sram.c **** /**
 267:Drivers/STM32G4xx_HAL_Driver/Src/stm32g4xx_hal_sram.c ****   * @brief  SRAM MSP DeInit.
 268:Drivers/STM32G4xx_HAL_Driver/Src/stm32g4xx_hal_sram.c ****   * @param  hsram pointer to a SRAM_HandleTypeDef structure that contains
 269:Drivers/STM32G4xx_HAL_Driver/Src/stm32g4xx_hal_sram.c ****   *                the configuration information for SRAM module.
 270:Drivers/STM32G4xx_HAL_Driver/Src/stm32g4xx_hal_sram.c ****   * @retval None
 271:Drivers/STM32G4xx_HAL_Driver/Src/stm32g4xx_hal_sram.c ****   */
 272:Drivers/STM32G4xx_HAL_Driver/Src/stm32g4xx_hal_sram.c **** __weak void HAL_SRAM_MspDeInit(SRAM_HandleTypeDef *hsram)
 273:Drivers/STM32G4xx_HAL_Driver/Src/stm32g4xx_hal_sram.c **** {
 148              		.loc 1 273 1 is_stmt 1 view -0
 149              		.cfi_startproc
 150              		@ args = 0, pretend = 0, frame = 0
 151              		@ frame_needed = 0, uses_anonymous_args = 0
 152              		@ link register save eliminated.
 274:Drivers/STM32G4xx_HAL_Driver/Src/stm32g4xx_hal_sram.c ****   /* Prevent unused argument(s) compilation warning */
 275:Drivers/STM32G4xx_HAL_Driver/Src/stm32g4xx_hal_sram.c ****   UNUSED(hsram);
 153              		.loc 1 275 3 view .LVU29
 276:Drivers/STM32G4xx_HAL_Driver/Src/stm32g4xx_hal_sram.c **** 
 277:Drivers/STM32G4xx_HAL_Driver/Src/stm32g4xx_hal_sram.c ****   /* NOTE : This function Should not be modified, when the callback is needed,
 278:Drivers/STM32G4xx_HAL_Driver/Src/stm32g4xx_hal_sram.c ****             the HAL_SRAM_MspDeInit could be implemented in the user file
 279:Drivers/STM32G4xx_HAL_Driver/Src/stm32g4xx_hal_sram.c ****    */
 280:Drivers/STM32G4xx_HAL_Driver/Src/stm32g4xx_hal_sram.c **** }
 154              		.loc 1 280 1 is_stmt 0 view .LVU30
 155 0000 7047     		bx	lr
 156              		.cfi_endproc
ARM GAS  /tmp/cc4B6zn6.s 			page 9


 157              	.LFE332:
 159              		.section	.text.HAL_SRAM_DeInit,"ax",%progbits
 160              		.align	1
 161              		.global	HAL_SRAM_DeInit
 162              		.syntax unified
 163              		.thumb
 164              		.thumb_func
 166              	HAL_SRAM_DeInit:
 167              	.LVL11:
 168              	.LFB330:
 224:Drivers/STM32G4xx_HAL_Driver/Src/stm32g4xx_hal_sram.c **** #if (USE_HAL_SRAM_REGISTER_CALLBACKS == 1)
 169              		.loc 1 224 1 is_stmt 1 view -0
 170              		.cfi_startproc
 171              		@ args = 0, pretend = 0, frame = 0
 172              		@ frame_needed = 0, uses_anonymous_args = 0
 224:Drivers/STM32G4xx_HAL_Driver/Src/stm32g4xx_hal_sram.c **** #if (USE_HAL_SRAM_REGISTER_CALLBACKS == 1)
 173              		.loc 1 224 1 is_stmt 0 view .LVU32
 174 0000 10B5     		push	{r4, lr}
 175              	.LCFI2:
 176              		.cfi_def_cfa_offset 8
 177              		.cfi_offset 4, -8
 178              		.cfi_offset 14, -4
 179 0002 0446     		mov	r4, r0
 235:Drivers/STM32G4xx_HAL_Driver/Src/stm32g4xx_hal_sram.c **** #endif /* USE_HAL_SRAM_REGISTER_CALLBACKS */
 180              		.loc 1 235 3 is_stmt 1 view .LVU33
 181 0004 FFF7FEFF 		bl	HAL_SRAM_MspDeInit
 182              	.LVL12:
 239:Drivers/STM32G4xx_HAL_Driver/Src/stm32g4xx_hal_sram.c **** 
 183              		.loc 1 239 3 view .LVU34
 239:Drivers/STM32G4xx_HAL_Driver/Src/stm32g4xx_hal_sram.c **** 
 184              		.loc 1 239 9 is_stmt 0 view .LVU35
 185 0008 A268     		ldr	r2, [r4, #8]
 186 000a 6168     		ldr	r1, [r4, #4]
 187 000c 2068     		ldr	r0, [r4]
 188 000e FFF7FEFF 		bl	FMC_NORSRAM_DeInit
 189              	.LVL13:
 242:Drivers/STM32G4xx_HAL_Driver/Src/stm32g4xx_hal_sram.c **** 
 190              		.loc 1 242 3 is_stmt 1 view .LVU36
 242:Drivers/STM32G4xx_HAL_Driver/Src/stm32g4xx_hal_sram.c **** 
 191              		.loc 1 242 16 is_stmt 0 view .LVU37
 192 0012 0020     		movs	r0, #0
 193 0014 84F85100 		strb	r0, [r4, #81]
 245:Drivers/STM32G4xx_HAL_Driver/Src/stm32g4xx_hal_sram.c **** 
 194              		.loc 1 245 3 is_stmt 1 view .LVU38
 245:Drivers/STM32G4xx_HAL_Driver/Src/stm32g4xx_hal_sram.c **** 
 195              		.loc 1 245 3 view .LVU39
 196 0018 84F85000 		strb	r0, [r4, #80]
 245:Drivers/STM32G4xx_HAL_Driver/Src/stm32g4xx_hal_sram.c **** 
 197              		.loc 1 245 3 view .LVU40
 247:Drivers/STM32G4xx_HAL_Driver/Src/stm32g4xx_hal_sram.c **** }
 198              		.loc 1 247 3 view .LVU41
 248:Drivers/STM32G4xx_HAL_Driver/Src/stm32g4xx_hal_sram.c **** 
 199              		.loc 1 248 1 is_stmt 0 view .LVU42
 200 001c 10BD     		pop	{r4, pc}
 248:Drivers/STM32G4xx_HAL_Driver/Src/stm32g4xx_hal_sram.c **** 
 201              		.loc 1 248 1 view .LVU43
 202              		.cfi_endproc
ARM GAS  /tmp/cc4B6zn6.s 			page 10


 203              	.LFE330:
 205              		.section	.text.HAL_SRAM_DMA_XferCpltCallback,"ax",%progbits
 206              		.align	1
 207              		.weak	HAL_SRAM_DMA_XferCpltCallback
 208              		.syntax unified
 209              		.thumb
 210              		.thumb_func
 212              	HAL_SRAM_DMA_XferCpltCallback:
 213              	.LVL14:
 214              	.LFB333:
 281:Drivers/STM32G4xx_HAL_Driver/Src/stm32g4xx_hal_sram.c **** 
 282:Drivers/STM32G4xx_HAL_Driver/Src/stm32g4xx_hal_sram.c **** /**
 283:Drivers/STM32G4xx_HAL_Driver/Src/stm32g4xx_hal_sram.c ****   * @brief  DMA transfer complete callback.
 284:Drivers/STM32G4xx_HAL_Driver/Src/stm32g4xx_hal_sram.c ****   * @param  hdma pointer to a SRAM_HandleTypeDef structure that contains
 285:Drivers/STM32G4xx_HAL_Driver/Src/stm32g4xx_hal_sram.c ****   *                the configuration information for SRAM module.
 286:Drivers/STM32G4xx_HAL_Driver/Src/stm32g4xx_hal_sram.c ****   * @retval None
 287:Drivers/STM32G4xx_HAL_Driver/Src/stm32g4xx_hal_sram.c ****   */
 288:Drivers/STM32G4xx_HAL_Driver/Src/stm32g4xx_hal_sram.c **** __weak void HAL_SRAM_DMA_XferCpltCallback(DMA_HandleTypeDef *hdma)
 289:Drivers/STM32G4xx_HAL_Driver/Src/stm32g4xx_hal_sram.c **** {
 215              		.loc 1 289 1 is_stmt 1 view -0
 216              		.cfi_startproc
 217              		@ args = 0, pretend = 0, frame = 0
 218              		@ frame_needed = 0, uses_anonymous_args = 0
 219              		@ link register save eliminated.
 290:Drivers/STM32G4xx_HAL_Driver/Src/stm32g4xx_hal_sram.c ****   /* Prevent unused argument(s) compilation warning */
 291:Drivers/STM32G4xx_HAL_Driver/Src/stm32g4xx_hal_sram.c ****   UNUSED(hdma);
 220              		.loc 1 291 3 view .LVU45
 292:Drivers/STM32G4xx_HAL_Driver/Src/stm32g4xx_hal_sram.c **** 
 293:Drivers/STM32G4xx_HAL_Driver/Src/stm32g4xx_hal_sram.c ****   /* NOTE : This function Should not be modified, when the callback is needed,
 294:Drivers/STM32G4xx_HAL_Driver/Src/stm32g4xx_hal_sram.c ****             the HAL_SRAM_DMA_XferCpltCallback could be implemented in the user file
 295:Drivers/STM32G4xx_HAL_Driver/Src/stm32g4xx_hal_sram.c ****    */
 296:Drivers/STM32G4xx_HAL_Driver/Src/stm32g4xx_hal_sram.c **** }
 221              		.loc 1 296 1 is_stmt 0 view .LVU46
 222 0000 7047     		bx	lr
 223              		.cfi_endproc
 224              	.LFE333:
 226              		.section	.text.SRAM_DMACpltProt,"ax",%progbits
 227              		.align	1
 228              		.syntax unified
 229              		.thumb
 230              		.thumb_func
 232              	SRAM_DMACpltProt:
 233              	.LVL15:
 234              	.LFB347:
 297:Drivers/STM32G4xx_HAL_Driver/Src/stm32g4xx_hal_sram.c **** 
 298:Drivers/STM32G4xx_HAL_Driver/Src/stm32g4xx_hal_sram.c **** /**
 299:Drivers/STM32G4xx_HAL_Driver/Src/stm32g4xx_hal_sram.c ****   * @brief  DMA transfer complete error callback.
 300:Drivers/STM32G4xx_HAL_Driver/Src/stm32g4xx_hal_sram.c ****   * @param  hdma pointer to a SRAM_HandleTypeDef structure that contains
 301:Drivers/STM32G4xx_HAL_Driver/Src/stm32g4xx_hal_sram.c ****   *                the configuration information for SRAM module.
 302:Drivers/STM32G4xx_HAL_Driver/Src/stm32g4xx_hal_sram.c ****   * @retval None
 303:Drivers/STM32G4xx_HAL_Driver/Src/stm32g4xx_hal_sram.c ****   */
 304:Drivers/STM32G4xx_HAL_Driver/Src/stm32g4xx_hal_sram.c **** __weak void HAL_SRAM_DMA_XferErrorCallback(DMA_HandleTypeDef *hdma)
 305:Drivers/STM32G4xx_HAL_Driver/Src/stm32g4xx_hal_sram.c **** {
 306:Drivers/STM32G4xx_HAL_Driver/Src/stm32g4xx_hal_sram.c ****   /* Prevent unused argument(s) compilation warning */
 307:Drivers/STM32G4xx_HAL_Driver/Src/stm32g4xx_hal_sram.c ****   UNUSED(hdma);
 308:Drivers/STM32G4xx_HAL_Driver/Src/stm32g4xx_hal_sram.c **** 
 309:Drivers/STM32G4xx_HAL_Driver/Src/stm32g4xx_hal_sram.c ****   /* NOTE : This function Should not be modified, when the callback is needed,
ARM GAS  /tmp/cc4B6zn6.s 			page 11


 310:Drivers/STM32G4xx_HAL_Driver/Src/stm32g4xx_hal_sram.c ****             the HAL_SRAM_DMA_XferErrorCallback could be implemented in the user file
 311:Drivers/STM32G4xx_HAL_Driver/Src/stm32g4xx_hal_sram.c ****    */
 312:Drivers/STM32G4xx_HAL_Driver/Src/stm32g4xx_hal_sram.c **** }
 313:Drivers/STM32G4xx_HAL_Driver/Src/stm32g4xx_hal_sram.c **** 
 314:Drivers/STM32G4xx_HAL_Driver/Src/stm32g4xx_hal_sram.c **** /**
 315:Drivers/STM32G4xx_HAL_Driver/Src/stm32g4xx_hal_sram.c ****   * @}
 316:Drivers/STM32G4xx_HAL_Driver/Src/stm32g4xx_hal_sram.c ****   */
 317:Drivers/STM32G4xx_HAL_Driver/Src/stm32g4xx_hal_sram.c **** 
 318:Drivers/STM32G4xx_HAL_Driver/Src/stm32g4xx_hal_sram.c **** /** @defgroup SRAM_Exported_Functions_Group2 Input Output and memory control functions
 319:Drivers/STM32G4xx_HAL_Driver/Src/stm32g4xx_hal_sram.c ****   * @brief    Input Output and memory control functions
 320:Drivers/STM32G4xx_HAL_Driver/Src/stm32g4xx_hal_sram.c ****   *
 321:Drivers/STM32G4xx_HAL_Driver/Src/stm32g4xx_hal_sram.c ****   @verbatim
 322:Drivers/STM32G4xx_HAL_Driver/Src/stm32g4xx_hal_sram.c ****   ==============================================================================
 323:Drivers/STM32G4xx_HAL_Driver/Src/stm32g4xx_hal_sram.c ****                   ##### SRAM Input and Output functions #####
 324:Drivers/STM32G4xx_HAL_Driver/Src/stm32g4xx_hal_sram.c ****   ==============================================================================
 325:Drivers/STM32G4xx_HAL_Driver/Src/stm32g4xx_hal_sram.c ****   [..]
 326:Drivers/STM32G4xx_HAL_Driver/Src/stm32g4xx_hal_sram.c ****     This section provides functions allowing to use and control the SRAM memory
 327:Drivers/STM32G4xx_HAL_Driver/Src/stm32g4xx_hal_sram.c **** 
 328:Drivers/STM32G4xx_HAL_Driver/Src/stm32g4xx_hal_sram.c **** @endverbatim
 329:Drivers/STM32G4xx_HAL_Driver/Src/stm32g4xx_hal_sram.c ****   * @{
 330:Drivers/STM32G4xx_HAL_Driver/Src/stm32g4xx_hal_sram.c ****   */
 331:Drivers/STM32G4xx_HAL_Driver/Src/stm32g4xx_hal_sram.c **** 
 332:Drivers/STM32G4xx_HAL_Driver/Src/stm32g4xx_hal_sram.c **** /**
 333:Drivers/STM32G4xx_HAL_Driver/Src/stm32g4xx_hal_sram.c ****   * @brief  Reads 8-bit buffer from SRAM memory.
 334:Drivers/STM32G4xx_HAL_Driver/Src/stm32g4xx_hal_sram.c ****   * @param  hsram pointer to a SRAM_HandleTypeDef structure that contains
 335:Drivers/STM32G4xx_HAL_Driver/Src/stm32g4xx_hal_sram.c ****   *                the configuration information for SRAM module.
 336:Drivers/STM32G4xx_HAL_Driver/Src/stm32g4xx_hal_sram.c ****   * @param  pAddress Pointer to read start address
 337:Drivers/STM32G4xx_HAL_Driver/Src/stm32g4xx_hal_sram.c ****   * @param  pDstBuffer Pointer to destination buffer
 338:Drivers/STM32G4xx_HAL_Driver/Src/stm32g4xx_hal_sram.c ****   * @param  BufferSize Size of the buffer to read from memory
 339:Drivers/STM32G4xx_HAL_Driver/Src/stm32g4xx_hal_sram.c ****   * @retval HAL status
 340:Drivers/STM32G4xx_HAL_Driver/Src/stm32g4xx_hal_sram.c ****   */
 341:Drivers/STM32G4xx_HAL_Driver/Src/stm32g4xx_hal_sram.c **** HAL_StatusTypeDef HAL_SRAM_Read_8b(SRAM_HandleTypeDef *hsram, uint32_t *pAddress, uint8_t *pDstBuff
 342:Drivers/STM32G4xx_HAL_Driver/Src/stm32g4xx_hal_sram.c ****                                    uint32_t BufferSize)
 343:Drivers/STM32G4xx_HAL_Driver/Src/stm32g4xx_hal_sram.c **** {
 344:Drivers/STM32G4xx_HAL_Driver/Src/stm32g4xx_hal_sram.c ****   uint32_t size;
 345:Drivers/STM32G4xx_HAL_Driver/Src/stm32g4xx_hal_sram.c ****   __IO uint8_t *psramaddress = (uint8_t *)pAddress;
 346:Drivers/STM32G4xx_HAL_Driver/Src/stm32g4xx_hal_sram.c ****   uint8_t *pdestbuff = pDstBuffer;
 347:Drivers/STM32G4xx_HAL_Driver/Src/stm32g4xx_hal_sram.c ****   HAL_SRAM_StateTypeDef state = hsram->State;
 348:Drivers/STM32G4xx_HAL_Driver/Src/stm32g4xx_hal_sram.c **** 
 349:Drivers/STM32G4xx_HAL_Driver/Src/stm32g4xx_hal_sram.c ****   /* Check the SRAM controller state */
 350:Drivers/STM32G4xx_HAL_Driver/Src/stm32g4xx_hal_sram.c ****   if ((state == HAL_SRAM_STATE_READY) || (state == HAL_SRAM_STATE_PROTECTED))
 351:Drivers/STM32G4xx_HAL_Driver/Src/stm32g4xx_hal_sram.c ****   {
 352:Drivers/STM32G4xx_HAL_Driver/Src/stm32g4xx_hal_sram.c ****     /* Process Locked */
 353:Drivers/STM32G4xx_HAL_Driver/Src/stm32g4xx_hal_sram.c ****     __HAL_LOCK(hsram);
 354:Drivers/STM32G4xx_HAL_Driver/Src/stm32g4xx_hal_sram.c **** 
 355:Drivers/STM32G4xx_HAL_Driver/Src/stm32g4xx_hal_sram.c ****     /* Update the SRAM controller state */
 356:Drivers/STM32G4xx_HAL_Driver/Src/stm32g4xx_hal_sram.c ****     hsram->State = HAL_SRAM_STATE_BUSY;
 357:Drivers/STM32G4xx_HAL_Driver/Src/stm32g4xx_hal_sram.c **** 
 358:Drivers/STM32G4xx_HAL_Driver/Src/stm32g4xx_hal_sram.c ****     /* Read data from memory */
 359:Drivers/STM32G4xx_HAL_Driver/Src/stm32g4xx_hal_sram.c ****     for (size = BufferSize; size != 0U; size--)
 360:Drivers/STM32G4xx_HAL_Driver/Src/stm32g4xx_hal_sram.c ****     {
 361:Drivers/STM32G4xx_HAL_Driver/Src/stm32g4xx_hal_sram.c ****       *pdestbuff = *psramaddress;
 362:Drivers/STM32G4xx_HAL_Driver/Src/stm32g4xx_hal_sram.c ****       pdestbuff++;
 363:Drivers/STM32G4xx_HAL_Driver/Src/stm32g4xx_hal_sram.c ****       psramaddress++;
 364:Drivers/STM32G4xx_HAL_Driver/Src/stm32g4xx_hal_sram.c ****     }
 365:Drivers/STM32G4xx_HAL_Driver/Src/stm32g4xx_hal_sram.c **** 
 366:Drivers/STM32G4xx_HAL_Driver/Src/stm32g4xx_hal_sram.c ****     /* Update the SRAM controller state */
ARM GAS  /tmp/cc4B6zn6.s 			page 12


 367:Drivers/STM32G4xx_HAL_Driver/Src/stm32g4xx_hal_sram.c ****     hsram->State = state;
 368:Drivers/STM32G4xx_HAL_Driver/Src/stm32g4xx_hal_sram.c **** 
 369:Drivers/STM32G4xx_HAL_Driver/Src/stm32g4xx_hal_sram.c ****     /* Process unlocked */
 370:Drivers/STM32G4xx_HAL_Driver/Src/stm32g4xx_hal_sram.c ****     __HAL_UNLOCK(hsram);
 371:Drivers/STM32G4xx_HAL_Driver/Src/stm32g4xx_hal_sram.c ****   }
 372:Drivers/STM32G4xx_HAL_Driver/Src/stm32g4xx_hal_sram.c ****   else
 373:Drivers/STM32G4xx_HAL_Driver/Src/stm32g4xx_hal_sram.c ****   {
 374:Drivers/STM32G4xx_HAL_Driver/Src/stm32g4xx_hal_sram.c ****     return HAL_ERROR;
 375:Drivers/STM32G4xx_HAL_Driver/Src/stm32g4xx_hal_sram.c ****   }
 376:Drivers/STM32G4xx_HAL_Driver/Src/stm32g4xx_hal_sram.c **** 
 377:Drivers/STM32G4xx_HAL_Driver/Src/stm32g4xx_hal_sram.c ****   return HAL_OK;
 378:Drivers/STM32G4xx_HAL_Driver/Src/stm32g4xx_hal_sram.c **** }
 379:Drivers/STM32G4xx_HAL_Driver/Src/stm32g4xx_hal_sram.c **** 
 380:Drivers/STM32G4xx_HAL_Driver/Src/stm32g4xx_hal_sram.c **** /**
 381:Drivers/STM32G4xx_HAL_Driver/Src/stm32g4xx_hal_sram.c ****   * @brief  Writes 8-bit buffer to SRAM memory.
 382:Drivers/STM32G4xx_HAL_Driver/Src/stm32g4xx_hal_sram.c ****   * @param  hsram pointer to a SRAM_HandleTypeDef structure that contains
 383:Drivers/STM32G4xx_HAL_Driver/Src/stm32g4xx_hal_sram.c ****   *                the configuration information for SRAM module.
 384:Drivers/STM32G4xx_HAL_Driver/Src/stm32g4xx_hal_sram.c ****   * @param  pAddress Pointer to write start address
 385:Drivers/STM32G4xx_HAL_Driver/Src/stm32g4xx_hal_sram.c ****   * @param  pSrcBuffer Pointer to source buffer to write
 386:Drivers/STM32G4xx_HAL_Driver/Src/stm32g4xx_hal_sram.c ****   * @param  BufferSize Size of the buffer to write to memory
 387:Drivers/STM32G4xx_HAL_Driver/Src/stm32g4xx_hal_sram.c ****   * @retval HAL status
 388:Drivers/STM32G4xx_HAL_Driver/Src/stm32g4xx_hal_sram.c ****   */
 389:Drivers/STM32G4xx_HAL_Driver/Src/stm32g4xx_hal_sram.c **** HAL_StatusTypeDef HAL_SRAM_Write_8b(SRAM_HandleTypeDef *hsram, uint32_t *pAddress, uint8_t *pSrcBuf
 390:Drivers/STM32G4xx_HAL_Driver/Src/stm32g4xx_hal_sram.c ****                                     uint32_t BufferSize)
 391:Drivers/STM32G4xx_HAL_Driver/Src/stm32g4xx_hal_sram.c **** {
 392:Drivers/STM32G4xx_HAL_Driver/Src/stm32g4xx_hal_sram.c ****   uint32_t size;
 393:Drivers/STM32G4xx_HAL_Driver/Src/stm32g4xx_hal_sram.c ****   __IO uint8_t *psramaddress = (uint8_t *)pAddress;
 394:Drivers/STM32G4xx_HAL_Driver/Src/stm32g4xx_hal_sram.c ****   uint8_t *psrcbuff = pSrcBuffer;
 395:Drivers/STM32G4xx_HAL_Driver/Src/stm32g4xx_hal_sram.c **** 
 396:Drivers/STM32G4xx_HAL_Driver/Src/stm32g4xx_hal_sram.c ****   /* Check the SRAM controller state */
 397:Drivers/STM32G4xx_HAL_Driver/Src/stm32g4xx_hal_sram.c ****   if (hsram->State == HAL_SRAM_STATE_READY)
 398:Drivers/STM32G4xx_HAL_Driver/Src/stm32g4xx_hal_sram.c ****   {
 399:Drivers/STM32G4xx_HAL_Driver/Src/stm32g4xx_hal_sram.c ****     /* Process Locked */
 400:Drivers/STM32G4xx_HAL_Driver/Src/stm32g4xx_hal_sram.c ****     __HAL_LOCK(hsram);
 401:Drivers/STM32G4xx_HAL_Driver/Src/stm32g4xx_hal_sram.c **** 
 402:Drivers/STM32G4xx_HAL_Driver/Src/stm32g4xx_hal_sram.c ****     /* Update the SRAM controller state */
 403:Drivers/STM32G4xx_HAL_Driver/Src/stm32g4xx_hal_sram.c ****     hsram->State = HAL_SRAM_STATE_BUSY;
 404:Drivers/STM32G4xx_HAL_Driver/Src/stm32g4xx_hal_sram.c **** 
 405:Drivers/STM32G4xx_HAL_Driver/Src/stm32g4xx_hal_sram.c ****     /* Write data to memory */
 406:Drivers/STM32G4xx_HAL_Driver/Src/stm32g4xx_hal_sram.c ****     for (size = BufferSize; size != 0U; size--)
 407:Drivers/STM32G4xx_HAL_Driver/Src/stm32g4xx_hal_sram.c ****     {
 408:Drivers/STM32G4xx_HAL_Driver/Src/stm32g4xx_hal_sram.c ****       *psramaddress = *psrcbuff;
 409:Drivers/STM32G4xx_HAL_Driver/Src/stm32g4xx_hal_sram.c ****       psrcbuff++;
 410:Drivers/STM32G4xx_HAL_Driver/Src/stm32g4xx_hal_sram.c ****       psramaddress++;
 411:Drivers/STM32G4xx_HAL_Driver/Src/stm32g4xx_hal_sram.c ****     }
 412:Drivers/STM32G4xx_HAL_Driver/Src/stm32g4xx_hal_sram.c **** 
 413:Drivers/STM32G4xx_HAL_Driver/Src/stm32g4xx_hal_sram.c ****     /* Update the SRAM controller state */
 414:Drivers/STM32G4xx_HAL_Driver/Src/stm32g4xx_hal_sram.c ****     hsram->State = HAL_SRAM_STATE_READY;
 415:Drivers/STM32G4xx_HAL_Driver/Src/stm32g4xx_hal_sram.c **** 
 416:Drivers/STM32G4xx_HAL_Driver/Src/stm32g4xx_hal_sram.c ****     /* Process unlocked */
 417:Drivers/STM32G4xx_HAL_Driver/Src/stm32g4xx_hal_sram.c ****     __HAL_UNLOCK(hsram);
 418:Drivers/STM32G4xx_HAL_Driver/Src/stm32g4xx_hal_sram.c ****   }
 419:Drivers/STM32G4xx_HAL_Driver/Src/stm32g4xx_hal_sram.c ****   else
 420:Drivers/STM32G4xx_HAL_Driver/Src/stm32g4xx_hal_sram.c ****   {
 421:Drivers/STM32G4xx_HAL_Driver/Src/stm32g4xx_hal_sram.c ****     return HAL_ERROR;
 422:Drivers/STM32G4xx_HAL_Driver/Src/stm32g4xx_hal_sram.c ****   }
 423:Drivers/STM32G4xx_HAL_Driver/Src/stm32g4xx_hal_sram.c **** 
ARM GAS  /tmp/cc4B6zn6.s 			page 13


 424:Drivers/STM32G4xx_HAL_Driver/Src/stm32g4xx_hal_sram.c ****   return HAL_OK;
 425:Drivers/STM32G4xx_HAL_Driver/Src/stm32g4xx_hal_sram.c **** }
 426:Drivers/STM32G4xx_HAL_Driver/Src/stm32g4xx_hal_sram.c **** 
 427:Drivers/STM32G4xx_HAL_Driver/Src/stm32g4xx_hal_sram.c **** /**
 428:Drivers/STM32G4xx_HAL_Driver/Src/stm32g4xx_hal_sram.c ****   * @brief  Reads 16-bit buffer from SRAM memory.
 429:Drivers/STM32G4xx_HAL_Driver/Src/stm32g4xx_hal_sram.c ****   * @param  hsram pointer to a SRAM_HandleTypeDef structure that contains
 430:Drivers/STM32G4xx_HAL_Driver/Src/stm32g4xx_hal_sram.c ****   *                the configuration information for SRAM module.
 431:Drivers/STM32G4xx_HAL_Driver/Src/stm32g4xx_hal_sram.c ****   * @param  pAddress Pointer to read start address
 432:Drivers/STM32G4xx_HAL_Driver/Src/stm32g4xx_hal_sram.c ****   * @param  pDstBuffer Pointer to destination buffer
 433:Drivers/STM32G4xx_HAL_Driver/Src/stm32g4xx_hal_sram.c ****   * @param  BufferSize Size of the buffer to read from memory
 434:Drivers/STM32G4xx_HAL_Driver/Src/stm32g4xx_hal_sram.c ****   * @retval HAL status
 435:Drivers/STM32G4xx_HAL_Driver/Src/stm32g4xx_hal_sram.c ****   */
 436:Drivers/STM32G4xx_HAL_Driver/Src/stm32g4xx_hal_sram.c **** HAL_StatusTypeDef HAL_SRAM_Read_16b(SRAM_HandleTypeDef *hsram, uint32_t *pAddress, uint16_t *pDstBu
 437:Drivers/STM32G4xx_HAL_Driver/Src/stm32g4xx_hal_sram.c ****                                     uint32_t BufferSize)
 438:Drivers/STM32G4xx_HAL_Driver/Src/stm32g4xx_hal_sram.c **** {
 439:Drivers/STM32G4xx_HAL_Driver/Src/stm32g4xx_hal_sram.c ****   uint32_t size;
 440:Drivers/STM32G4xx_HAL_Driver/Src/stm32g4xx_hal_sram.c ****   __IO uint32_t *psramaddress = pAddress;
 441:Drivers/STM32G4xx_HAL_Driver/Src/stm32g4xx_hal_sram.c ****   uint16_t *pdestbuff = pDstBuffer;
 442:Drivers/STM32G4xx_HAL_Driver/Src/stm32g4xx_hal_sram.c ****   uint8_t limit;
 443:Drivers/STM32G4xx_HAL_Driver/Src/stm32g4xx_hal_sram.c ****   HAL_SRAM_StateTypeDef state = hsram->State;
 444:Drivers/STM32G4xx_HAL_Driver/Src/stm32g4xx_hal_sram.c **** 
 445:Drivers/STM32G4xx_HAL_Driver/Src/stm32g4xx_hal_sram.c ****   /* Check the SRAM controller state */
 446:Drivers/STM32G4xx_HAL_Driver/Src/stm32g4xx_hal_sram.c ****   if ((state == HAL_SRAM_STATE_READY) || (state == HAL_SRAM_STATE_PROTECTED))
 447:Drivers/STM32G4xx_HAL_Driver/Src/stm32g4xx_hal_sram.c ****   {
 448:Drivers/STM32G4xx_HAL_Driver/Src/stm32g4xx_hal_sram.c ****     /* Process Locked */
 449:Drivers/STM32G4xx_HAL_Driver/Src/stm32g4xx_hal_sram.c ****     __HAL_LOCK(hsram);
 450:Drivers/STM32G4xx_HAL_Driver/Src/stm32g4xx_hal_sram.c **** 
 451:Drivers/STM32G4xx_HAL_Driver/Src/stm32g4xx_hal_sram.c ****     /* Update the SRAM controller state */
 452:Drivers/STM32G4xx_HAL_Driver/Src/stm32g4xx_hal_sram.c ****     hsram->State = HAL_SRAM_STATE_BUSY;
 453:Drivers/STM32G4xx_HAL_Driver/Src/stm32g4xx_hal_sram.c **** 
 454:Drivers/STM32G4xx_HAL_Driver/Src/stm32g4xx_hal_sram.c ****     /* Check if the size is a 32-bits multiple */
 455:Drivers/STM32G4xx_HAL_Driver/Src/stm32g4xx_hal_sram.c ****     limit = (((BufferSize % 2U) != 0U) ? 1U : 0U);
 456:Drivers/STM32G4xx_HAL_Driver/Src/stm32g4xx_hal_sram.c **** 
 457:Drivers/STM32G4xx_HAL_Driver/Src/stm32g4xx_hal_sram.c ****     /* Read data from memory */
 458:Drivers/STM32G4xx_HAL_Driver/Src/stm32g4xx_hal_sram.c ****     for (size = BufferSize; size != limit; size -= 2U)
 459:Drivers/STM32G4xx_HAL_Driver/Src/stm32g4xx_hal_sram.c ****     {
 460:Drivers/STM32G4xx_HAL_Driver/Src/stm32g4xx_hal_sram.c ****       *pdestbuff = (uint16_t)((*psramaddress) & 0x0000FFFFU);
 461:Drivers/STM32G4xx_HAL_Driver/Src/stm32g4xx_hal_sram.c ****       pdestbuff++;
 462:Drivers/STM32G4xx_HAL_Driver/Src/stm32g4xx_hal_sram.c ****       *pdestbuff = (uint16_t)(((*psramaddress) & 0xFFFF0000U) >> 16U);
 463:Drivers/STM32G4xx_HAL_Driver/Src/stm32g4xx_hal_sram.c ****       pdestbuff++;
 464:Drivers/STM32G4xx_HAL_Driver/Src/stm32g4xx_hal_sram.c ****       psramaddress++;
 465:Drivers/STM32G4xx_HAL_Driver/Src/stm32g4xx_hal_sram.c ****     }
 466:Drivers/STM32G4xx_HAL_Driver/Src/stm32g4xx_hal_sram.c **** 
 467:Drivers/STM32G4xx_HAL_Driver/Src/stm32g4xx_hal_sram.c ****     /* Read last 16-bits if size is not 32-bits multiple */
 468:Drivers/STM32G4xx_HAL_Driver/Src/stm32g4xx_hal_sram.c ****     if (limit != 0U)
 469:Drivers/STM32G4xx_HAL_Driver/Src/stm32g4xx_hal_sram.c ****     {
 470:Drivers/STM32G4xx_HAL_Driver/Src/stm32g4xx_hal_sram.c ****       *pdestbuff = (uint16_t)((*psramaddress) & 0x0000FFFFU);
 471:Drivers/STM32G4xx_HAL_Driver/Src/stm32g4xx_hal_sram.c ****     }
 472:Drivers/STM32G4xx_HAL_Driver/Src/stm32g4xx_hal_sram.c **** 
 473:Drivers/STM32G4xx_HAL_Driver/Src/stm32g4xx_hal_sram.c ****     /* Update the SRAM controller state */
 474:Drivers/STM32G4xx_HAL_Driver/Src/stm32g4xx_hal_sram.c ****     hsram->State = state;
 475:Drivers/STM32G4xx_HAL_Driver/Src/stm32g4xx_hal_sram.c **** 
 476:Drivers/STM32G4xx_HAL_Driver/Src/stm32g4xx_hal_sram.c ****     /* Process unlocked */
 477:Drivers/STM32G4xx_HAL_Driver/Src/stm32g4xx_hal_sram.c ****     __HAL_UNLOCK(hsram);
 478:Drivers/STM32G4xx_HAL_Driver/Src/stm32g4xx_hal_sram.c ****   }
 479:Drivers/STM32G4xx_HAL_Driver/Src/stm32g4xx_hal_sram.c ****   else
 480:Drivers/STM32G4xx_HAL_Driver/Src/stm32g4xx_hal_sram.c ****   {
ARM GAS  /tmp/cc4B6zn6.s 			page 14


 481:Drivers/STM32G4xx_HAL_Driver/Src/stm32g4xx_hal_sram.c ****     return HAL_ERROR;
 482:Drivers/STM32G4xx_HAL_Driver/Src/stm32g4xx_hal_sram.c ****   }
 483:Drivers/STM32G4xx_HAL_Driver/Src/stm32g4xx_hal_sram.c **** 
 484:Drivers/STM32G4xx_HAL_Driver/Src/stm32g4xx_hal_sram.c ****   return HAL_OK;
 485:Drivers/STM32G4xx_HAL_Driver/Src/stm32g4xx_hal_sram.c **** }
 486:Drivers/STM32G4xx_HAL_Driver/Src/stm32g4xx_hal_sram.c **** 
 487:Drivers/STM32G4xx_HAL_Driver/Src/stm32g4xx_hal_sram.c **** /**
 488:Drivers/STM32G4xx_HAL_Driver/Src/stm32g4xx_hal_sram.c ****   * @brief  Writes 16-bit buffer to SRAM memory.
 489:Drivers/STM32G4xx_HAL_Driver/Src/stm32g4xx_hal_sram.c ****   * @param  hsram pointer to a SRAM_HandleTypeDef structure that contains
 490:Drivers/STM32G4xx_HAL_Driver/Src/stm32g4xx_hal_sram.c ****   *                the configuration information for SRAM module.
 491:Drivers/STM32G4xx_HAL_Driver/Src/stm32g4xx_hal_sram.c ****   * @param  pAddress Pointer to write start address
 492:Drivers/STM32G4xx_HAL_Driver/Src/stm32g4xx_hal_sram.c ****   * @param  pSrcBuffer Pointer to source buffer to write
 493:Drivers/STM32G4xx_HAL_Driver/Src/stm32g4xx_hal_sram.c ****   * @param  BufferSize Size of the buffer to write to memory
 494:Drivers/STM32G4xx_HAL_Driver/Src/stm32g4xx_hal_sram.c ****   * @retval HAL status
 495:Drivers/STM32G4xx_HAL_Driver/Src/stm32g4xx_hal_sram.c ****   */
 496:Drivers/STM32G4xx_HAL_Driver/Src/stm32g4xx_hal_sram.c **** HAL_StatusTypeDef HAL_SRAM_Write_16b(SRAM_HandleTypeDef *hsram, uint32_t *pAddress, uint16_t *pSrcB
 497:Drivers/STM32G4xx_HAL_Driver/Src/stm32g4xx_hal_sram.c ****                                      uint32_t BufferSize)
 498:Drivers/STM32G4xx_HAL_Driver/Src/stm32g4xx_hal_sram.c **** {
 499:Drivers/STM32G4xx_HAL_Driver/Src/stm32g4xx_hal_sram.c ****   uint32_t size;
 500:Drivers/STM32G4xx_HAL_Driver/Src/stm32g4xx_hal_sram.c ****   __IO uint32_t *psramaddress = pAddress;
 501:Drivers/STM32G4xx_HAL_Driver/Src/stm32g4xx_hal_sram.c ****   uint16_t *psrcbuff = pSrcBuffer;
 502:Drivers/STM32G4xx_HAL_Driver/Src/stm32g4xx_hal_sram.c ****   uint8_t limit;
 503:Drivers/STM32G4xx_HAL_Driver/Src/stm32g4xx_hal_sram.c **** 
 504:Drivers/STM32G4xx_HAL_Driver/Src/stm32g4xx_hal_sram.c ****   /* Check the SRAM controller state */
 505:Drivers/STM32G4xx_HAL_Driver/Src/stm32g4xx_hal_sram.c ****   if (hsram->State == HAL_SRAM_STATE_READY)
 506:Drivers/STM32G4xx_HAL_Driver/Src/stm32g4xx_hal_sram.c ****   {
 507:Drivers/STM32G4xx_HAL_Driver/Src/stm32g4xx_hal_sram.c ****     /* Process Locked */
 508:Drivers/STM32G4xx_HAL_Driver/Src/stm32g4xx_hal_sram.c ****     __HAL_LOCK(hsram);
 509:Drivers/STM32G4xx_HAL_Driver/Src/stm32g4xx_hal_sram.c **** 
 510:Drivers/STM32G4xx_HAL_Driver/Src/stm32g4xx_hal_sram.c ****     /* Update the SRAM controller state */
 511:Drivers/STM32G4xx_HAL_Driver/Src/stm32g4xx_hal_sram.c ****     hsram->State = HAL_SRAM_STATE_BUSY;
 512:Drivers/STM32G4xx_HAL_Driver/Src/stm32g4xx_hal_sram.c **** 
 513:Drivers/STM32G4xx_HAL_Driver/Src/stm32g4xx_hal_sram.c ****     /* Check if the size is a 32-bits multiple */
 514:Drivers/STM32G4xx_HAL_Driver/Src/stm32g4xx_hal_sram.c ****     limit = (((BufferSize % 2U) != 0U) ? 1U : 0U);
 515:Drivers/STM32G4xx_HAL_Driver/Src/stm32g4xx_hal_sram.c **** 
 516:Drivers/STM32G4xx_HAL_Driver/Src/stm32g4xx_hal_sram.c ****     /* Write data to memory */
 517:Drivers/STM32G4xx_HAL_Driver/Src/stm32g4xx_hal_sram.c ****     for (size = BufferSize; size != limit; size -= 2U)
 518:Drivers/STM32G4xx_HAL_Driver/Src/stm32g4xx_hal_sram.c ****     {
 519:Drivers/STM32G4xx_HAL_Driver/Src/stm32g4xx_hal_sram.c ****       *psramaddress = (uint32_t)(*psrcbuff);
 520:Drivers/STM32G4xx_HAL_Driver/Src/stm32g4xx_hal_sram.c ****       psrcbuff++;
 521:Drivers/STM32G4xx_HAL_Driver/Src/stm32g4xx_hal_sram.c ****       *psramaddress |= ((uint32_t)(*psrcbuff) << 16U);
 522:Drivers/STM32G4xx_HAL_Driver/Src/stm32g4xx_hal_sram.c ****       psrcbuff++;
 523:Drivers/STM32G4xx_HAL_Driver/Src/stm32g4xx_hal_sram.c ****       psramaddress++;
 524:Drivers/STM32G4xx_HAL_Driver/Src/stm32g4xx_hal_sram.c ****     }
 525:Drivers/STM32G4xx_HAL_Driver/Src/stm32g4xx_hal_sram.c **** 
 526:Drivers/STM32G4xx_HAL_Driver/Src/stm32g4xx_hal_sram.c ****     /* Write last 16-bits if size is not 32-bits multiple */
 527:Drivers/STM32G4xx_HAL_Driver/Src/stm32g4xx_hal_sram.c ****     if (limit != 0U)
 528:Drivers/STM32G4xx_HAL_Driver/Src/stm32g4xx_hal_sram.c ****     {
 529:Drivers/STM32G4xx_HAL_Driver/Src/stm32g4xx_hal_sram.c ****       *psramaddress = ((uint32_t)(*psrcbuff) & 0x0000FFFFU) | ((*psramaddress) & 0xFFFF0000U);
 530:Drivers/STM32G4xx_HAL_Driver/Src/stm32g4xx_hal_sram.c ****     }
 531:Drivers/STM32G4xx_HAL_Driver/Src/stm32g4xx_hal_sram.c **** 
 532:Drivers/STM32G4xx_HAL_Driver/Src/stm32g4xx_hal_sram.c ****     /* Update the SRAM controller state */
 533:Drivers/STM32G4xx_HAL_Driver/Src/stm32g4xx_hal_sram.c ****     hsram->State = HAL_SRAM_STATE_READY;
 534:Drivers/STM32G4xx_HAL_Driver/Src/stm32g4xx_hal_sram.c **** 
 535:Drivers/STM32G4xx_HAL_Driver/Src/stm32g4xx_hal_sram.c ****     /* Process unlocked */
 536:Drivers/STM32G4xx_HAL_Driver/Src/stm32g4xx_hal_sram.c ****     __HAL_UNLOCK(hsram);
 537:Drivers/STM32G4xx_HAL_Driver/Src/stm32g4xx_hal_sram.c ****   }
ARM GAS  /tmp/cc4B6zn6.s 			page 15


 538:Drivers/STM32G4xx_HAL_Driver/Src/stm32g4xx_hal_sram.c ****   else
 539:Drivers/STM32G4xx_HAL_Driver/Src/stm32g4xx_hal_sram.c ****   {
 540:Drivers/STM32G4xx_HAL_Driver/Src/stm32g4xx_hal_sram.c ****     return HAL_ERROR;
 541:Drivers/STM32G4xx_HAL_Driver/Src/stm32g4xx_hal_sram.c ****   }
 542:Drivers/STM32G4xx_HAL_Driver/Src/stm32g4xx_hal_sram.c **** 
 543:Drivers/STM32G4xx_HAL_Driver/Src/stm32g4xx_hal_sram.c ****   return HAL_OK;
 544:Drivers/STM32G4xx_HAL_Driver/Src/stm32g4xx_hal_sram.c **** }
 545:Drivers/STM32G4xx_HAL_Driver/Src/stm32g4xx_hal_sram.c **** 
 546:Drivers/STM32G4xx_HAL_Driver/Src/stm32g4xx_hal_sram.c **** /**
 547:Drivers/STM32G4xx_HAL_Driver/Src/stm32g4xx_hal_sram.c ****   * @brief  Reads 32-bit buffer from SRAM memory.
 548:Drivers/STM32G4xx_HAL_Driver/Src/stm32g4xx_hal_sram.c ****   * @param  hsram pointer to a SRAM_HandleTypeDef structure that contains
 549:Drivers/STM32G4xx_HAL_Driver/Src/stm32g4xx_hal_sram.c ****   *                the configuration information for SRAM module.
 550:Drivers/STM32G4xx_HAL_Driver/Src/stm32g4xx_hal_sram.c ****   * @param  pAddress Pointer to read start address
 551:Drivers/STM32G4xx_HAL_Driver/Src/stm32g4xx_hal_sram.c ****   * @param  pDstBuffer Pointer to destination buffer
 552:Drivers/STM32G4xx_HAL_Driver/Src/stm32g4xx_hal_sram.c ****   * @param  BufferSize Size of the buffer to read from memory
 553:Drivers/STM32G4xx_HAL_Driver/Src/stm32g4xx_hal_sram.c ****   * @retval HAL status
 554:Drivers/STM32G4xx_HAL_Driver/Src/stm32g4xx_hal_sram.c ****   */
 555:Drivers/STM32G4xx_HAL_Driver/Src/stm32g4xx_hal_sram.c **** HAL_StatusTypeDef HAL_SRAM_Read_32b(SRAM_HandleTypeDef *hsram, uint32_t *pAddress, uint32_t *pDstBu
 556:Drivers/STM32G4xx_HAL_Driver/Src/stm32g4xx_hal_sram.c ****                                     uint32_t BufferSize)
 557:Drivers/STM32G4xx_HAL_Driver/Src/stm32g4xx_hal_sram.c **** {
 558:Drivers/STM32G4xx_HAL_Driver/Src/stm32g4xx_hal_sram.c ****   uint32_t size;
 559:Drivers/STM32G4xx_HAL_Driver/Src/stm32g4xx_hal_sram.c ****   __IO uint32_t *psramaddress = pAddress;
 560:Drivers/STM32G4xx_HAL_Driver/Src/stm32g4xx_hal_sram.c ****   uint32_t *pdestbuff = pDstBuffer;
 561:Drivers/STM32G4xx_HAL_Driver/Src/stm32g4xx_hal_sram.c ****   HAL_SRAM_StateTypeDef state = hsram->State;
 562:Drivers/STM32G4xx_HAL_Driver/Src/stm32g4xx_hal_sram.c **** 
 563:Drivers/STM32G4xx_HAL_Driver/Src/stm32g4xx_hal_sram.c ****   /* Check the SRAM controller state */
 564:Drivers/STM32G4xx_HAL_Driver/Src/stm32g4xx_hal_sram.c ****   if ((state == HAL_SRAM_STATE_READY) || (state == HAL_SRAM_STATE_PROTECTED))
 565:Drivers/STM32G4xx_HAL_Driver/Src/stm32g4xx_hal_sram.c ****   {
 566:Drivers/STM32G4xx_HAL_Driver/Src/stm32g4xx_hal_sram.c ****     /* Process Locked */
 567:Drivers/STM32G4xx_HAL_Driver/Src/stm32g4xx_hal_sram.c ****     __HAL_LOCK(hsram);
 568:Drivers/STM32G4xx_HAL_Driver/Src/stm32g4xx_hal_sram.c **** 
 569:Drivers/STM32G4xx_HAL_Driver/Src/stm32g4xx_hal_sram.c ****     /* Update the SRAM controller state */
 570:Drivers/STM32G4xx_HAL_Driver/Src/stm32g4xx_hal_sram.c ****     hsram->State = HAL_SRAM_STATE_BUSY;
 571:Drivers/STM32G4xx_HAL_Driver/Src/stm32g4xx_hal_sram.c **** 
 572:Drivers/STM32G4xx_HAL_Driver/Src/stm32g4xx_hal_sram.c ****     /* Read data from memory */
 573:Drivers/STM32G4xx_HAL_Driver/Src/stm32g4xx_hal_sram.c ****     for (size = BufferSize; size != 0U; size--)
 574:Drivers/STM32G4xx_HAL_Driver/Src/stm32g4xx_hal_sram.c ****     {
 575:Drivers/STM32G4xx_HAL_Driver/Src/stm32g4xx_hal_sram.c ****       *pdestbuff = *psramaddress;
 576:Drivers/STM32G4xx_HAL_Driver/Src/stm32g4xx_hal_sram.c ****       pdestbuff++;
 577:Drivers/STM32G4xx_HAL_Driver/Src/stm32g4xx_hal_sram.c ****       psramaddress++;
 578:Drivers/STM32G4xx_HAL_Driver/Src/stm32g4xx_hal_sram.c ****     }
 579:Drivers/STM32G4xx_HAL_Driver/Src/stm32g4xx_hal_sram.c **** 
 580:Drivers/STM32G4xx_HAL_Driver/Src/stm32g4xx_hal_sram.c ****     /* Update the SRAM controller state */
 581:Drivers/STM32G4xx_HAL_Driver/Src/stm32g4xx_hal_sram.c ****     hsram->State = state;
 582:Drivers/STM32G4xx_HAL_Driver/Src/stm32g4xx_hal_sram.c **** 
 583:Drivers/STM32G4xx_HAL_Driver/Src/stm32g4xx_hal_sram.c ****     /* Process unlocked */
 584:Drivers/STM32G4xx_HAL_Driver/Src/stm32g4xx_hal_sram.c ****     __HAL_UNLOCK(hsram);
 585:Drivers/STM32G4xx_HAL_Driver/Src/stm32g4xx_hal_sram.c ****   }
 586:Drivers/STM32G4xx_HAL_Driver/Src/stm32g4xx_hal_sram.c ****   else
 587:Drivers/STM32G4xx_HAL_Driver/Src/stm32g4xx_hal_sram.c ****   {
 588:Drivers/STM32G4xx_HAL_Driver/Src/stm32g4xx_hal_sram.c ****     return HAL_ERROR;
 589:Drivers/STM32G4xx_HAL_Driver/Src/stm32g4xx_hal_sram.c ****   }
 590:Drivers/STM32G4xx_HAL_Driver/Src/stm32g4xx_hal_sram.c **** 
 591:Drivers/STM32G4xx_HAL_Driver/Src/stm32g4xx_hal_sram.c ****   return HAL_OK;
 592:Drivers/STM32G4xx_HAL_Driver/Src/stm32g4xx_hal_sram.c **** }
 593:Drivers/STM32G4xx_HAL_Driver/Src/stm32g4xx_hal_sram.c **** 
 594:Drivers/STM32G4xx_HAL_Driver/Src/stm32g4xx_hal_sram.c **** /**
ARM GAS  /tmp/cc4B6zn6.s 			page 16


 595:Drivers/STM32G4xx_HAL_Driver/Src/stm32g4xx_hal_sram.c ****   * @brief  Writes 32-bit buffer to SRAM memory.
 596:Drivers/STM32G4xx_HAL_Driver/Src/stm32g4xx_hal_sram.c ****   * @param  hsram pointer to a SRAM_HandleTypeDef structure that contains
 597:Drivers/STM32G4xx_HAL_Driver/Src/stm32g4xx_hal_sram.c ****   *                the configuration information for SRAM module.
 598:Drivers/STM32G4xx_HAL_Driver/Src/stm32g4xx_hal_sram.c ****   * @param  pAddress Pointer to write start address
 599:Drivers/STM32G4xx_HAL_Driver/Src/stm32g4xx_hal_sram.c ****   * @param  pSrcBuffer Pointer to source buffer to write
 600:Drivers/STM32G4xx_HAL_Driver/Src/stm32g4xx_hal_sram.c ****   * @param  BufferSize Size of the buffer to write to memory
 601:Drivers/STM32G4xx_HAL_Driver/Src/stm32g4xx_hal_sram.c ****   * @retval HAL status
 602:Drivers/STM32G4xx_HAL_Driver/Src/stm32g4xx_hal_sram.c ****   */
 603:Drivers/STM32G4xx_HAL_Driver/Src/stm32g4xx_hal_sram.c **** HAL_StatusTypeDef HAL_SRAM_Write_32b(SRAM_HandleTypeDef *hsram, uint32_t *pAddress, uint32_t *pSrcB
 604:Drivers/STM32G4xx_HAL_Driver/Src/stm32g4xx_hal_sram.c ****                                      uint32_t BufferSize)
 605:Drivers/STM32G4xx_HAL_Driver/Src/stm32g4xx_hal_sram.c **** {
 606:Drivers/STM32G4xx_HAL_Driver/Src/stm32g4xx_hal_sram.c ****   uint32_t size;
 607:Drivers/STM32G4xx_HAL_Driver/Src/stm32g4xx_hal_sram.c ****   __IO uint32_t *psramaddress = pAddress;
 608:Drivers/STM32G4xx_HAL_Driver/Src/stm32g4xx_hal_sram.c ****   uint32_t *psrcbuff = pSrcBuffer;
 609:Drivers/STM32G4xx_HAL_Driver/Src/stm32g4xx_hal_sram.c **** 
 610:Drivers/STM32G4xx_HAL_Driver/Src/stm32g4xx_hal_sram.c ****   /* Check the SRAM controller state */
 611:Drivers/STM32G4xx_HAL_Driver/Src/stm32g4xx_hal_sram.c ****   if (hsram->State == HAL_SRAM_STATE_READY)
 612:Drivers/STM32G4xx_HAL_Driver/Src/stm32g4xx_hal_sram.c ****   {
 613:Drivers/STM32G4xx_HAL_Driver/Src/stm32g4xx_hal_sram.c ****     /* Process Locked */
 614:Drivers/STM32G4xx_HAL_Driver/Src/stm32g4xx_hal_sram.c ****     __HAL_LOCK(hsram);
 615:Drivers/STM32G4xx_HAL_Driver/Src/stm32g4xx_hal_sram.c **** 
 616:Drivers/STM32G4xx_HAL_Driver/Src/stm32g4xx_hal_sram.c ****     /* Update the SRAM controller state */
 617:Drivers/STM32G4xx_HAL_Driver/Src/stm32g4xx_hal_sram.c ****     hsram->State = HAL_SRAM_STATE_BUSY;
 618:Drivers/STM32G4xx_HAL_Driver/Src/stm32g4xx_hal_sram.c **** 
 619:Drivers/STM32G4xx_HAL_Driver/Src/stm32g4xx_hal_sram.c ****     /* Write data to memory */
 620:Drivers/STM32G4xx_HAL_Driver/Src/stm32g4xx_hal_sram.c ****     for (size = BufferSize; size != 0U; size--)
 621:Drivers/STM32G4xx_HAL_Driver/Src/stm32g4xx_hal_sram.c ****     {
 622:Drivers/STM32G4xx_HAL_Driver/Src/stm32g4xx_hal_sram.c ****       *psramaddress = *psrcbuff;
 623:Drivers/STM32G4xx_HAL_Driver/Src/stm32g4xx_hal_sram.c ****       psrcbuff++;
 624:Drivers/STM32G4xx_HAL_Driver/Src/stm32g4xx_hal_sram.c ****       psramaddress++;
 625:Drivers/STM32G4xx_HAL_Driver/Src/stm32g4xx_hal_sram.c ****     }
 626:Drivers/STM32G4xx_HAL_Driver/Src/stm32g4xx_hal_sram.c **** 
 627:Drivers/STM32G4xx_HAL_Driver/Src/stm32g4xx_hal_sram.c ****     /* Update the SRAM controller state */
 628:Drivers/STM32G4xx_HAL_Driver/Src/stm32g4xx_hal_sram.c ****     hsram->State = HAL_SRAM_STATE_READY;
 629:Drivers/STM32G4xx_HAL_Driver/Src/stm32g4xx_hal_sram.c **** 
 630:Drivers/STM32G4xx_HAL_Driver/Src/stm32g4xx_hal_sram.c ****     /* Process unlocked */
 631:Drivers/STM32G4xx_HAL_Driver/Src/stm32g4xx_hal_sram.c ****     __HAL_UNLOCK(hsram);
 632:Drivers/STM32G4xx_HAL_Driver/Src/stm32g4xx_hal_sram.c ****   }
 633:Drivers/STM32G4xx_HAL_Driver/Src/stm32g4xx_hal_sram.c ****   else
 634:Drivers/STM32G4xx_HAL_Driver/Src/stm32g4xx_hal_sram.c ****   {
 635:Drivers/STM32G4xx_HAL_Driver/Src/stm32g4xx_hal_sram.c ****     return HAL_ERROR;
 636:Drivers/STM32G4xx_HAL_Driver/Src/stm32g4xx_hal_sram.c ****   }
 637:Drivers/STM32G4xx_HAL_Driver/Src/stm32g4xx_hal_sram.c **** 
 638:Drivers/STM32G4xx_HAL_Driver/Src/stm32g4xx_hal_sram.c ****   return HAL_OK;
 639:Drivers/STM32G4xx_HAL_Driver/Src/stm32g4xx_hal_sram.c **** }
 640:Drivers/STM32G4xx_HAL_Driver/Src/stm32g4xx_hal_sram.c **** 
 641:Drivers/STM32G4xx_HAL_Driver/Src/stm32g4xx_hal_sram.c **** /**
 642:Drivers/STM32G4xx_HAL_Driver/Src/stm32g4xx_hal_sram.c ****   * @brief  Reads a Words data from the SRAM memory using DMA transfer.
 643:Drivers/STM32G4xx_HAL_Driver/Src/stm32g4xx_hal_sram.c ****   * @param  hsram pointer to a SRAM_HandleTypeDef structure that contains
 644:Drivers/STM32G4xx_HAL_Driver/Src/stm32g4xx_hal_sram.c ****   *                the configuration information for SRAM module.
 645:Drivers/STM32G4xx_HAL_Driver/Src/stm32g4xx_hal_sram.c ****   * @param  pAddress Pointer to read start address
 646:Drivers/STM32G4xx_HAL_Driver/Src/stm32g4xx_hal_sram.c ****   * @param  pDstBuffer Pointer to destination buffer
 647:Drivers/STM32G4xx_HAL_Driver/Src/stm32g4xx_hal_sram.c ****   * @param  BufferSize Size of the buffer to read from memory
 648:Drivers/STM32G4xx_HAL_Driver/Src/stm32g4xx_hal_sram.c ****   * @retval HAL status
 649:Drivers/STM32G4xx_HAL_Driver/Src/stm32g4xx_hal_sram.c ****   */
 650:Drivers/STM32G4xx_HAL_Driver/Src/stm32g4xx_hal_sram.c **** HAL_StatusTypeDef HAL_SRAM_Read_DMA(SRAM_HandleTypeDef *hsram, uint32_t *pAddress, uint32_t *pDstBu
 651:Drivers/STM32G4xx_HAL_Driver/Src/stm32g4xx_hal_sram.c ****                                     uint32_t BufferSize)
ARM GAS  /tmp/cc4B6zn6.s 			page 17


 652:Drivers/STM32G4xx_HAL_Driver/Src/stm32g4xx_hal_sram.c **** {
 653:Drivers/STM32G4xx_HAL_Driver/Src/stm32g4xx_hal_sram.c ****   HAL_StatusTypeDef status;
 654:Drivers/STM32G4xx_HAL_Driver/Src/stm32g4xx_hal_sram.c ****   HAL_SRAM_StateTypeDef state = hsram->State;
 655:Drivers/STM32G4xx_HAL_Driver/Src/stm32g4xx_hal_sram.c **** 
 656:Drivers/STM32G4xx_HAL_Driver/Src/stm32g4xx_hal_sram.c ****   /* Check the SRAM controller state */
 657:Drivers/STM32G4xx_HAL_Driver/Src/stm32g4xx_hal_sram.c ****   if ((state == HAL_SRAM_STATE_READY) || (state == HAL_SRAM_STATE_PROTECTED))
 658:Drivers/STM32G4xx_HAL_Driver/Src/stm32g4xx_hal_sram.c ****   {
 659:Drivers/STM32G4xx_HAL_Driver/Src/stm32g4xx_hal_sram.c ****     /* Process Locked */
 660:Drivers/STM32G4xx_HAL_Driver/Src/stm32g4xx_hal_sram.c ****     __HAL_LOCK(hsram);
 661:Drivers/STM32G4xx_HAL_Driver/Src/stm32g4xx_hal_sram.c **** 
 662:Drivers/STM32G4xx_HAL_Driver/Src/stm32g4xx_hal_sram.c ****     /* Update the SRAM controller state */
 663:Drivers/STM32G4xx_HAL_Driver/Src/stm32g4xx_hal_sram.c ****     hsram->State = HAL_SRAM_STATE_BUSY;
 664:Drivers/STM32G4xx_HAL_Driver/Src/stm32g4xx_hal_sram.c **** 
 665:Drivers/STM32G4xx_HAL_Driver/Src/stm32g4xx_hal_sram.c ****     /* Configure DMA user callbacks */
 666:Drivers/STM32G4xx_HAL_Driver/Src/stm32g4xx_hal_sram.c ****     if (state == HAL_SRAM_STATE_READY)
 667:Drivers/STM32G4xx_HAL_Driver/Src/stm32g4xx_hal_sram.c ****     {
 668:Drivers/STM32G4xx_HAL_Driver/Src/stm32g4xx_hal_sram.c ****       hsram->hdma->XferCpltCallback = SRAM_DMACplt;
 669:Drivers/STM32G4xx_HAL_Driver/Src/stm32g4xx_hal_sram.c ****     }
 670:Drivers/STM32G4xx_HAL_Driver/Src/stm32g4xx_hal_sram.c ****     else
 671:Drivers/STM32G4xx_HAL_Driver/Src/stm32g4xx_hal_sram.c ****     {
 672:Drivers/STM32G4xx_HAL_Driver/Src/stm32g4xx_hal_sram.c ****       hsram->hdma->XferCpltCallback = SRAM_DMACpltProt;
 673:Drivers/STM32G4xx_HAL_Driver/Src/stm32g4xx_hal_sram.c ****     }
 674:Drivers/STM32G4xx_HAL_Driver/Src/stm32g4xx_hal_sram.c ****     hsram->hdma->XferErrorCallback = SRAM_DMAError;
 675:Drivers/STM32G4xx_HAL_Driver/Src/stm32g4xx_hal_sram.c **** 
 676:Drivers/STM32G4xx_HAL_Driver/Src/stm32g4xx_hal_sram.c ****     /* Enable the DMA Stream */
 677:Drivers/STM32G4xx_HAL_Driver/Src/stm32g4xx_hal_sram.c ****     status = HAL_DMA_Start_IT(hsram->hdma, (uint32_t)pAddress, (uint32_t)pDstBuffer, (uint32_t)Buff
 678:Drivers/STM32G4xx_HAL_Driver/Src/stm32g4xx_hal_sram.c **** 
 679:Drivers/STM32G4xx_HAL_Driver/Src/stm32g4xx_hal_sram.c ****     /* Process unlocked */
 680:Drivers/STM32G4xx_HAL_Driver/Src/stm32g4xx_hal_sram.c ****     __HAL_UNLOCK(hsram);
 681:Drivers/STM32G4xx_HAL_Driver/Src/stm32g4xx_hal_sram.c ****   }
 682:Drivers/STM32G4xx_HAL_Driver/Src/stm32g4xx_hal_sram.c ****   else
 683:Drivers/STM32G4xx_HAL_Driver/Src/stm32g4xx_hal_sram.c ****   {
 684:Drivers/STM32G4xx_HAL_Driver/Src/stm32g4xx_hal_sram.c ****     status = HAL_ERROR;
 685:Drivers/STM32G4xx_HAL_Driver/Src/stm32g4xx_hal_sram.c ****   }
 686:Drivers/STM32G4xx_HAL_Driver/Src/stm32g4xx_hal_sram.c **** 
 687:Drivers/STM32G4xx_HAL_Driver/Src/stm32g4xx_hal_sram.c ****   return status;
 688:Drivers/STM32G4xx_HAL_Driver/Src/stm32g4xx_hal_sram.c **** }
 689:Drivers/STM32G4xx_HAL_Driver/Src/stm32g4xx_hal_sram.c **** 
 690:Drivers/STM32G4xx_HAL_Driver/Src/stm32g4xx_hal_sram.c **** /**
 691:Drivers/STM32G4xx_HAL_Driver/Src/stm32g4xx_hal_sram.c ****   * @brief  Writes a Words data buffer to SRAM memory using DMA transfer.
 692:Drivers/STM32G4xx_HAL_Driver/Src/stm32g4xx_hal_sram.c ****   * @param  hsram pointer to a SRAM_HandleTypeDef structure that contains
 693:Drivers/STM32G4xx_HAL_Driver/Src/stm32g4xx_hal_sram.c ****   *                the configuration information for SRAM module.
 694:Drivers/STM32G4xx_HAL_Driver/Src/stm32g4xx_hal_sram.c ****   * @param  pAddress Pointer to write start address
 695:Drivers/STM32G4xx_HAL_Driver/Src/stm32g4xx_hal_sram.c ****   * @param  pSrcBuffer Pointer to source buffer to write
 696:Drivers/STM32G4xx_HAL_Driver/Src/stm32g4xx_hal_sram.c ****   * @param  BufferSize Size of the buffer to write to memory
 697:Drivers/STM32G4xx_HAL_Driver/Src/stm32g4xx_hal_sram.c ****   * @retval HAL status
 698:Drivers/STM32G4xx_HAL_Driver/Src/stm32g4xx_hal_sram.c ****   */
 699:Drivers/STM32G4xx_HAL_Driver/Src/stm32g4xx_hal_sram.c **** HAL_StatusTypeDef HAL_SRAM_Write_DMA(SRAM_HandleTypeDef *hsram, uint32_t *pAddress, uint32_t *pSrcB
 700:Drivers/STM32G4xx_HAL_Driver/Src/stm32g4xx_hal_sram.c ****                                      uint32_t BufferSize)
 701:Drivers/STM32G4xx_HAL_Driver/Src/stm32g4xx_hal_sram.c **** {
 702:Drivers/STM32G4xx_HAL_Driver/Src/stm32g4xx_hal_sram.c ****   HAL_StatusTypeDef status;
 703:Drivers/STM32G4xx_HAL_Driver/Src/stm32g4xx_hal_sram.c **** 
 704:Drivers/STM32G4xx_HAL_Driver/Src/stm32g4xx_hal_sram.c ****   /* Check the SRAM controller state */
 705:Drivers/STM32G4xx_HAL_Driver/Src/stm32g4xx_hal_sram.c ****   if (hsram->State == HAL_SRAM_STATE_READY)
 706:Drivers/STM32G4xx_HAL_Driver/Src/stm32g4xx_hal_sram.c ****   {
 707:Drivers/STM32G4xx_HAL_Driver/Src/stm32g4xx_hal_sram.c ****     /* Process Locked */
 708:Drivers/STM32G4xx_HAL_Driver/Src/stm32g4xx_hal_sram.c ****     __HAL_LOCK(hsram);
ARM GAS  /tmp/cc4B6zn6.s 			page 18


 709:Drivers/STM32G4xx_HAL_Driver/Src/stm32g4xx_hal_sram.c **** 
 710:Drivers/STM32G4xx_HAL_Driver/Src/stm32g4xx_hal_sram.c ****     /* Update the SRAM controller state */
 711:Drivers/STM32G4xx_HAL_Driver/Src/stm32g4xx_hal_sram.c ****     hsram->State = HAL_SRAM_STATE_BUSY;
 712:Drivers/STM32G4xx_HAL_Driver/Src/stm32g4xx_hal_sram.c **** 
 713:Drivers/STM32G4xx_HAL_Driver/Src/stm32g4xx_hal_sram.c ****     /* Configure DMA user callbacks */
 714:Drivers/STM32G4xx_HAL_Driver/Src/stm32g4xx_hal_sram.c ****     hsram->hdma->XferCpltCallback = SRAM_DMACplt;
 715:Drivers/STM32G4xx_HAL_Driver/Src/stm32g4xx_hal_sram.c ****     hsram->hdma->XferErrorCallback = SRAM_DMAError;
 716:Drivers/STM32G4xx_HAL_Driver/Src/stm32g4xx_hal_sram.c **** 
 717:Drivers/STM32G4xx_HAL_Driver/Src/stm32g4xx_hal_sram.c ****     /* Enable the DMA Stream */
 718:Drivers/STM32G4xx_HAL_Driver/Src/stm32g4xx_hal_sram.c ****     status = HAL_DMA_Start_IT(hsram->hdma, (uint32_t)pSrcBuffer, (uint32_t)pAddress, (uint32_t)Buff
 719:Drivers/STM32G4xx_HAL_Driver/Src/stm32g4xx_hal_sram.c **** 
 720:Drivers/STM32G4xx_HAL_Driver/Src/stm32g4xx_hal_sram.c ****     /* Process unlocked */
 721:Drivers/STM32G4xx_HAL_Driver/Src/stm32g4xx_hal_sram.c ****     __HAL_UNLOCK(hsram);
 722:Drivers/STM32G4xx_HAL_Driver/Src/stm32g4xx_hal_sram.c ****   }
 723:Drivers/STM32G4xx_HAL_Driver/Src/stm32g4xx_hal_sram.c ****   else
 724:Drivers/STM32G4xx_HAL_Driver/Src/stm32g4xx_hal_sram.c ****   {
 725:Drivers/STM32G4xx_HAL_Driver/Src/stm32g4xx_hal_sram.c ****     status = HAL_ERROR;
 726:Drivers/STM32G4xx_HAL_Driver/Src/stm32g4xx_hal_sram.c ****   }
 727:Drivers/STM32G4xx_HAL_Driver/Src/stm32g4xx_hal_sram.c **** 
 728:Drivers/STM32G4xx_HAL_Driver/Src/stm32g4xx_hal_sram.c ****   return status;
 729:Drivers/STM32G4xx_HAL_Driver/Src/stm32g4xx_hal_sram.c **** }
 730:Drivers/STM32G4xx_HAL_Driver/Src/stm32g4xx_hal_sram.c **** 
 731:Drivers/STM32G4xx_HAL_Driver/Src/stm32g4xx_hal_sram.c **** #if (USE_HAL_SRAM_REGISTER_CALLBACKS == 1)
 732:Drivers/STM32G4xx_HAL_Driver/Src/stm32g4xx_hal_sram.c **** /**
 733:Drivers/STM32G4xx_HAL_Driver/Src/stm32g4xx_hal_sram.c ****   * @brief  Register a User SRAM Callback
 734:Drivers/STM32G4xx_HAL_Driver/Src/stm32g4xx_hal_sram.c ****   *         To be used instead of the weak (surcharged) predefined callback
 735:Drivers/STM32G4xx_HAL_Driver/Src/stm32g4xx_hal_sram.c ****   * @param hsram : SRAM handle
 736:Drivers/STM32G4xx_HAL_Driver/Src/stm32g4xx_hal_sram.c ****   * @param CallbackId : ID of the callback to be registered
 737:Drivers/STM32G4xx_HAL_Driver/Src/stm32g4xx_hal_sram.c ****   *        This parameter can be one of the following values:
 738:Drivers/STM32G4xx_HAL_Driver/Src/stm32g4xx_hal_sram.c ****   *          @arg @ref HAL_SRAM_MSP_INIT_CB_ID       SRAM MspInit callback ID
 739:Drivers/STM32G4xx_HAL_Driver/Src/stm32g4xx_hal_sram.c ****   *          @arg @ref HAL_SRAM_MSP_DEINIT_CB_ID     SRAM MspDeInit callback ID
 740:Drivers/STM32G4xx_HAL_Driver/Src/stm32g4xx_hal_sram.c ****   * @param pCallback : pointer to the Callback function
 741:Drivers/STM32G4xx_HAL_Driver/Src/stm32g4xx_hal_sram.c ****   * @retval status
 742:Drivers/STM32G4xx_HAL_Driver/Src/stm32g4xx_hal_sram.c ****   */
 743:Drivers/STM32G4xx_HAL_Driver/Src/stm32g4xx_hal_sram.c **** HAL_StatusTypeDef HAL_SRAM_RegisterCallback(SRAM_HandleTypeDef *hsram, HAL_SRAM_CallbackIDTypeDef C
 744:Drivers/STM32G4xx_HAL_Driver/Src/stm32g4xx_hal_sram.c ****                                             pSRAM_CallbackTypeDef pCallback)
 745:Drivers/STM32G4xx_HAL_Driver/Src/stm32g4xx_hal_sram.c **** {
 746:Drivers/STM32G4xx_HAL_Driver/Src/stm32g4xx_hal_sram.c ****   HAL_StatusTypeDef status = HAL_OK;
 747:Drivers/STM32G4xx_HAL_Driver/Src/stm32g4xx_hal_sram.c ****   HAL_SRAM_StateTypeDef state;
 748:Drivers/STM32G4xx_HAL_Driver/Src/stm32g4xx_hal_sram.c **** 
 749:Drivers/STM32G4xx_HAL_Driver/Src/stm32g4xx_hal_sram.c ****   if (pCallback == NULL)
 750:Drivers/STM32G4xx_HAL_Driver/Src/stm32g4xx_hal_sram.c ****   {
 751:Drivers/STM32G4xx_HAL_Driver/Src/stm32g4xx_hal_sram.c ****     return HAL_ERROR;
 752:Drivers/STM32G4xx_HAL_Driver/Src/stm32g4xx_hal_sram.c ****   }
 753:Drivers/STM32G4xx_HAL_Driver/Src/stm32g4xx_hal_sram.c **** 
 754:Drivers/STM32G4xx_HAL_Driver/Src/stm32g4xx_hal_sram.c ****   /* Process locked */
 755:Drivers/STM32G4xx_HAL_Driver/Src/stm32g4xx_hal_sram.c ****   __HAL_LOCK(hsram);
 756:Drivers/STM32G4xx_HAL_Driver/Src/stm32g4xx_hal_sram.c **** 
 757:Drivers/STM32G4xx_HAL_Driver/Src/stm32g4xx_hal_sram.c ****   state = hsram->State;
 758:Drivers/STM32G4xx_HAL_Driver/Src/stm32g4xx_hal_sram.c ****   if ((state == HAL_SRAM_STATE_READY) || (state == HAL_SRAM_STATE_RESET) || (state == HAL_SRAM_STAT
 759:Drivers/STM32G4xx_HAL_Driver/Src/stm32g4xx_hal_sram.c ****   {
 760:Drivers/STM32G4xx_HAL_Driver/Src/stm32g4xx_hal_sram.c ****     switch (CallbackId)
 761:Drivers/STM32G4xx_HAL_Driver/Src/stm32g4xx_hal_sram.c ****     {
 762:Drivers/STM32G4xx_HAL_Driver/Src/stm32g4xx_hal_sram.c ****       case HAL_SRAM_MSP_INIT_CB_ID :
 763:Drivers/STM32G4xx_HAL_Driver/Src/stm32g4xx_hal_sram.c ****         hsram->MspInitCallback = pCallback;
 764:Drivers/STM32G4xx_HAL_Driver/Src/stm32g4xx_hal_sram.c ****         break;
 765:Drivers/STM32G4xx_HAL_Driver/Src/stm32g4xx_hal_sram.c ****       case HAL_SRAM_MSP_DEINIT_CB_ID :
ARM GAS  /tmp/cc4B6zn6.s 			page 19


 766:Drivers/STM32G4xx_HAL_Driver/Src/stm32g4xx_hal_sram.c ****         hsram->MspDeInitCallback = pCallback;
 767:Drivers/STM32G4xx_HAL_Driver/Src/stm32g4xx_hal_sram.c ****         break;
 768:Drivers/STM32G4xx_HAL_Driver/Src/stm32g4xx_hal_sram.c ****       default :
 769:Drivers/STM32G4xx_HAL_Driver/Src/stm32g4xx_hal_sram.c ****         /* update return status */
 770:Drivers/STM32G4xx_HAL_Driver/Src/stm32g4xx_hal_sram.c ****         status =  HAL_ERROR;
 771:Drivers/STM32G4xx_HAL_Driver/Src/stm32g4xx_hal_sram.c ****         break;
 772:Drivers/STM32G4xx_HAL_Driver/Src/stm32g4xx_hal_sram.c ****     }
 773:Drivers/STM32G4xx_HAL_Driver/Src/stm32g4xx_hal_sram.c ****   }
 774:Drivers/STM32G4xx_HAL_Driver/Src/stm32g4xx_hal_sram.c ****   else
 775:Drivers/STM32G4xx_HAL_Driver/Src/stm32g4xx_hal_sram.c ****   {
 776:Drivers/STM32G4xx_HAL_Driver/Src/stm32g4xx_hal_sram.c ****     /* update return status */
 777:Drivers/STM32G4xx_HAL_Driver/Src/stm32g4xx_hal_sram.c ****     status =  HAL_ERROR;
 778:Drivers/STM32G4xx_HAL_Driver/Src/stm32g4xx_hal_sram.c ****   }
 779:Drivers/STM32G4xx_HAL_Driver/Src/stm32g4xx_hal_sram.c **** 
 780:Drivers/STM32G4xx_HAL_Driver/Src/stm32g4xx_hal_sram.c ****   /* Release Lock */
 781:Drivers/STM32G4xx_HAL_Driver/Src/stm32g4xx_hal_sram.c ****   __HAL_UNLOCK(hsram);
 782:Drivers/STM32G4xx_HAL_Driver/Src/stm32g4xx_hal_sram.c ****   return status;
 783:Drivers/STM32G4xx_HAL_Driver/Src/stm32g4xx_hal_sram.c **** }
 784:Drivers/STM32G4xx_HAL_Driver/Src/stm32g4xx_hal_sram.c **** 
 785:Drivers/STM32G4xx_HAL_Driver/Src/stm32g4xx_hal_sram.c **** /**
 786:Drivers/STM32G4xx_HAL_Driver/Src/stm32g4xx_hal_sram.c ****   * @brief  Unregister a User SRAM Callback
 787:Drivers/STM32G4xx_HAL_Driver/Src/stm32g4xx_hal_sram.c ****   *         SRAM Callback is redirected to the weak (surcharged) predefined callback
 788:Drivers/STM32G4xx_HAL_Driver/Src/stm32g4xx_hal_sram.c ****   * @param hsram : SRAM handle
 789:Drivers/STM32G4xx_HAL_Driver/Src/stm32g4xx_hal_sram.c ****   * @param CallbackId : ID of the callback to be unregistered
 790:Drivers/STM32G4xx_HAL_Driver/Src/stm32g4xx_hal_sram.c ****   *        This parameter can be one of the following values:
 791:Drivers/STM32G4xx_HAL_Driver/Src/stm32g4xx_hal_sram.c ****   *          @arg @ref HAL_SRAM_MSP_INIT_CB_ID       SRAM MspInit callback ID
 792:Drivers/STM32G4xx_HAL_Driver/Src/stm32g4xx_hal_sram.c ****   *          @arg @ref HAL_SRAM_MSP_DEINIT_CB_ID     SRAM MspDeInit callback ID
 793:Drivers/STM32G4xx_HAL_Driver/Src/stm32g4xx_hal_sram.c ****   *          @arg @ref HAL_SRAM_DMA_XFER_CPLT_CB_ID  SRAM DMA Xfer Complete callback ID
 794:Drivers/STM32G4xx_HAL_Driver/Src/stm32g4xx_hal_sram.c ****   *          @arg @ref HAL_SRAM_DMA_XFER_ERR_CB_ID   SRAM DMA Xfer Error callback ID
 795:Drivers/STM32G4xx_HAL_Driver/Src/stm32g4xx_hal_sram.c ****   * @retval status
 796:Drivers/STM32G4xx_HAL_Driver/Src/stm32g4xx_hal_sram.c ****   */
 797:Drivers/STM32G4xx_HAL_Driver/Src/stm32g4xx_hal_sram.c **** HAL_StatusTypeDef HAL_SRAM_UnRegisterCallback(SRAM_HandleTypeDef *hsram, HAL_SRAM_CallbackIDTypeDef
 798:Drivers/STM32G4xx_HAL_Driver/Src/stm32g4xx_hal_sram.c **** {
 799:Drivers/STM32G4xx_HAL_Driver/Src/stm32g4xx_hal_sram.c ****   HAL_StatusTypeDef status = HAL_OK;
 800:Drivers/STM32G4xx_HAL_Driver/Src/stm32g4xx_hal_sram.c ****   HAL_SRAM_StateTypeDef state;
 801:Drivers/STM32G4xx_HAL_Driver/Src/stm32g4xx_hal_sram.c **** 
 802:Drivers/STM32G4xx_HAL_Driver/Src/stm32g4xx_hal_sram.c ****   /* Process locked */
 803:Drivers/STM32G4xx_HAL_Driver/Src/stm32g4xx_hal_sram.c ****   __HAL_LOCK(hsram);
 804:Drivers/STM32G4xx_HAL_Driver/Src/stm32g4xx_hal_sram.c **** 
 805:Drivers/STM32G4xx_HAL_Driver/Src/stm32g4xx_hal_sram.c ****   state = hsram->State;
 806:Drivers/STM32G4xx_HAL_Driver/Src/stm32g4xx_hal_sram.c ****   if ((state == HAL_SRAM_STATE_READY) || (state == HAL_SRAM_STATE_PROTECTED))
 807:Drivers/STM32G4xx_HAL_Driver/Src/stm32g4xx_hal_sram.c ****   {
 808:Drivers/STM32G4xx_HAL_Driver/Src/stm32g4xx_hal_sram.c ****     switch (CallbackId)
 809:Drivers/STM32G4xx_HAL_Driver/Src/stm32g4xx_hal_sram.c ****     {
 810:Drivers/STM32G4xx_HAL_Driver/Src/stm32g4xx_hal_sram.c ****       case HAL_SRAM_MSP_INIT_CB_ID :
 811:Drivers/STM32G4xx_HAL_Driver/Src/stm32g4xx_hal_sram.c ****         hsram->MspInitCallback = HAL_SRAM_MspInit;
 812:Drivers/STM32G4xx_HAL_Driver/Src/stm32g4xx_hal_sram.c ****         break;
 813:Drivers/STM32G4xx_HAL_Driver/Src/stm32g4xx_hal_sram.c ****       case HAL_SRAM_MSP_DEINIT_CB_ID :
 814:Drivers/STM32G4xx_HAL_Driver/Src/stm32g4xx_hal_sram.c ****         hsram->MspDeInitCallback = HAL_SRAM_MspDeInit;
 815:Drivers/STM32G4xx_HAL_Driver/Src/stm32g4xx_hal_sram.c ****         break;
 816:Drivers/STM32G4xx_HAL_Driver/Src/stm32g4xx_hal_sram.c ****       case HAL_SRAM_DMA_XFER_CPLT_CB_ID :
 817:Drivers/STM32G4xx_HAL_Driver/Src/stm32g4xx_hal_sram.c ****         hsram->DmaXferCpltCallback = HAL_SRAM_DMA_XferCpltCallback;
 818:Drivers/STM32G4xx_HAL_Driver/Src/stm32g4xx_hal_sram.c ****         break;
 819:Drivers/STM32G4xx_HAL_Driver/Src/stm32g4xx_hal_sram.c ****       case HAL_SRAM_DMA_XFER_ERR_CB_ID :
 820:Drivers/STM32G4xx_HAL_Driver/Src/stm32g4xx_hal_sram.c ****         hsram->DmaXferErrorCallback = HAL_SRAM_DMA_XferErrorCallback;
 821:Drivers/STM32G4xx_HAL_Driver/Src/stm32g4xx_hal_sram.c ****         break;
 822:Drivers/STM32G4xx_HAL_Driver/Src/stm32g4xx_hal_sram.c ****       default :
ARM GAS  /tmp/cc4B6zn6.s 			page 20


 823:Drivers/STM32G4xx_HAL_Driver/Src/stm32g4xx_hal_sram.c ****         /* update return status */
 824:Drivers/STM32G4xx_HAL_Driver/Src/stm32g4xx_hal_sram.c ****         status =  HAL_ERROR;
 825:Drivers/STM32G4xx_HAL_Driver/Src/stm32g4xx_hal_sram.c ****         break;
 826:Drivers/STM32G4xx_HAL_Driver/Src/stm32g4xx_hal_sram.c ****     }
 827:Drivers/STM32G4xx_HAL_Driver/Src/stm32g4xx_hal_sram.c ****   }
 828:Drivers/STM32G4xx_HAL_Driver/Src/stm32g4xx_hal_sram.c ****   else if (state == HAL_SRAM_STATE_RESET)
 829:Drivers/STM32G4xx_HAL_Driver/Src/stm32g4xx_hal_sram.c ****   {
 830:Drivers/STM32G4xx_HAL_Driver/Src/stm32g4xx_hal_sram.c ****     switch (CallbackId)
 831:Drivers/STM32G4xx_HAL_Driver/Src/stm32g4xx_hal_sram.c ****     {
 832:Drivers/STM32G4xx_HAL_Driver/Src/stm32g4xx_hal_sram.c ****       case HAL_SRAM_MSP_INIT_CB_ID :
 833:Drivers/STM32G4xx_HAL_Driver/Src/stm32g4xx_hal_sram.c ****         hsram->MspInitCallback = HAL_SRAM_MspInit;
 834:Drivers/STM32G4xx_HAL_Driver/Src/stm32g4xx_hal_sram.c ****         break;
 835:Drivers/STM32G4xx_HAL_Driver/Src/stm32g4xx_hal_sram.c ****       case HAL_SRAM_MSP_DEINIT_CB_ID :
 836:Drivers/STM32G4xx_HAL_Driver/Src/stm32g4xx_hal_sram.c ****         hsram->MspDeInitCallback = HAL_SRAM_MspDeInit;
 837:Drivers/STM32G4xx_HAL_Driver/Src/stm32g4xx_hal_sram.c ****         break;
 838:Drivers/STM32G4xx_HAL_Driver/Src/stm32g4xx_hal_sram.c ****       default :
 839:Drivers/STM32G4xx_HAL_Driver/Src/stm32g4xx_hal_sram.c ****         /* update return status */
 840:Drivers/STM32G4xx_HAL_Driver/Src/stm32g4xx_hal_sram.c ****         status =  HAL_ERROR;
 841:Drivers/STM32G4xx_HAL_Driver/Src/stm32g4xx_hal_sram.c ****         break;
 842:Drivers/STM32G4xx_HAL_Driver/Src/stm32g4xx_hal_sram.c ****     }
 843:Drivers/STM32G4xx_HAL_Driver/Src/stm32g4xx_hal_sram.c ****   }
 844:Drivers/STM32G4xx_HAL_Driver/Src/stm32g4xx_hal_sram.c ****   else
 845:Drivers/STM32G4xx_HAL_Driver/Src/stm32g4xx_hal_sram.c ****   {
 846:Drivers/STM32G4xx_HAL_Driver/Src/stm32g4xx_hal_sram.c ****     /* update return status */
 847:Drivers/STM32G4xx_HAL_Driver/Src/stm32g4xx_hal_sram.c ****     status =  HAL_ERROR;
 848:Drivers/STM32G4xx_HAL_Driver/Src/stm32g4xx_hal_sram.c ****   }
 849:Drivers/STM32G4xx_HAL_Driver/Src/stm32g4xx_hal_sram.c **** 
 850:Drivers/STM32G4xx_HAL_Driver/Src/stm32g4xx_hal_sram.c ****   /* Release Lock */
 851:Drivers/STM32G4xx_HAL_Driver/Src/stm32g4xx_hal_sram.c ****   __HAL_UNLOCK(hsram);
 852:Drivers/STM32G4xx_HAL_Driver/Src/stm32g4xx_hal_sram.c ****   return status;
 853:Drivers/STM32G4xx_HAL_Driver/Src/stm32g4xx_hal_sram.c **** }
 854:Drivers/STM32G4xx_HAL_Driver/Src/stm32g4xx_hal_sram.c **** 
 855:Drivers/STM32G4xx_HAL_Driver/Src/stm32g4xx_hal_sram.c **** /**
 856:Drivers/STM32G4xx_HAL_Driver/Src/stm32g4xx_hal_sram.c ****   * @brief  Register a User SRAM Callback for DMA transfers
 857:Drivers/STM32G4xx_HAL_Driver/Src/stm32g4xx_hal_sram.c ****   *         To be used instead of the weak (surcharged) predefined callback
 858:Drivers/STM32G4xx_HAL_Driver/Src/stm32g4xx_hal_sram.c ****   * @param hsram : SRAM handle
 859:Drivers/STM32G4xx_HAL_Driver/Src/stm32g4xx_hal_sram.c ****   * @param CallbackId : ID of the callback to be registered
 860:Drivers/STM32G4xx_HAL_Driver/Src/stm32g4xx_hal_sram.c ****   *        This parameter can be one of the following values:
 861:Drivers/STM32G4xx_HAL_Driver/Src/stm32g4xx_hal_sram.c ****   *          @arg @ref HAL_SRAM_DMA_XFER_CPLT_CB_ID  SRAM DMA Xfer Complete callback ID
 862:Drivers/STM32G4xx_HAL_Driver/Src/stm32g4xx_hal_sram.c ****   *          @arg @ref HAL_SRAM_DMA_XFER_ERR_CB_ID   SRAM DMA Xfer Error callback ID
 863:Drivers/STM32G4xx_HAL_Driver/Src/stm32g4xx_hal_sram.c ****   * @param pCallback : pointer to the Callback function
 864:Drivers/STM32G4xx_HAL_Driver/Src/stm32g4xx_hal_sram.c ****   * @retval status
 865:Drivers/STM32G4xx_HAL_Driver/Src/stm32g4xx_hal_sram.c ****   */
 866:Drivers/STM32G4xx_HAL_Driver/Src/stm32g4xx_hal_sram.c **** HAL_StatusTypeDef HAL_SRAM_RegisterDmaCallback(SRAM_HandleTypeDef *hsram, HAL_SRAM_CallbackIDTypeDe
 867:Drivers/STM32G4xx_HAL_Driver/Src/stm32g4xx_hal_sram.c ****                                                pSRAM_DmaCallbackTypeDef pCallback)
 868:Drivers/STM32G4xx_HAL_Driver/Src/stm32g4xx_hal_sram.c **** {
 869:Drivers/STM32G4xx_HAL_Driver/Src/stm32g4xx_hal_sram.c ****   HAL_StatusTypeDef status = HAL_OK;
 870:Drivers/STM32G4xx_HAL_Driver/Src/stm32g4xx_hal_sram.c ****   HAL_SRAM_StateTypeDef state;
 871:Drivers/STM32G4xx_HAL_Driver/Src/stm32g4xx_hal_sram.c **** 
 872:Drivers/STM32G4xx_HAL_Driver/Src/stm32g4xx_hal_sram.c ****   if (pCallback == NULL)
 873:Drivers/STM32G4xx_HAL_Driver/Src/stm32g4xx_hal_sram.c ****   {
 874:Drivers/STM32G4xx_HAL_Driver/Src/stm32g4xx_hal_sram.c ****     return HAL_ERROR;
 875:Drivers/STM32G4xx_HAL_Driver/Src/stm32g4xx_hal_sram.c ****   }
 876:Drivers/STM32G4xx_HAL_Driver/Src/stm32g4xx_hal_sram.c **** 
 877:Drivers/STM32G4xx_HAL_Driver/Src/stm32g4xx_hal_sram.c ****   /* Process locked */
 878:Drivers/STM32G4xx_HAL_Driver/Src/stm32g4xx_hal_sram.c ****   __HAL_LOCK(hsram);
 879:Drivers/STM32G4xx_HAL_Driver/Src/stm32g4xx_hal_sram.c **** 
ARM GAS  /tmp/cc4B6zn6.s 			page 21


 880:Drivers/STM32G4xx_HAL_Driver/Src/stm32g4xx_hal_sram.c ****   state = hsram->State;
 881:Drivers/STM32G4xx_HAL_Driver/Src/stm32g4xx_hal_sram.c ****   if ((state == HAL_SRAM_STATE_READY) || (state == HAL_SRAM_STATE_PROTECTED))
 882:Drivers/STM32G4xx_HAL_Driver/Src/stm32g4xx_hal_sram.c ****   {
 883:Drivers/STM32G4xx_HAL_Driver/Src/stm32g4xx_hal_sram.c ****     switch (CallbackId)
 884:Drivers/STM32G4xx_HAL_Driver/Src/stm32g4xx_hal_sram.c ****     {
 885:Drivers/STM32G4xx_HAL_Driver/Src/stm32g4xx_hal_sram.c ****       case HAL_SRAM_DMA_XFER_CPLT_CB_ID :
 886:Drivers/STM32G4xx_HAL_Driver/Src/stm32g4xx_hal_sram.c ****         hsram->DmaXferCpltCallback = pCallback;
 887:Drivers/STM32G4xx_HAL_Driver/Src/stm32g4xx_hal_sram.c ****         break;
 888:Drivers/STM32G4xx_HAL_Driver/Src/stm32g4xx_hal_sram.c ****       case HAL_SRAM_DMA_XFER_ERR_CB_ID :
 889:Drivers/STM32G4xx_HAL_Driver/Src/stm32g4xx_hal_sram.c ****         hsram->DmaXferErrorCallback = pCallback;
 890:Drivers/STM32G4xx_HAL_Driver/Src/stm32g4xx_hal_sram.c ****         break;
 891:Drivers/STM32G4xx_HAL_Driver/Src/stm32g4xx_hal_sram.c ****       default :
 892:Drivers/STM32G4xx_HAL_Driver/Src/stm32g4xx_hal_sram.c ****         /* update return status */
 893:Drivers/STM32G4xx_HAL_Driver/Src/stm32g4xx_hal_sram.c ****         status =  HAL_ERROR;
 894:Drivers/STM32G4xx_HAL_Driver/Src/stm32g4xx_hal_sram.c ****         break;
 895:Drivers/STM32G4xx_HAL_Driver/Src/stm32g4xx_hal_sram.c ****     }
 896:Drivers/STM32G4xx_HAL_Driver/Src/stm32g4xx_hal_sram.c ****   }
 897:Drivers/STM32G4xx_HAL_Driver/Src/stm32g4xx_hal_sram.c ****   else
 898:Drivers/STM32G4xx_HAL_Driver/Src/stm32g4xx_hal_sram.c ****   {
 899:Drivers/STM32G4xx_HAL_Driver/Src/stm32g4xx_hal_sram.c ****     /* update return status */
 900:Drivers/STM32G4xx_HAL_Driver/Src/stm32g4xx_hal_sram.c ****     status =  HAL_ERROR;
 901:Drivers/STM32G4xx_HAL_Driver/Src/stm32g4xx_hal_sram.c ****   }
 902:Drivers/STM32G4xx_HAL_Driver/Src/stm32g4xx_hal_sram.c **** 
 903:Drivers/STM32G4xx_HAL_Driver/Src/stm32g4xx_hal_sram.c ****   /* Release Lock */
 904:Drivers/STM32G4xx_HAL_Driver/Src/stm32g4xx_hal_sram.c ****   __HAL_UNLOCK(hsram);
 905:Drivers/STM32G4xx_HAL_Driver/Src/stm32g4xx_hal_sram.c ****   return status;
 906:Drivers/STM32G4xx_HAL_Driver/Src/stm32g4xx_hal_sram.c **** }
 907:Drivers/STM32G4xx_HAL_Driver/Src/stm32g4xx_hal_sram.c **** #endif /* USE_HAL_SRAM_REGISTER_CALLBACKS */
 908:Drivers/STM32G4xx_HAL_Driver/Src/stm32g4xx_hal_sram.c **** 
 909:Drivers/STM32G4xx_HAL_Driver/Src/stm32g4xx_hal_sram.c **** /**
 910:Drivers/STM32G4xx_HAL_Driver/Src/stm32g4xx_hal_sram.c ****   * @}
 911:Drivers/STM32G4xx_HAL_Driver/Src/stm32g4xx_hal_sram.c ****   */
 912:Drivers/STM32G4xx_HAL_Driver/Src/stm32g4xx_hal_sram.c **** 
 913:Drivers/STM32G4xx_HAL_Driver/Src/stm32g4xx_hal_sram.c **** /** @defgroup SRAM_Exported_Functions_Group3 Control functions
 914:Drivers/STM32G4xx_HAL_Driver/Src/stm32g4xx_hal_sram.c ****   *  @brief   Control functions
 915:Drivers/STM32G4xx_HAL_Driver/Src/stm32g4xx_hal_sram.c ****   *
 916:Drivers/STM32G4xx_HAL_Driver/Src/stm32g4xx_hal_sram.c **** @verbatim
 917:Drivers/STM32G4xx_HAL_Driver/Src/stm32g4xx_hal_sram.c ****   ==============================================================================
 918:Drivers/STM32G4xx_HAL_Driver/Src/stm32g4xx_hal_sram.c ****                         ##### SRAM Control functions #####
 919:Drivers/STM32G4xx_HAL_Driver/Src/stm32g4xx_hal_sram.c ****   ==============================================================================
 920:Drivers/STM32G4xx_HAL_Driver/Src/stm32g4xx_hal_sram.c ****   [..]
 921:Drivers/STM32G4xx_HAL_Driver/Src/stm32g4xx_hal_sram.c ****     This subsection provides a set of functions allowing to control dynamically
 922:Drivers/STM32G4xx_HAL_Driver/Src/stm32g4xx_hal_sram.c ****     the SRAM interface.
 923:Drivers/STM32G4xx_HAL_Driver/Src/stm32g4xx_hal_sram.c **** 
 924:Drivers/STM32G4xx_HAL_Driver/Src/stm32g4xx_hal_sram.c **** @endverbatim
 925:Drivers/STM32G4xx_HAL_Driver/Src/stm32g4xx_hal_sram.c ****   * @{
 926:Drivers/STM32G4xx_HAL_Driver/Src/stm32g4xx_hal_sram.c ****   */
 927:Drivers/STM32G4xx_HAL_Driver/Src/stm32g4xx_hal_sram.c **** 
 928:Drivers/STM32G4xx_HAL_Driver/Src/stm32g4xx_hal_sram.c **** /**
 929:Drivers/STM32G4xx_HAL_Driver/Src/stm32g4xx_hal_sram.c ****   * @brief  Enables dynamically SRAM write operation.
 930:Drivers/STM32G4xx_HAL_Driver/Src/stm32g4xx_hal_sram.c ****   * @param  hsram pointer to a SRAM_HandleTypeDef structure that contains
 931:Drivers/STM32G4xx_HAL_Driver/Src/stm32g4xx_hal_sram.c ****   *                the configuration information for SRAM module.
 932:Drivers/STM32G4xx_HAL_Driver/Src/stm32g4xx_hal_sram.c ****   * @retval HAL status
 933:Drivers/STM32G4xx_HAL_Driver/Src/stm32g4xx_hal_sram.c ****   */
 934:Drivers/STM32G4xx_HAL_Driver/Src/stm32g4xx_hal_sram.c **** HAL_StatusTypeDef HAL_SRAM_WriteOperation_Enable(SRAM_HandleTypeDef *hsram)
 935:Drivers/STM32G4xx_HAL_Driver/Src/stm32g4xx_hal_sram.c **** {
 936:Drivers/STM32G4xx_HAL_Driver/Src/stm32g4xx_hal_sram.c ****   /* Check the SRAM controller state */
ARM GAS  /tmp/cc4B6zn6.s 			page 22


 937:Drivers/STM32G4xx_HAL_Driver/Src/stm32g4xx_hal_sram.c ****   if (hsram->State == HAL_SRAM_STATE_PROTECTED)
 938:Drivers/STM32G4xx_HAL_Driver/Src/stm32g4xx_hal_sram.c ****   {
 939:Drivers/STM32G4xx_HAL_Driver/Src/stm32g4xx_hal_sram.c ****     /* Process Locked */
 940:Drivers/STM32G4xx_HAL_Driver/Src/stm32g4xx_hal_sram.c ****     __HAL_LOCK(hsram);
 941:Drivers/STM32G4xx_HAL_Driver/Src/stm32g4xx_hal_sram.c **** 
 942:Drivers/STM32G4xx_HAL_Driver/Src/stm32g4xx_hal_sram.c ****     /* Update the SRAM controller state */
 943:Drivers/STM32G4xx_HAL_Driver/Src/stm32g4xx_hal_sram.c ****     hsram->State = HAL_SRAM_STATE_BUSY;
 944:Drivers/STM32G4xx_HAL_Driver/Src/stm32g4xx_hal_sram.c **** 
 945:Drivers/STM32G4xx_HAL_Driver/Src/stm32g4xx_hal_sram.c ****     /* Enable write operation */
 946:Drivers/STM32G4xx_HAL_Driver/Src/stm32g4xx_hal_sram.c ****     (void)FMC_NORSRAM_WriteOperation_Enable(hsram->Instance, hsram->Init.NSBank);
 947:Drivers/STM32G4xx_HAL_Driver/Src/stm32g4xx_hal_sram.c **** 
 948:Drivers/STM32G4xx_HAL_Driver/Src/stm32g4xx_hal_sram.c ****     /* Update the SRAM controller state */
 949:Drivers/STM32G4xx_HAL_Driver/Src/stm32g4xx_hal_sram.c ****     hsram->State = HAL_SRAM_STATE_READY;
 950:Drivers/STM32G4xx_HAL_Driver/Src/stm32g4xx_hal_sram.c **** 
 951:Drivers/STM32G4xx_HAL_Driver/Src/stm32g4xx_hal_sram.c ****     /* Process unlocked */
 952:Drivers/STM32G4xx_HAL_Driver/Src/stm32g4xx_hal_sram.c ****     __HAL_UNLOCK(hsram);
 953:Drivers/STM32G4xx_HAL_Driver/Src/stm32g4xx_hal_sram.c ****   }
 954:Drivers/STM32G4xx_HAL_Driver/Src/stm32g4xx_hal_sram.c ****   else
 955:Drivers/STM32G4xx_HAL_Driver/Src/stm32g4xx_hal_sram.c ****   {
 956:Drivers/STM32G4xx_HAL_Driver/Src/stm32g4xx_hal_sram.c ****     return HAL_ERROR;
 957:Drivers/STM32G4xx_HAL_Driver/Src/stm32g4xx_hal_sram.c ****   }
 958:Drivers/STM32G4xx_HAL_Driver/Src/stm32g4xx_hal_sram.c **** 
 959:Drivers/STM32G4xx_HAL_Driver/Src/stm32g4xx_hal_sram.c ****   return HAL_OK;
 960:Drivers/STM32G4xx_HAL_Driver/Src/stm32g4xx_hal_sram.c **** }
 961:Drivers/STM32G4xx_HAL_Driver/Src/stm32g4xx_hal_sram.c **** 
 962:Drivers/STM32G4xx_HAL_Driver/Src/stm32g4xx_hal_sram.c **** /**
 963:Drivers/STM32G4xx_HAL_Driver/Src/stm32g4xx_hal_sram.c ****   * @brief  Disables dynamically SRAM write operation.
 964:Drivers/STM32G4xx_HAL_Driver/Src/stm32g4xx_hal_sram.c ****   * @param  hsram pointer to a SRAM_HandleTypeDef structure that contains
 965:Drivers/STM32G4xx_HAL_Driver/Src/stm32g4xx_hal_sram.c ****   *                the configuration information for SRAM module.
 966:Drivers/STM32G4xx_HAL_Driver/Src/stm32g4xx_hal_sram.c ****   * @retval HAL status
 967:Drivers/STM32G4xx_HAL_Driver/Src/stm32g4xx_hal_sram.c ****   */
 968:Drivers/STM32G4xx_HAL_Driver/Src/stm32g4xx_hal_sram.c **** HAL_StatusTypeDef HAL_SRAM_WriteOperation_Disable(SRAM_HandleTypeDef *hsram)
 969:Drivers/STM32G4xx_HAL_Driver/Src/stm32g4xx_hal_sram.c **** {
 970:Drivers/STM32G4xx_HAL_Driver/Src/stm32g4xx_hal_sram.c ****   /* Check the SRAM controller state */
 971:Drivers/STM32G4xx_HAL_Driver/Src/stm32g4xx_hal_sram.c ****   if (hsram->State == HAL_SRAM_STATE_READY)
 972:Drivers/STM32G4xx_HAL_Driver/Src/stm32g4xx_hal_sram.c ****   {
 973:Drivers/STM32G4xx_HAL_Driver/Src/stm32g4xx_hal_sram.c ****     /* Process Locked */
 974:Drivers/STM32G4xx_HAL_Driver/Src/stm32g4xx_hal_sram.c ****     __HAL_LOCK(hsram);
 975:Drivers/STM32G4xx_HAL_Driver/Src/stm32g4xx_hal_sram.c **** 
 976:Drivers/STM32G4xx_HAL_Driver/Src/stm32g4xx_hal_sram.c ****     /* Update the SRAM controller state */
 977:Drivers/STM32G4xx_HAL_Driver/Src/stm32g4xx_hal_sram.c ****     hsram->State = HAL_SRAM_STATE_BUSY;
 978:Drivers/STM32G4xx_HAL_Driver/Src/stm32g4xx_hal_sram.c **** 
 979:Drivers/STM32G4xx_HAL_Driver/Src/stm32g4xx_hal_sram.c ****     /* Disable write operation */
 980:Drivers/STM32G4xx_HAL_Driver/Src/stm32g4xx_hal_sram.c ****     (void)FMC_NORSRAM_WriteOperation_Disable(hsram->Instance, hsram->Init.NSBank);
 981:Drivers/STM32G4xx_HAL_Driver/Src/stm32g4xx_hal_sram.c **** 
 982:Drivers/STM32G4xx_HAL_Driver/Src/stm32g4xx_hal_sram.c ****     /* Update the SRAM controller state */
 983:Drivers/STM32G4xx_HAL_Driver/Src/stm32g4xx_hal_sram.c ****     hsram->State = HAL_SRAM_STATE_PROTECTED;
 984:Drivers/STM32G4xx_HAL_Driver/Src/stm32g4xx_hal_sram.c **** 
 985:Drivers/STM32G4xx_HAL_Driver/Src/stm32g4xx_hal_sram.c ****     /* Process unlocked */
 986:Drivers/STM32G4xx_HAL_Driver/Src/stm32g4xx_hal_sram.c ****     __HAL_UNLOCK(hsram);
 987:Drivers/STM32G4xx_HAL_Driver/Src/stm32g4xx_hal_sram.c ****   }
 988:Drivers/STM32G4xx_HAL_Driver/Src/stm32g4xx_hal_sram.c ****   else
 989:Drivers/STM32G4xx_HAL_Driver/Src/stm32g4xx_hal_sram.c ****   {
 990:Drivers/STM32G4xx_HAL_Driver/Src/stm32g4xx_hal_sram.c ****     return HAL_ERROR;
 991:Drivers/STM32G4xx_HAL_Driver/Src/stm32g4xx_hal_sram.c ****   }
 992:Drivers/STM32G4xx_HAL_Driver/Src/stm32g4xx_hal_sram.c **** 
 993:Drivers/STM32G4xx_HAL_Driver/Src/stm32g4xx_hal_sram.c ****   return HAL_OK;
ARM GAS  /tmp/cc4B6zn6.s 			page 23


 994:Drivers/STM32G4xx_HAL_Driver/Src/stm32g4xx_hal_sram.c **** }
 995:Drivers/STM32G4xx_HAL_Driver/Src/stm32g4xx_hal_sram.c **** 
 996:Drivers/STM32G4xx_HAL_Driver/Src/stm32g4xx_hal_sram.c **** /**
 997:Drivers/STM32G4xx_HAL_Driver/Src/stm32g4xx_hal_sram.c ****   * @}
 998:Drivers/STM32G4xx_HAL_Driver/Src/stm32g4xx_hal_sram.c ****   */
 999:Drivers/STM32G4xx_HAL_Driver/Src/stm32g4xx_hal_sram.c **** 
1000:Drivers/STM32G4xx_HAL_Driver/Src/stm32g4xx_hal_sram.c **** /** @defgroup SRAM_Exported_Functions_Group4 Peripheral State functions
1001:Drivers/STM32G4xx_HAL_Driver/Src/stm32g4xx_hal_sram.c ****   *  @brief   Peripheral State functions
1002:Drivers/STM32G4xx_HAL_Driver/Src/stm32g4xx_hal_sram.c ****   *
1003:Drivers/STM32G4xx_HAL_Driver/Src/stm32g4xx_hal_sram.c **** @verbatim
1004:Drivers/STM32G4xx_HAL_Driver/Src/stm32g4xx_hal_sram.c ****   ==============================================================================
1005:Drivers/STM32G4xx_HAL_Driver/Src/stm32g4xx_hal_sram.c ****                       ##### SRAM State functions #####
1006:Drivers/STM32G4xx_HAL_Driver/Src/stm32g4xx_hal_sram.c ****   ==============================================================================
1007:Drivers/STM32G4xx_HAL_Driver/Src/stm32g4xx_hal_sram.c ****   [..]
1008:Drivers/STM32G4xx_HAL_Driver/Src/stm32g4xx_hal_sram.c ****     This subsection permits to get in run-time the status of the SRAM controller
1009:Drivers/STM32G4xx_HAL_Driver/Src/stm32g4xx_hal_sram.c ****     and the data flow.
1010:Drivers/STM32G4xx_HAL_Driver/Src/stm32g4xx_hal_sram.c **** 
1011:Drivers/STM32G4xx_HAL_Driver/Src/stm32g4xx_hal_sram.c **** @endverbatim
1012:Drivers/STM32G4xx_HAL_Driver/Src/stm32g4xx_hal_sram.c ****   * @{
1013:Drivers/STM32G4xx_HAL_Driver/Src/stm32g4xx_hal_sram.c ****   */
1014:Drivers/STM32G4xx_HAL_Driver/Src/stm32g4xx_hal_sram.c **** 
1015:Drivers/STM32G4xx_HAL_Driver/Src/stm32g4xx_hal_sram.c **** /**
1016:Drivers/STM32G4xx_HAL_Driver/Src/stm32g4xx_hal_sram.c ****   * @brief  Returns the SRAM controller state
1017:Drivers/STM32G4xx_HAL_Driver/Src/stm32g4xx_hal_sram.c ****   * @param  hsram pointer to a SRAM_HandleTypeDef structure that contains
1018:Drivers/STM32G4xx_HAL_Driver/Src/stm32g4xx_hal_sram.c ****   *                the configuration information for SRAM module.
1019:Drivers/STM32G4xx_HAL_Driver/Src/stm32g4xx_hal_sram.c ****   * @retval HAL state
1020:Drivers/STM32G4xx_HAL_Driver/Src/stm32g4xx_hal_sram.c ****   */
1021:Drivers/STM32G4xx_HAL_Driver/Src/stm32g4xx_hal_sram.c **** HAL_SRAM_StateTypeDef HAL_SRAM_GetState(SRAM_HandleTypeDef *hsram)
1022:Drivers/STM32G4xx_HAL_Driver/Src/stm32g4xx_hal_sram.c **** {
1023:Drivers/STM32G4xx_HAL_Driver/Src/stm32g4xx_hal_sram.c ****   return hsram->State;
1024:Drivers/STM32G4xx_HAL_Driver/Src/stm32g4xx_hal_sram.c **** }
1025:Drivers/STM32G4xx_HAL_Driver/Src/stm32g4xx_hal_sram.c **** 
1026:Drivers/STM32G4xx_HAL_Driver/Src/stm32g4xx_hal_sram.c **** /**
1027:Drivers/STM32G4xx_HAL_Driver/Src/stm32g4xx_hal_sram.c ****   * @}
1028:Drivers/STM32G4xx_HAL_Driver/Src/stm32g4xx_hal_sram.c ****   */
1029:Drivers/STM32G4xx_HAL_Driver/Src/stm32g4xx_hal_sram.c **** 
1030:Drivers/STM32G4xx_HAL_Driver/Src/stm32g4xx_hal_sram.c **** /**
1031:Drivers/STM32G4xx_HAL_Driver/Src/stm32g4xx_hal_sram.c ****   * @}
1032:Drivers/STM32G4xx_HAL_Driver/Src/stm32g4xx_hal_sram.c ****   */
1033:Drivers/STM32G4xx_HAL_Driver/Src/stm32g4xx_hal_sram.c **** 
1034:Drivers/STM32G4xx_HAL_Driver/Src/stm32g4xx_hal_sram.c **** /**
1035:Drivers/STM32G4xx_HAL_Driver/Src/stm32g4xx_hal_sram.c ****   * @brief  DMA SRAM process complete callback.
1036:Drivers/STM32G4xx_HAL_Driver/Src/stm32g4xx_hal_sram.c ****   * @param  hdma : DMA handle
1037:Drivers/STM32G4xx_HAL_Driver/Src/stm32g4xx_hal_sram.c ****   * @retval None
1038:Drivers/STM32G4xx_HAL_Driver/Src/stm32g4xx_hal_sram.c ****   */
1039:Drivers/STM32G4xx_HAL_Driver/Src/stm32g4xx_hal_sram.c **** static void SRAM_DMACplt(DMA_HandleTypeDef *hdma)
1040:Drivers/STM32G4xx_HAL_Driver/Src/stm32g4xx_hal_sram.c **** {
1041:Drivers/STM32G4xx_HAL_Driver/Src/stm32g4xx_hal_sram.c ****   SRAM_HandleTypeDef *hsram = (SRAM_HandleTypeDef *)(hdma->Parent);
1042:Drivers/STM32G4xx_HAL_Driver/Src/stm32g4xx_hal_sram.c **** 
1043:Drivers/STM32G4xx_HAL_Driver/Src/stm32g4xx_hal_sram.c ****   /* Disable the DMA channel */
1044:Drivers/STM32G4xx_HAL_Driver/Src/stm32g4xx_hal_sram.c ****   __HAL_DMA_DISABLE(hdma);
1045:Drivers/STM32G4xx_HAL_Driver/Src/stm32g4xx_hal_sram.c **** 
1046:Drivers/STM32G4xx_HAL_Driver/Src/stm32g4xx_hal_sram.c ****   /* Update the SRAM controller state */
1047:Drivers/STM32G4xx_HAL_Driver/Src/stm32g4xx_hal_sram.c ****   hsram->State = HAL_SRAM_STATE_READY;
1048:Drivers/STM32G4xx_HAL_Driver/Src/stm32g4xx_hal_sram.c **** 
1049:Drivers/STM32G4xx_HAL_Driver/Src/stm32g4xx_hal_sram.c **** #if (USE_HAL_SRAM_REGISTER_CALLBACKS == 1)
1050:Drivers/STM32G4xx_HAL_Driver/Src/stm32g4xx_hal_sram.c ****   hsram->DmaXferCpltCallback(hdma);
ARM GAS  /tmp/cc4B6zn6.s 			page 24


1051:Drivers/STM32G4xx_HAL_Driver/Src/stm32g4xx_hal_sram.c **** #else
1052:Drivers/STM32G4xx_HAL_Driver/Src/stm32g4xx_hal_sram.c ****   HAL_SRAM_DMA_XferCpltCallback(hdma);
1053:Drivers/STM32G4xx_HAL_Driver/Src/stm32g4xx_hal_sram.c **** #endif /* USE_HAL_SRAM_REGISTER_CALLBACKS */
1054:Drivers/STM32G4xx_HAL_Driver/Src/stm32g4xx_hal_sram.c **** }
1055:Drivers/STM32G4xx_HAL_Driver/Src/stm32g4xx_hal_sram.c **** 
1056:Drivers/STM32G4xx_HAL_Driver/Src/stm32g4xx_hal_sram.c **** /**
1057:Drivers/STM32G4xx_HAL_Driver/Src/stm32g4xx_hal_sram.c ****   * @brief  DMA SRAM process complete callback.
1058:Drivers/STM32G4xx_HAL_Driver/Src/stm32g4xx_hal_sram.c ****   * @param  hdma : DMA handle
1059:Drivers/STM32G4xx_HAL_Driver/Src/stm32g4xx_hal_sram.c ****   * @retval None
1060:Drivers/STM32G4xx_HAL_Driver/Src/stm32g4xx_hal_sram.c ****   */
1061:Drivers/STM32G4xx_HAL_Driver/Src/stm32g4xx_hal_sram.c **** static void SRAM_DMACpltProt(DMA_HandleTypeDef *hdma)
1062:Drivers/STM32G4xx_HAL_Driver/Src/stm32g4xx_hal_sram.c **** {
 235              		.loc 1 1062 1 is_stmt 1 view -0
 236              		.cfi_startproc
 237              		@ args = 0, pretend = 0, frame = 0
 238              		@ frame_needed = 0, uses_anonymous_args = 0
 239              		.loc 1 1062 1 is_stmt 0 view .LVU48
 240 0000 08B5     		push	{r3, lr}
 241              	.LCFI3:
 242              		.cfi_def_cfa_offset 8
 243              		.cfi_offset 3, -8
 244              		.cfi_offset 14, -4
1063:Drivers/STM32G4xx_HAL_Driver/Src/stm32g4xx_hal_sram.c ****   SRAM_HandleTypeDef *hsram = (SRAM_HandleTypeDef *)(hdma->Parent);
 245              		.loc 1 1063 3 is_stmt 1 view .LVU49
 246              		.loc 1 1063 23 is_stmt 0 view .LVU50
 247 0002 816A     		ldr	r1, [r0, #40]
 248              	.LVL16:
1064:Drivers/STM32G4xx_HAL_Driver/Src/stm32g4xx_hal_sram.c **** 
1065:Drivers/STM32G4xx_HAL_Driver/Src/stm32g4xx_hal_sram.c ****   /* Disable the DMA channel */
1066:Drivers/STM32G4xx_HAL_Driver/Src/stm32g4xx_hal_sram.c ****   __HAL_DMA_DISABLE(hdma);
 249              		.loc 1 1066 3 is_stmt 1 view .LVU51
 250 0004 0268     		ldr	r2, [r0]
 251 0006 1368     		ldr	r3, [r2]
 252 0008 23F00103 		bic	r3, r3, #1
 253 000c 1360     		str	r3, [r2]
1067:Drivers/STM32G4xx_HAL_Driver/Src/stm32g4xx_hal_sram.c **** 
1068:Drivers/STM32G4xx_HAL_Driver/Src/stm32g4xx_hal_sram.c ****   /* Update the SRAM controller state */
1069:Drivers/STM32G4xx_HAL_Driver/Src/stm32g4xx_hal_sram.c ****   hsram->State = HAL_SRAM_STATE_PROTECTED;
 254              		.loc 1 1069 3 view .LVU52
 255              		.loc 1 1069 16 is_stmt 0 view .LVU53
 256 000e 0423     		movs	r3, #4
 257 0010 81F85130 		strb	r3, [r1, #81]
1070:Drivers/STM32G4xx_HAL_Driver/Src/stm32g4xx_hal_sram.c **** 
1071:Drivers/STM32G4xx_HAL_Driver/Src/stm32g4xx_hal_sram.c **** #if (USE_HAL_SRAM_REGISTER_CALLBACKS == 1)
1072:Drivers/STM32G4xx_HAL_Driver/Src/stm32g4xx_hal_sram.c ****   hsram->DmaXferCpltCallback(hdma);
1073:Drivers/STM32G4xx_HAL_Driver/Src/stm32g4xx_hal_sram.c **** #else
1074:Drivers/STM32G4xx_HAL_Driver/Src/stm32g4xx_hal_sram.c ****   HAL_SRAM_DMA_XferCpltCallback(hdma);
 258              		.loc 1 1074 3 is_stmt 1 view .LVU54
 259 0014 FFF7FEFF 		bl	HAL_SRAM_DMA_XferCpltCallback
 260              	.LVL17:
1075:Drivers/STM32G4xx_HAL_Driver/Src/stm32g4xx_hal_sram.c **** #endif /* USE_HAL_SRAM_REGISTER_CALLBACKS */
1076:Drivers/STM32G4xx_HAL_Driver/Src/stm32g4xx_hal_sram.c **** }
 261              		.loc 1 1076 1 is_stmt 0 view .LVU55
 262 0018 08BD     		pop	{r3, pc}
 263              		.cfi_endproc
 264              	.LFE347:
 266              		.section	.text.SRAM_DMACplt,"ax",%progbits
ARM GAS  /tmp/cc4B6zn6.s 			page 25


 267              		.align	1
 268              		.syntax unified
 269              		.thumb
 270              		.thumb_func
 272              	SRAM_DMACplt:
 273              	.LVL18:
 274              	.LFB346:
1040:Drivers/STM32G4xx_HAL_Driver/Src/stm32g4xx_hal_sram.c ****   SRAM_HandleTypeDef *hsram = (SRAM_HandleTypeDef *)(hdma->Parent);
 275              		.loc 1 1040 1 is_stmt 1 view -0
 276              		.cfi_startproc
 277              		@ args = 0, pretend = 0, frame = 0
 278              		@ frame_needed = 0, uses_anonymous_args = 0
1040:Drivers/STM32G4xx_HAL_Driver/Src/stm32g4xx_hal_sram.c ****   SRAM_HandleTypeDef *hsram = (SRAM_HandleTypeDef *)(hdma->Parent);
 279              		.loc 1 1040 1 is_stmt 0 view .LVU57
 280 0000 08B5     		push	{r3, lr}
 281              	.LCFI4:
 282              		.cfi_def_cfa_offset 8
 283              		.cfi_offset 3, -8
 284              		.cfi_offset 14, -4
1041:Drivers/STM32G4xx_HAL_Driver/Src/stm32g4xx_hal_sram.c **** 
 285              		.loc 1 1041 3 is_stmt 1 view .LVU58
1041:Drivers/STM32G4xx_HAL_Driver/Src/stm32g4xx_hal_sram.c **** 
 286              		.loc 1 1041 23 is_stmt 0 view .LVU59
 287 0002 816A     		ldr	r1, [r0, #40]
 288              	.LVL19:
1044:Drivers/STM32G4xx_HAL_Driver/Src/stm32g4xx_hal_sram.c **** 
 289              		.loc 1 1044 3 is_stmt 1 view .LVU60
 290 0004 0268     		ldr	r2, [r0]
 291 0006 1368     		ldr	r3, [r2]
 292 0008 23F00103 		bic	r3, r3, #1
 293 000c 1360     		str	r3, [r2]
1047:Drivers/STM32G4xx_HAL_Driver/Src/stm32g4xx_hal_sram.c **** 
 294              		.loc 1 1047 3 view .LVU61
1047:Drivers/STM32G4xx_HAL_Driver/Src/stm32g4xx_hal_sram.c **** 
 295              		.loc 1 1047 16 is_stmt 0 view .LVU62
 296 000e 0123     		movs	r3, #1
 297 0010 81F85130 		strb	r3, [r1, #81]
1052:Drivers/STM32G4xx_HAL_Driver/Src/stm32g4xx_hal_sram.c **** #endif /* USE_HAL_SRAM_REGISTER_CALLBACKS */
 298              		.loc 1 1052 3 is_stmt 1 view .LVU63
 299 0014 FFF7FEFF 		bl	HAL_SRAM_DMA_XferCpltCallback
 300              	.LVL20:
1054:Drivers/STM32G4xx_HAL_Driver/Src/stm32g4xx_hal_sram.c **** 
 301              		.loc 1 1054 1 is_stmt 0 view .LVU64
 302 0018 08BD     		pop	{r3, pc}
 303              		.cfi_endproc
 304              	.LFE346:
 306              		.section	.text.HAL_SRAM_DMA_XferErrorCallback,"ax",%progbits
 307              		.align	1
 308              		.weak	HAL_SRAM_DMA_XferErrorCallback
 309              		.syntax unified
 310              		.thumb
 311              		.thumb_func
 313              	HAL_SRAM_DMA_XferErrorCallback:
 314              	.LVL21:
 315              	.LFB334:
 305:Drivers/STM32G4xx_HAL_Driver/Src/stm32g4xx_hal_sram.c ****   /* Prevent unused argument(s) compilation warning */
 316              		.loc 1 305 1 is_stmt 1 view -0
ARM GAS  /tmp/cc4B6zn6.s 			page 26


 317              		.cfi_startproc
 318              		@ args = 0, pretend = 0, frame = 0
 319              		@ frame_needed = 0, uses_anonymous_args = 0
 320              		@ link register save eliminated.
 307:Drivers/STM32G4xx_HAL_Driver/Src/stm32g4xx_hal_sram.c **** 
 321              		.loc 1 307 3 view .LVU66
 312:Drivers/STM32G4xx_HAL_Driver/Src/stm32g4xx_hal_sram.c **** 
 322              		.loc 1 312 1 is_stmt 0 view .LVU67
 323 0000 7047     		bx	lr
 324              		.cfi_endproc
 325              	.LFE334:
 327              		.section	.text.SRAM_DMAError,"ax",%progbits
 328              		.align	1
 329              		.syntax unified
 330              		.thumb
 331              		.thumb_func
 333              	SRAM_DMAError:
 334              	.LVL22:
 335              	.LFB348:
1077:Drivers/STM32G4xx_HAL_Driver/Src/stm32g4xx_hal_sram.c **** 
1078:Drivers/STM32G4xx_HAL_Driver/Src/stm32g4xx_hal_sram.c **** /**
1079:Drivers/STM32G4xx_HAL_Driver/Src/stm32g4xx_hal_sram.c ****   * @brief  DMA SRAM error callback.
1080:Drivers/STM32G4xx_HAL_Driver/Src/stm32g4xx_hal_sram.c ****   * @param  hdma : DMA handle
1081:Drivers/STM32G4xx_HAL_Driver/Src/stm32g4xx_hal_sram.c ****   * @retval None
1082:Drivers/STM32G4xx_HAL_Driver/Src/stm32g4xx_hal_sram.c ****   */
1083:Drivers/STM32G4xx_HAL_Driver/Src/stm32g4xx_hal_sram.c **** static void SRAM_DMAError(DMA_HandleTypeDef *hdma)
1084:Drivers/STM32G4xx_HAL_Driver/Src/stm32g4xx_hal_sram.c **** {
 336              		.loc 1 1084 1 is_stmt 1 view -0
 337              		.cfi_startproc
 338              		@ args = 0, pretend = 0, frame = 0
 339              		@ frame_needed = 0, uses_anonymous_args = 0
 340              		.loc 1 1084 1 is_stmt 0 view .LVU69
 341 0000 08B5     		push	{r3, lr}
 342              	.LCFI5:
 343              		.cfi_def_cfa_offset 8
 344              		.cfi_offset 3, -8
 345              		.cfi_offset 14, -4
1085:Drivers/STM32G4xx_HAL_Driver/Src/stm32g4xx_hal_sram.c ****   SRAM_HandleTypeDef *hsram = (SRAM_HandleTypeDef *)(hdma->Parent);
 346              		.loc 1 1085 3 is_stmt 1 view .LVU70
 347              		.loc 1 1085 23 is_stmt 0 view .LVU71
 348 0002 816A     		ldr	r1, [r0, #40]
 349              	.LVL23:
1086:Drivers/STM32G4xx_HAL_Driver/Src/stm32g4xx_hal_sram.c **** 
1087:Drivers/STM32G4xx_HAL_Driver/Src/stm32g4xx_hal_sram.c ****   /* Disable the DMA channel */
1088:Drivers/STM32G4xx_HAL_Driver/Src/stm32g4xx_hal_sram.c ****   __HAL_DMA_DISABLE(hdma);
 350              		.loc 1 1088 3 is_stmt 1 view .LVU72
 351 0004 0268     		ldr	r2, [r0]
 352 0006 1368     		ldr	r3, [r2]
 353 0008 23F00103 		bic	r3, r3, #1
 354 000c 1360     		str	r3, [r2]
1089:Drivers/STM32G4xx_HAL_Driver/Src/stm32g4xx_hal_sram.c **** 
1090:Drivers/STM32G4xx_HAL_Driver/Src/stm32g4xx_hal_sram.c ****   /* Update the SRAM controller state */
1091:Drivers/STM32G4xx_HAL_Driver/Src/stm32g4xx_hal_sram.c ****   hsram->State = HAL_SRAM_STATE_ERROR;
 355              		.loc 1 1091 3 view .LVU73
 356              		.loc 1 1091 16 is_stmt 0 view .LVU74
 357 000e 0323     		movs	r3, #3
 358 0010 81F85130 		strb	r3, [r1, #81]
ARM GAS  /tmp/cc4B6zn6.s 			page 27


1092:Drivers/STM32G4xx_HAL_Driver/Src/stm32g4xx_hal_sram.c **** 
1093:Drivers/STM32G4xx_HAL_Driver/Src/stm32g4xx_hal_sram.c **** #if (USE_HAL_SRAM_REGISTER_CALLBACKS == 1)
1094:Drivers/STM32G4xx_HAL_Driver/Src/stm32g4xx_hal_sram.c ****   hsram->DmaXferErrorCallback(hdma);
1095:Drivers/STM32G4xx_HAL_Driver/Src/stm32g4xx_hal_sram.c **** #else
1096:Drivers/STM32G4xx_HAL_Driver/Src/stm32g4xx_hal_sram.c ****   HAL_SRAM_DMA_XferErrorCallback(hdma);
 359              		.loc 1 1096 3 is_stmt 1 view .LVU75
 360 0014 FFF7FEFF 		bl	HAL_SRAM_DMA_XferErrorCallback
 361              	.LVL24:
1097:Drivers/STM32G4xx_HAL_Driver/Src/stm32g4xx_hal_sram.c **** #endif /* USE_HAL_SRAM_REGISTER_CALLBACKS */
1098:Drivers/STM32G4xx_HAL_Driver/Src/stm32g4xx_hal_sram.c **** }
 362              		.loc 1 1098 1 is_stmt 0 view .LVU76
 363 0018 08BD     		pop	{r3, pc}
 364              		.cfi_endproc
 365              	.LFE348:
 367              		.section	.text.HAL_SRAM_Read_8b,"ax",%progbits
 368              		.align	1
 369              		.global	HAL_SRAM_Read_8b
 370              		.syntax unified
 371              		.thumb
 372              		.thumb_func
 374              	HAL_SRAM_Read_8b:
 375              	.LVL25:
 376              	.LFB335:
 343:Drivers/STM32G4xx_HAL_Driver/Src/stm32g4xx_hal_sram.c ****   uint32_t size;
 377              		.loc 1 343 1 is_stmt 1 view -0
 378              		.cfi_startproc
 379              		@ args = 0, pretend = 0, frame = 0
 380              		@ frame_needed = 0, uses_anonymous_args = 0
 343:Drivers/STM32G4xx_HAL_Driver/Src/stm32g4xx_hal_sram.c ****   uint32_t size;
 381              		.loc 1 343 1 is_stmt 0 view .LVU78
 382 0000 00B5     		push	{lr}
 383              	.LCFI6:
 384              		.cfi_def_cfa_offset 4
 385              		.cfi_offset 14, -4
 344:Drivers/STM32G4xx_HAL_Driver/Src/stm32g4xx_hal_sram.c ****   __IO uint8_t *psramaddress = (uint8_t *)pAddress;
 386              		.loc 1 344 3 is_stmt 1 view .LVU79
 345:Drivers/STM32G4xx_HAL_Driver/Src/stm32g4xx_hal_sram.c ****   uint8_t *pdestbuff = pDstBuffer;
 387              		.loc 1 345 3 view .LVU80
 388              	.LVL26:
 346:Drivers/STM32G4xx_HAL_Driver/Src/stm32g4xx_hal_sram.c ****   HAL_SRAM_StateTypeDef state = hsram->State;
 389              		.loc 1 346 3 view .LVU81
 347:Drivers/STM32G4xx_HAL_Driver/Src/stm32g4xx_hal_sram.c **** 
 390              		.loc 1 347 3 view .LVU82
 347:Drivers/STM32G4xx_HAL_Driver/Src/stm32g4xx_hal_sram.c **** 
 391              		.loc 1 347 25 is_stmt 0 view .LVU83
 392 0002 90F851E0 		ldrb	lr, [r0, #81]	@ zero_extendqisi2
 393 0006 5FFA8EFE 		uxtb	lr, lr
 394              	.LVL27:
 350:Drivers/STM32G4xx_HAL_Driver/Src/stm32g4xx_hal_sram.c ****   {
 395              		.loc 1 350 3 is_stmt 1 view .LVU84
 350:Drivers/STM32G4xx_HAL_Driver/Src/stm32g4xx_hal_sram.c ****   {
 396              		.loc 1 350 6 is_stmt 0 view .LVU85
 397 000a BEF1010F 		cmp	lr, #1
 398 000e 02D0     		beq	.L23
 350:Drivers/STM32G4xx_HAL_Driver/Src/stm32g4xx_hal_sram.c ****   {
 399              		.loc 1 350 39 discriminator 1 view .LVU86
 400 0010 BEF1040F 		cmp	lr, #4
ARM GAS  /tmp/cc4B6zn6.s 			page 28


 401 0014 1BD1     		bne	.L27
 402              	.L23:
 353:Drivers/STM32G4xx_HAL_Driver/Src/stm32g4xx_hal_sram.c **** 
 403              		.loc 1 353 5 is_stmt 1 view .LVU87
 353:Drivers/STM32G4xx_HAL_Driver/Src/stm32g4xx_hal_sram.c **** 
 404              		.loc 1 353 5 view .LVU88
 405 0016 90F850C0 		ldrb	ip, [r0, #80]	@ zero_extendqisi2
 406 001a BCF1010F 		cmp	ip, #1
 407 001e 18D0     		beq	.L28
 353:Drivers/STM32G4xx_HAL_Driver/Src/stm32g4xx_hal_sram.c **** 
 408              		.loc 1 353 5 discriminator 2 view .LVU89
 409 0020 4FF0010C 		mov	ip, #1
 410 0024 80F850C0 		strb	ip, [r0, #80]
 353:Drivers/STM32G4xx_HAL_Driver/Src/stm32g4xx_hal_sram.c **** 
 411              		.loc 1 353 5 discriminator 2 view .LVU90
 356:Drivers/STM32G4xx_HAL_Driver/Src/stm32g4xx_hal_sram.c **** 
 412              		.loc 1 356 5 discriminator 2 view .LVU91
 356:Drivers/STM32G4xx_HAL_Driver/Src/stm32g4xx_hal_sram.c **** 
 413              		.loc 1 356 18 is_stmt 0 discriminator 2 view .LVU92
 414 0028 4FF0020C 		mov	ip, #2
 415 002c 80F851C0 		strb	ip, [r0, #81]
 359:Drivers/STM32G4xx_HAL_Driver/Src/stm32g4xx_hal_sram.c ****     {
 416              		.loc 1 359 5 is_stmt 1 discriminator 2 view .LVU93
 417              	.LVL28:
 359:Drivers/STM32G4xx_HAL_Driver/Src/stm32g4xx_hal_sram.c ****     {
 418              		.loc 1 359 5 is_stmt 0 discriminator 2 view .LVU94
 419 0030 04E0     		b	.L25
 420              	.LVL29:
 421              	.L26:
 361:Drivers/STM32G4xx_HAL_Driver/Src/stm32g4xx_hal_sram.c ****       pdestbuff++;
 422              		.loc 1 361 7 is_stmt 1 discriminator 3 view .LVU95
 361:Drivers/STM32G4xx_HAL_Driver/Src/stm32g4xx_hal_sram.c ****       pdestbuff++;
 423              		.loc 1 361 20 is_stmt 0 discriminator 3 view .LVU96
 424 0032 11F801CB 		ldrb	ip, [r1], #1	@ zero_extendqisi2
 425              	.LVL30:
 361:Drivers/STM32G4xx_HAL_Driver/Src/stm32g4xx_hal_sram.c ****       pdestbuff++;
 426              		.loc 1 361 18 discriminator 3 view .LVU97
 427 0036 02F801CB 		strb	ip, [r2], #1
 428              	.LVL31:
 362:Drivers/STM32G4xx_HAL_Driver/Src/stm32g4xx_hal_sram.c ****       psramaddress++;
 429              		.loc 1 362 7 is_stmt 1 discriminator 3 view .LVU98
 363:Drivers/STM32G4xx_HAL_Driver/Src/stm32g4xx_hal_sram.c ****     }
 430              		.loc 1 363 7 discriminator 3 view .LVU99
 359:Drivers/STM32G4xx_HAL_Driver/Src/stm32g4xx_hal_sram.c ****     {
 431              		.loc 1 359 41 discriminator 3 view .LVU100
 359:Drivers/STM32G4xx_HAL_Driver/Src/stm32g4xx_hal_sram.c ****     {
 432              		.loc 1 359 45 is_stmt 0 discriminator 3 view .LVU101
 433 003a 013B     		subs	r3, r3, #1
 434              	.LVL32:
 435              	.L25:
 359:Drivers/STM32G4xx_HAL_Driver/Src/stm32g4xx_hal_sram.c ****     {
 436              		.loc 1 359 29 is_stmt 1 discriminator 1 view .LVU102
 359:Drivers/STM32G4xx_HAL_Driver/Src/stm32g4xx_hal_sram.c ****     {
 437              		.loc 1 359 5 is_stmt 0 discriminator 1 view .LVU103
 438 003c 002B     		cmp	r3, #0
 439 003e F8D1     		bne	.L26
 367:Drivers/STM32G4xx_HAL_Driver/Src/stm32g4xx_hal_sram.c **** 
ARM GAS  /tmp/cc4B6zn6.s 			page 29


 440              		.loc 1 367 5 is_stmt 1 view .LVU104
 367:Drivers/STM32G4xx_HAL_Driver/Src/stm32g4xx_hal_sram.c **** 
 441              		.loc 1 367 18 is_stmt 0 view .LVU105
 442 0040 80F851E0 		strb	lr, [r0, #81]
 370:Drivers/STM32G4xx_HAL_Driver/Src/stm32g4xx_hal_sram.c ****   }
 443              		.loc 1 370 5 is_stmt 1 view .LVU106
 370:Drivers/STM32G4xx_HAL_Driver/Src/stm32g4xx_hal_sram.c ****   }
 444              		.loc 1 370 5 view .LVU107
 445 0044 80F85030 		strb	r3, [r0, #80]
 370:Drivers/STM32G4xx_HAL_Driver/Src/stm32g4xx_hal_sram.c ****   }
 446              		.loc 1 370 5 view .LVU108
 377:Drivers/STM32G4xx_HAL_Driver/Src/stm32g4xx_hal_sram.c **** }
 447              		.loc 1 377 3 view .LVU109
 377:Drivers/STM32G4xx_HAL_Driver/Src/stm32g4xx_hal_sram.c **** }
 448              		.loc 1 377 10 is_stmt 0 view .LVU110
 449 0048 1846     		mov	r0, r3
 450              	.LVL33:
 451              	.L24:
 378:Drivers/STM32G4xx_HAL_Driver/Src/stm32g4xx_hal_sram.c **** 
 452              		.loc 1 378 1 view .LVU111
 453 004a 5DF804FB 		ldr	pc, [sp], #4
 454              	.LVL34:
 455              	.L27:
 374:Drivers/STM32G4xx_HAL_Driver/Src/stm32g4xx_hal_sram.c ****   }
 456              		.loc 1 374 12 view .LVU112
 457 004e 0120     		movs	r0, #1
 458              	.LVL35:
 374:Drivers/STM32G4xx_HAL_Driver/Src/stm32g4xx_hal_sram.c ****   }
 459              		.loc 1 374 12 view .LVU113
 460 0050 FBE7     		b	.L24
 461              	.LVL36:
 462              	.L28:
 353:Drivers/STM32G4xx_HAL_Driver/Src/stm32g4xx_hal_sram.c **** 
 463              		.loc 1 353 5 view .LVU114
 464 0052 0220     		movs	r0, #2
 465              	.LVL37:
 353:Drivers/STM32G4xx_HAL_Driver/Src/stm32g4xx_hal_sram.c **** 
 466              		.loc 1 353 5 view .LVU115
 467 0054 F9E7     		b	.L24
 468              		.cfi_endproc
 469              	.LFE335:
 471              		.section	.text.HAL_SRAM_Write_8b,"ax",%progbits
 472              		.align	1
 473              		.global	HAL_SRAM_Write_8b
 474              		.syntax unified
 475              		.thumb
 476              		.thumb_func
 478              	HAL_SRAM_Write_8b:
 479              	.LVL38:
 480              	.LFB336:
 391:Drivers/STM32G4xx_HAL_Driver/Src/stm32g4xx_hal_sram.c ****   uint32_t size;
 481              		.loc 1 391 1 is_stmt 1 view -0
 482              		.cfi_startproc
 483              		@ args = 0, pretend = 0, frame = 0
 484              		@ frame_needed = 0, uses_anonymous_args = 0
 485              		@ link register save eliminated.
 392:Drivers/STM32G4xx_HAL_Driver/Src/stm32g4xx_hal_sram.c ****   __IO uint8_t *psramaddress = (uint8_t *)pAddress;
ARM GAS  /tmp/cc4B6zn6.s 			page 30


 486              		.loc 1 392 3 view .LVU117
 393:Drivers/STM32G4xx_HAL_Driver/Src/stm32g4xx_hal_sram.c ****   uint8_t *psrcbuff = pSrcBuffer;
 487              		.loc 1 393 3 view .LVU118
 394:Drivers/STM32G4xx_HAL_Driver/Src/stm32g4xx_hal_sram.c **** 
 488              		.loc 1 394 3 view .LVU119
 397:Drivers/STM32G4xx_HAL_Driver/Src/stm32g4xx_hal_sram.c ****   {
 489              		.loc 1 397 3 view .LVU120
 397:Drivers/STM32G4xx_HAL_Driver/Src/stm32g4xx_hal_sram.c ****   {
 490              		.loc 1 397 12 is_stmt 0 view .LVU121
 491 0000 90F851C0 		ldrb	ip, [r0, #81]	@ zero_extendqisi2
 492 0004 5FFA8CFC 		uxtb	ip, ip
 397:Drivers/STM32G4xx_HAL_Driver/Src/stm32g4xx_hal_sram.c ****   {
 493              		.loc 1 397 6 view .LVU122
 494 0008 BCF1010F 		cmp	ip, #1
 495 000c 1CD1     		bne	.L34
 400:Drivers/STM32G4xx_HAL_Driver/Src/stm32g4xx_hal_sram.c **** 
 496              		.loc 1 400 5 is_stmt 1 view .LVU123
 400:Drivers/STM32G4xx_HAL_Driver/Src/stm32g4xx_hal_sram.c **** 
 497              		.loc 1 400 5 view .LVU124
 498 000e 90F850C0 		ldrb	ip, [r0, #80]	@ zero_extendqisi2
 499 0012 BCF1010F 		cmp	ip, #1
 500 0016 19D0     		beq	.L35
 400:Drivers/STM32G4xx_HAL_Driver/Src/stm32g4xx_hal_sram.c **** 
 501              		.loc 1 400 5 discriminator 2 view .LVU125
 502 0018 4FF0010C 		mov	ip, #1
 503 001c 80F850C0 		strb	ip, [r0, #80]
 400:Drivers/STM32G4xx_HAL_Driver/Src/stm32g4xx_hal_sram.c **** 
 504              		.loc 1 400 5 discriminator 2 view .LVU126
 403:Drivers/STM32G4xx_HAL_Driver/Src/stm32g4xx_hal_sram.c **** 
 505              		.loc 1 403 5 discriminator 2 view .LVU127
 403:Drivers/STM32G4xx_HAL_Driver/Src/stm32g4xx_hal_sram.c **** 
 506              		.loc 1 403 18 is_stmt 0 discriminator 2 view .LVU128
 507 0020 4FF0020C 		mov	ip, #2
 508 0024 80F851C0 		strb	ip, [r0, #81]
 406:Drivers/STM32G4xx_HAL_Driver/Src/stm32g4xx_hal_sram.c ****     {
 509              		.loc 1 406 5 is_stmt 1 discriminator 2 view .LVU129
 510              	.LVL39:
 406:Drivers/STM32G4xx_HAL_Driver/Src/stm32g4xx_hal_sram.c ****     {
 511              		.loc 1 406 5 is_stmt 0 discriminator 2 view .LVU130
 512 0028 04E0     		b	.L32
 513              	.LVL40:
 514              	.L33:
 408:Drivers/STM32G4xx_HAL_Driver/Src/stm32g4xx_hal_sram.c ****       psrcbuff++;
 515              		.loc 1 408 7 is_stmt 1 discriminator 3 view .LVU131
 408:Drivers/STM32G4xx_HAL_Driver/Src/stm32g4xx_hal_sram.c ****       psrcbuff++;
 516              		.loc 1 408 23 is_stmt 0 discriminator 3 view .LVU132
 517 002a 12F801CB 		ldrb	ip, [r2], #1	@ zero_extendqisi2
 518              	.LVL41:
 408:Drivers/STM32G4xx_HAL_Driver/Src/stm32g4xx_hal_sram.c ****       psrcbuff++;
 519              		.loc 1 408 21 discriminator 3 view .LVU133
 520 002e 01F801CB 		strb	ip, [r1], #1
 521              	.LVL42:
 409:Drivers/STM32G4xx_HAL_Driver/Src/stm32g4xx_hal_sram.c ****       psramaddress++;
 522              		.loc 1 409 7 is_stmt 1 discriminator 3 view .LVU134
 410:Drivers/STM32G4xx_HAL_Driver/Src/stm32g4xx_hal_sram.c ****     }
 523              		.loc 1 410 7 discriminator 3 view .LVU135
 406:Drivers/STM32G4xx_HAL_Driver/Src/stm32g4xx_hal_sram.c ****     {
ARM GAS  /tmp/cc4B6zn6.s 			page 31


 524              		.loc 1 406 41 discriminator 3 view .LVU136
 406:Drivers/STM32G4xx_HAL_Driver/Src/stm32g4xx_hal_sram.c ****     {
 525              		.loc 1 406 45 is_stmt 0 discriminator 3 view .LVU137
 526 0032 013B     		subs	r3, r3, #1
 527              	.LVL43:
 528              	.L32:
 406:Drivers/STM32G4xx_HAL_Driver/Src/stm32g4xx_hal_sram.c ****     {
 529              		.loc 1 406 29 is_stmt 1 discriminator 1 view .LVU138
 406:Drivers/STM32G4xx_HAL_Driver/Src/stm32g4xx_hal_sram.c ****     {
 530              		.loc 1 406 5 is_stmt 0 discriminator 1 view .LVU139
 531 0034 002B     		cmp	r3, #0
 532 0036 F8D1     		bne	.L33
 414:Drivers/STM32G4xx_HAL_Driver/Src/stm32g4xx_hal_sram.c **** 
 533              		.loc 1 414 5 is_stmt 1 view .LVU140
 414:Drivers/STM32G4xx_HAL_Driver/Src/stm32g4xx_hal_sram.c **** 
 534              		.loc 1 414 18 is_stmt 0 view .LVU141
 535 0038 0123     		movs	r3, #1
 536              	.LVL44:
 414:Drivers/STM32G4xx_HAL_Driver/Src/stm32g4xx_hal_sram.c **** 
 537              		.loc 1 414 18 view .LVU142
 538 003a 80F85130 		strb	r3, [r0, #81]
 417:Drivers/STM32G4xx_HAL_Driver/Src/stm32g4xx_hal_sram.c ****   }
 539              		.loc 1 417 5 is_stmt 1 view .LVU143
 417:Drivers/STM32G4xx_HAL_Driver/Src/stm32g4xx_hal_sram.c ****   }
 540              		.loc 1 417 5 view .LVU144
 541 003e 0023     		movs	r3, #0
 542 0040 80F85030 		strb	r3, [r0, #80]
 417:Drivers/STM32G4xx_HAL_Driver/Src/stm32g4xx_hal_sram.c ****   }
 543              		.loc 1 417 5 view .LVU145
 424:Drivers/STM32G4xx_HAL_Driver/Src/stm32g4xx_hal_sram.c **** }
 544              		.loc 1 424 3 view .LVU146
 424:Drivers/STM32G4xx_HAL_Driver/Src/stm32g4xx_hal_sram.c **** }
 545              		.loc 1 424 10 is_stmt 0 view .LVU147
 546 0044 1846     		mov	r0, r3
 547              	.LVL45:
 424:Drivers/STM32G4xx_HAL_Driver/Src/stm32g4xx_hal_sram.c **** }
 548              		.loc 1 424 10 view .LVU148
 549 0046 7047     		bx	lr
 550              	.LVL46:
 551              	.L34:
 421:Drivers/STM32G4xx_HAL_Driver/Src/stm32g4xx_hal_sram.c ****   }
 552              		.loc 1 421 12 view .LVU149
 553 0048 0120     		movs	r0, #1
 554              	.LVL47:
 421:Drivers/STM32G4xx_HAL_Driver/Src/stm32g4xx_hal_sram.c ****   }
 555              		.loc 1 421 12 view .LVU150
 556 004a 7047     		bx	lr
 557              	.LVL48:
 558              	.L35:
 400:Drivers/STM32G4xx_HAL_Driver/Src/stm32g4xx_hal_sram.c **** 
 559              		.loc 1 400 5 view .LVU151
 560 004c 0220     		movs	r0, #2
 561              	.LVL49:
 425:Drivers/STM32G4xx_HAL_Driver/Src/stm32g4xx_hal_sram.c **** 
 562              		.loc 1 425 1 view .LVU152
 563 004e 7047     		bx	lr
 564              		.cfi_endproc
ARM GAS  /tmp/cc4B6zn6.s 			page 32


 565              	.LFE336:
 567              		.section	.text.HAL_SRAM_Read_16b,"ax",%progbits
 568              		.align	1
 569              		.global	HAL_SRAM_Read_16b
 570              		.syntax unified
 571              		.thumb
 572              		.thumb_func
 574              	HAL_SRAM_Read_16b:
 575              	.LVL50:
 576              	.LFB337:
 438:Drivers/STM32G4xx_HAL_Driver/Src/stm32g4xx_hal_sram.c ****   uint32_t size;
 577              		.loc 1 438 1 is_stmt 1 view -0
 578              		.cfi_startproc
 579              		@ args = 0, pretend = 0, frame = 0
 580              		@ frame_needed = 0, uses_anonymous_args = 0
 438:Drivers/STM32G4xx_HAL_Driver/Src/stm32g4xx_hal_sram.c ****   uint32_t size;
 581              		.loc 1 438 1 is_stmt 0 view .LVU154
 582 0000 30B5     		push	{r4, r5, lr}
 583              	.LCFI7:
 584              		.cfi_def_cfa_offset 12
 585              		.cfi_offset 4, -12
 586              		.cfi_offset 5, -8
 587              		.cfi_offset 14, -4
 439:Drivers/STM32G4xx_HAL_Driver/Src/stm32g4xx_hal_sram.c ****   __IO uint32_t *psramaddress = pAddress;
 588              		.loc 1 439 3 is_stmt 1 view .LVU155
 440:Drivers/STM32G4xx_HAL_Driver/Src/stm32g4xx_hal_sram.c ****   uint16_t *pdestbuff = pDstBuffer;
 589              		.loc 1 440 3 view .LVU156
 590              	.LVL51:
 441:Drivers/STM32G4xx_HAL_Driver/Src/stm32g4xx_hal_sram.c ****   uint8_t limit;
 591              		.loc 1 441 3 view .LVU157
 442:Drivers/STM32G4xx_HAL_Driver/Src/stm32g4xx_hal_sram.c ****   HAL_SRAM_StateTypeDef state = hsram->State;
 592              		.loc 1 442 3 view .LVU158
 443:Drivers/STM32G4xx_HAL_Driver/Src/stm32g4xx_hal_sram.c **** 
 593              		.loc 1 443 3 view .LVU159
 443:Drivers/STM32G4xx_HAL_Driver/Src/stm32g4xx_hal_sram.c **** 
 594              		.loc 1 443 25 is_stmt 0 view .LVU160
 595 0002 90F851E0 		ldrb	lr, [r0, #81]	@ zero_extendqisi2
 596 0006 5FFA8EFE 		uxtb	lr, lr
 597              	.LVL52:
 446:Drivers/STM32G4xx_HAL_Driver/Src/stm32g4xx_hal_sram.c ****   {
 598              		.loc 1 446 3 is_stmt 1 view .LVU161
 446:Drivers/STM32G4xx_HAL_Driver/Src/stm32g4xx_hal_sram.c ****   {
 599              		.loc 1 446 6 is_stmt 0 view .LVU162
 600 000a BEF1010F 		cmp	lr, #1
 601 000e 02D0     		beq	.L37
 446:Drivers/STM32G4xx_HAL_Driver/Src/stm32g4xx_hal_sram.c ****   {
 602              		.loc 1 446 39 discriminator 1 view .LVU163
 603 0010 BEF1040F 		cmp	lr, #4
 604 0014 22D1     		bne	.L42
 605              	.L37:
 449:Drivers/STM32G4xx_HAL_Driver/Src/stm32g4xx_hal_sram.c **** 
 606              		.loc 1 449 5 is_stmt 1 view .LVU164
 449:Drivers/STM32G4xx_HAL_Driver/Src/stm32g4xx_hal_sram.c **** 
 607              		.loc 1 449 5 view .LVU165
 608 0016 90F85040 		ldrb	r4, [r0, #80]	@ zero_extendqisi2
 609 001a 012C     		cmp	r4, #1
 610 001c 20D0     		beq	.L43
ARM GAS  /tmp/cc4B6zn6.s 			page 33


 449:Drivers/STM32G4xx_HAL_Driver/Src/stm32g4xx_hal_sram.c **** 
 611              		.loc 1 449 5 discriminator 2 view .LVU166
 612 001e 0124     		movs	r4, #1
 613 0020 80F85040 		strb	r4, [r0, #80]
 449:Drivers/STM32G4xx_HAL_Driver/Src/stm32g4xx_hal_sram.c **** 
 614              		.loc 1 449 5 discriminator 2 view .LVU167
 452:Drivers/STM32G4xx_HAL_Driver/Src/stm32g4xx_hal_sram.c **** 
 615              		.loc 1 452 5 discriminator 2 view .LVU168
 452:Drivers/STM32G4xx_HAL_Driver/Src/stm32g4xx_hal_sram.c **** 
 616              		.loc 1 452 18 is_stmt 0 discriminator 2 view .LVU169
 617 0024 0224     		movs	r4, #2
 618 0026 80F85140 		strb	r4, [r0, #81]
 455:Drivers/STM32G4xx_HAL_Driver/Src/stm32g4xx_hal_sram.c **** 
 619              		.loc 1 455 5 is_stmt 1 discriminator 2 view .LVU170
 455:Drivers/STM32G4xx_HAL_Driver/Src/stm32g4xx_hal_sram.c **** 
 620              		.loc 1 455 11 is_stmt 0 discriminator 2 view .LVU171
 621 002a 03F00105 		and	r5, r3, #1
 622              	.LVL53:
 458:Drivers/STM32G4xx_HAL_Driver/Src/stm32g4xx_hal_sram.c ****     {
 623              		.loc 1 458 5 is_stmt 1 discriminator 2 view .LVU172
 458:Drivers/STM32G4xx_HAL_Driver/Src/stm32g4xx_hal_sram.c ****     {
 624              		.loc 1 458 5 is_stmt 0 discriminator 2 view .LVU173
 625 002e 09E0     		b	.L39
 626              	.LVL54:
 627              	.L40:
 460:Drivers/STM32G4xx_HAL_Driver/Src/stm32g4xx_hal_sram.c ****       pdestbuff++;
 628              		.loc 1 460 7 is_stmt 1 discriminator 3 view .LVU174
 460:Drivers/STM32G4xx_HAL_Driver/Src/stm32g4xx_hal_sram.c ****       pdestbuff++;
 629              		.loc 1 460 32 is_stmt 0 discriminator 3 view .LVU175
 630 0030 0C68     		ldr	r4, [r1]
 460:Drivers/STM32G4xx_HAL_Driver/Src/stm32g4xx_hal_sram.c ****       pdestbuff++;
 631              		.loc 1 460 18 discriminator 3 view .LVU176
 632 0032 1480     		strh	r4, [r2]	@ movhi
 461:Drivers/STM32G4xx_HAL_Driver/Src/stm32g4xx_hal_sram.c ****       *pdestbuff = (uint16_t)(((*psramaddress) & 0xFFFF0000U) >> 16U);
 633              		.loc 1 461 7 is_stmt 1 discriminator 3 view .LVU177
 634              	.LVL55:
 462:Drivers/STM32G4xx_HAL_Driver/Src/stm32g4xx_hal_sram.c ****       pdestbuff++;
 635              		.loc 1 462 7 discriminator 3 view .LVU178
 462:Drivers/STM32G4xx_HAL_Driver/Src/stm32g4xx_hal_sram.c ****       pdestbuff++;
 636              		.loc 1 462 33 is_stmt 0 discriminator 3 view .LVU179
 637 0034 51F8044B 		ldr	r4, [r1], #4
 638              	.LVL56:
 462:Drivers/STM32G4xx_HAL_Driver/Src/stm32g4xx_hal_sram.c ****       pdestbuff++;
 639              		.loc 1 462 20 discriminator 3 view .LVU180
 640 0038 4FEA144C 		lsr	ip, r4, #16
 462:Drivers/STM32G4xx_HAL_Driver/Src/stm32g4xx_hal_sram.c ****       pdestbuff++;
 641              		.loc 1 462 18 discriminator 3 view .LVU181
 642 003c A2F802C0 		strh	ip, [r2, #2]	@ movhi
 463:Drivers/STM32G4xx_HAL_Driver/Src/stm32g4xx_hal_sram.c ****       psramaddress++;
 643              		.loc 1 463 7 is_stmt 1 discriminator 3 view .LVU182
 463:Drivers/STM32G4xx_HAL_Driver/Src/stm32g4xx_hal_sram.c ****       psramaddress++;
 644              		.loc 1 463 16 is_stmt 0 discriminator 3 view .LVU183
 645 0040 0432     		adds	r2, r2, #4
 646              	.LVL57:
 464:Drivers/STM32G4xx_HAL_Driver/Src/stm32g4xx_hal_sram.c ****     }
 647              		.loc 1 464 7 is_stmt 1 discriminator 3 view .LVU184
 458:Drivers/STM32G4xx_HAL_Driver/Src/stm32g4xx_hal_sram.c ****     {
ARM GAS  /tmp/cc4B6zn6.s 			page 34


 648              		.loc 1 458 44 discriminator 3 view .LVU185
 458:Drivers/STM32G4xx_HAL_Driver/Src/stm32g4xx_hal_sram.c ****     {
 649              		.loc 1 458 49 is_stmt 0 discriminator 3 view .LVU186
 650 0042 023B     		subs	r3, r3, #2
 651              	.LVL58:
 652              	.L39:
 458:Drivers/STM32G4xx_HAL_Driver/Src/stm32g4xx_hal_sram.c ****     {
 653              		.loc 1 458 29 is_stmt 1 discriminator 1 view .LVU187
 458:Drivers/STM32G4xx_HAL_Driver/Src/stm32g4xx_hal_sram.c ****     {
 654              		.loc 1 458 5 is_stmt 0 discriminator 1 view .LVU188
 655 0044 9D42     		cmp	r5, r3
 656 0046 F3D1     		bne	.L40
 468:Drivers/STM32G4xx_HAL_Driver/Src/stm32g4xx_hal_sram.c ****     {
 657              		.loc 1 468 5 is_stmt 1 view .LVU189
 468:Drivers/STM32G4xx_HAL_Driver/Src/stm32g4xx_hal_sram.c ****     {
 658              		.loc 1 468 8 is_stmt 0 view .LVU190
 659 0048 0DB1     		cbz	r5, .L41
 470:Drivers/STM32G4xx_HAL_Driver/Src/stm32g4xx_hal_sram.c ****     }
 660              		.loc 1 470 7 is_stmt 1 view .LVU191
 470:Drivers/STM32G4xx_HAL_Driver/Src/stm32g4xx_hal_sram.c ****     }
 661              		.loc 1 470 32 is_stmt 0 view .LVU192
 662 004a 0B68     		ldr	r3, [r1]
 663              	.LVL59:
 470:Drivers/STM32G4xx_HAL_Driver/Src/stm32g4xx_hal_sram.c ****     }
 664              		.loc 1 470 18 view .LVU193
 665 004c 1380     		strh	r3, [r2]	@ movhi
 666              	.L41:
 474:Drivers/STM32G4xx_HAL_Driver/Src/stm32g4xx_hal_sram.c **** 
 667              		.loc 1 474 5 is_stmt 1 view .LVU194
 474:Drivers/STM32G4xx_HAL_Driver/Src/stm32g4xx_hal_sram.c **** 
 668              		.loc 1 474 18 is_stmt 0 view .LVU195
 669 004e 80F851E0 		strb	lr, [r0, #81]
 477:Drivers/STM32G4xx_HAL_Driver/Src/stm32g4xx_hal_sram.c ****   }
 670              		.loc 1 477 5 is_stmt 1 view .LVU196
 477:Drivers/STM32G4xx_HAL_Driver/Src/stm32g4xx_hal_sram.c ****   }
 671              		.loc 1 477 5 view .LVU197
 672 0052 0023     		movs	r3, #0
 673 0054 80F85030 		strb	r3, [r0, #80]
 477:Drivers/STM32G4xx_HAL_Driver/Src/stm32g4xx_hal_sram.c ****   }
 674              		.loc 1 477 5 view .LVU198
 484:Drivers/STM32G4xx_HAL_Driver/Src/stm32g4xx_hal_sram.c **** }
 675              		.loc 1 484 3 view .LVU199
 484:Drivers/STM32G4xx_HAL_Driver/Src/stm32g4xx_hal_sram.c **** }
 676              		.loc 1 484 10 is_stmt 0 view .LVU200
 677 0058 1846     		mov	r0, r3
 678              	.LVL60:
 679              	.L38:
 485:Drivers/STM32G4xx_HAL_Driver/Src/stm32g4xx_hal_sram.c **** 
 680              		.loc 1 485 1 view .LVU201
 681 005a 30BD     		pop	{r4, r5, pc}
 682              	.LVL61:
 683              	.L42:
 481:Drivers/STM32G4xx_HAL_Driver/Src/stm32g4xx_hal_sram.c ****   }
 684              		.loc 1 481 12 view .LVU202
 685 005c 0120     		movs	r0, #1
 686              	.LVL62:
 481:Drivers/STM32G4xx_HAL_Driver/Src/stm32g4xx_hal_sram.c ****   }
ARM GAS  /tmp/cc4B6zn6.s 			page 35


 687              		.loc 1 481 12 view .LVU203
 688 005e FCE7     		b	.L38
 689              	.LVL63:
 690              	.L43:
 449:Drivers/STM32G4xx_HAL_Driver/Src/stm32g4xx_hal_sram.c **** 
 691              		.loc 1 449 5 view .LVU204
 692 0060 0220     		movs	r0, #2
 693              	.LVL64:
 449:Drivers/STM32G4xx_HAL_Driver/Src/stm32g4xx_hal_sram.c **** 
 694              		.loc 1 449 5 view .LVU205
 695 0062 FAE7     		b	.L38
 696              		.cfi_endproc
 697              	.LFE337:
 699              		.section	.text.HAL_SRAM_Write_16b,"ax",%progbits
 700              		.align	1
 701              		.global	HAL_SRAM_Write_16b
 702              		.syntax unified
 703              		.thumb
 704              		.thumb_func
 706              	HAL_SRAM_Write_16b:
 707              	.LVL65:
 708              	.LFB338:
 498:Drivers/STM32G4xx_HAL_Driver/Src/stm32g4xx_hal_sram.c ****   uint32_t size;
 709              		.loc 1 498 1 is_stmt 1 view -0
 710              		.cfi_startproc
 711              		@ args = 0, pretend = 0, frame = 0
 712              		@ frame_needed = 0, uses_anonymous_args = 0
 713              		@ link register save eliminated.
 498:Drivers/STM32G4xx_HAL_Driver/Src/stm32g4xx_hal_sram.c ****   uint32_t size;
 714              		.loc 1 498 1 is_stmt 0 view .LVU207
 715 0000 30B4     		push	{r4, r5}
 716              	.LCFI8:
 717              		.cfi_def_cfa_offset 8
 718              		.cfi_offset 4, -8
 719              		.cfi_offset 5, -4
 499:Drivers/STM32G4xx_HAL_Driver/Src/stm32g4xx_hal_sram.c ****   __IO uint32_t *psramaddress = pAddress;
 720              		.loc 1 499 3 is_stmt 1 view .LVU208
 500:Drivers/STM32G4xx_HAL_Driver/Src/stm32g4xx_hal_sram.c ****   uint16_t *psrcbuff = pSrcBuffer;
 721              		.loc 1 500 3 view .LVU209
 722              	.LVL66:
 501:Drivers/STM32G4xx_HAL_Driver/Src/stm32g4xx_hal_sram.c ****   uint8_t limit;
 723              		.loc 1 501 3 view .LVU210
 502:Drivers/STM32G4xx_HAL_Driver/Src/stm32g4xx_hal_sram.c **** 
 724              		.loc 1 502 3 view .LVU211
 505:Drivers/STM32G4xx_HAL_Driver/Src/stm32g4xx_hal_sram.c ****   {
 725              		.loc 1 505 3 view .LVU212
 505:Drivers/STM32G4xx_HAL_Driver/Src/stm32g4xx_hal_sram.c ****   {
 726              		.loc 1 505 12 is_stmt 0 view .LVU213
 727 0002 90F85140 		ldrb	r4, [r0, #81]	@ zero_extendqisi2
 728 0006 E4B2     		uxtb	r4, r4
 505:Drivers/STM32G4xx_HAL_Driver/Src/stm32g4xx_hal_sram.c ****   {
 729              		.loc 1 505 6 view .LVU214
 730 0008 012C     		cmp	r4, #1
 731 000a 28D1     		bne	.L50
 508:Drivers/STM32G4xx_HAL_Driver/Src/stm32g4xx_hal_sram.c **** 
 732              		.loc 1 508 5 is_stmt 1 view .LVU215
 508:Drivers/STM32G4xx_HAL_Driver/Src/stm32g4xx_hal_sram.c **** 
ARM GAS  /tmp/cc4B6zn6.s 			page 36


 733              		.loc 1 508 5 view .LVU216
 734 000c 90F85040 		ldrb	r4, [r0, #80]	@ zero_extendqisi2
 735 0010 012C     		cmp	r4, #1
 736 0012 27D0     		beq	.L51
 508:Drivers/STM32G4xx_HAL_Driver/Src/stm32g4xx_hal_sram.c **** 
 737              		.loc 1 508 5 discriminator 2 view .LVU217
 738 0014 0124     		movs	r4, #1
 739 0016 80F85040 		strb	r4, [r0, #80]
 508:Drivers/STM32G4xx_HAL_Driver/Src/stm32g4xx_hal_sram.c **** 
 740              		.loc 1 508 5 discriminator 2 view .LVU218
 511:Drivers/STM32G4xx_HAL_Driver/Src/stm32g4xx_hal_sram.c **** 
 741              		.loc 1 511 5 discriminator 2 view .LVU219
 511:Drivers/STM32G4xx_HAL_Driver/Src/stm32g4xx_hal_sram.c **** 
 742              		.loc 1 511 18 is_stmt 0 discriminator 2 view .LVU220
 743 001a 0224     		movs	r4, #2
 744 001c 80F85140 		strb	r4, [r0, #81]
 514:Drivers/STM32G4xx_HAL_Driver/Src/stm32g4xx_hal_sram.c **** 
 745              		.loc 1 514 5 is_stmt 1 discriminator 2 view .LVU221
 514:Drivers/STM32G4xx_HAL_Driver/Src/stm32g4xx_hal_sram.c **** 
 746              		.loc 1 514 11 is_stmt 0 discriminator 2 view .LVU222
 747 0020 03F00105 		and	r5, r3, #1
 748              	.LVL67:
 517:Drivers/STM32G4xx_HAL_Driver/Src/stm32g4xx_hal_sram.c ****     {
 749              		.loc 1 517 5 is_stmt 1 discriminator 2 view .LVU223
 517:Drivers/STM32G4xx_HAL_Driver/Src/stm32g4xx_hal_sram.c ****     {
 750              		.loc 1 517 5 is_stmt 0 discriminator 2 view .LVU224
 751 0024 0AE0     		b	.L47
 752              	.LVL68:
 753              	.L48:
 519:Drivers/STM32G4xx_HAL_Driver/Src/stm32g4xx_hal_sram.c ****       psrcbuff++;
 754              		.loc 1 519 7 is_stmt 1 discriminator 3 view .LVU225
 519:Drivers/STM32G4xx_HAL_Driver/Src/stm32g4xx_hal_sram.c ****       psrcbuff++;
 755              		.loc 1 519 34 is_stmt 0 discriminator 3 view .LVU226
 756 0026 1488     		ldrh	r4, [r2]
 519:Drivers/STM32G4xx_HAL_Driver/Src/stm32g4xx_hal_sram.c ****       psrcbuff++;
 757              		.loc 1 519 21 discriminator 3 view .LVU227
 758 0028 0C60     		str	r4, [r1]
 520:Drivers/STM32G4xx_HAL_Driver/Src/stm32g4xx_hal_sram.c ****       *psramaddress |= ((uint32_t)(*psrcbuff) << 16U);
 759              		.loc 1 520 7 is_stmt 1 discriminator 3 view .LVU228
 760              	.LVL69:
 521:Drivers/STM32G4xx_HAL_Driver/Src/stm32g4xx_hal_sram.c ****       psrcbuff++;
 761              		.loc 1 521 7 discriminator 3 view .LVU229
 521:Drivers/STM32G4xx_HAL_Driver/Src/stm32g4xx_hal_sram.c ****       psrcbuff++;
 762              		.loc 1 521 21 is_stmt 0 discriminator 3 view .LVU230
 763 002a 0C68     		ldr	r4, [r1]
 521:Drivers/STM32G4xx_HAL_Driver/Src/stm32g4xx_hal_sram.c ****       psrcbuff++;
 764              		.loc 1 521 36 discriminator 3 view .LVU231
 765 002c B2F802C0 		ldrh	ip, [r2, #2]
 521:Drivers/STM32G4xx_HAL_Driver/Src/stm32g4xx_hal_sram.c ****       psrcbuff++;
 766              		.loc 1 521 21 discriminator 3 view .LVU232
 767 0030 44EA0C44 		orr	r4, r4, ip, lsl #16
 768 0034 41F8044B 		str	r4, [r1], #4
 769              	.LVL70:
 522:Drivers/STM32G4xx_HAL_Driver/Src/stm32g4xx_hal_sram.c ****       psramaddress++;
 770              		.loc 1 522 7 is_stmt 1 discriminator 3 view .LVU233
 522:Drivers/STM32G4xx_HAL_Driver/Src/stm32g4xx_hal_sram.c ****       psramaddress++;
 771              		.loc 1 522 15 is_stmt 0 discriminator 3 view .LVU234
ARM GAS  /tmp/cc4B6zn6.s 			page 37


 772 0038 0432     		adds	r2, r2, #4
 773              	.LVL71:
 523:Drivers/STM32G4xx_HAL_Driver/Src/stm32g4xx_hal_sram.c ****     }
 774              		.loc 1 523 7 is_stmt 1 discriminator 3 view .LVU235
 517:Drivers/STM32G4xx_HAL_Driver/Src/stm32g4xx_hal_sram.c ****     {
 775              		.loc 1 517 44 discriminator 3 view .LVU236
 517:Drivers/STM32G4xx_HAL_Driver/Src/stm32g4xx_hal_sram.c ****     {
 776              		.loc 1 517 49 is_stmt 0 discriminator 3 view .LVU237
 777 003a 023B     		subs	r3, r3, #2
 778              	.LVL72:
 779              	.L47:
 517:Drivers/STM32G4xx_HAL_Driver/Src/stm32g4xx_hal_sram.c ****     {
 780              		.loc 1 517 29 is_stmt 1 discriminator 1 view .LVU238
 517:Drivers/STM32G4xx_HAL_Driver/Src/stm32g4xx_hal_sram.c ****     {
 781              		.loc 1 517 5 is_stmt 0 discriminator 1 view .LVU239
 782 003c 9D42     		cmp	r5, r3
 783 003e F2D1     		bne	.L48
 527:Drivers/STM32G4xx_HAL_Driver/Src/stm32g4xx_hal_sram.c ****     {
 784              		.loc 1 527 5 is_stmt 1 view .LVU240
 527:Drivers/STM32G4xx_HAL_Driver/Src/stm32g4xx_hal_sram.c ****     {
 785              		.loc 1 527 8 is_stmt 0 view .LVU241
 786 0040 2DB1     		cbz	r5, .L49
 529:Drivers/STM32G4xx_HAL_Driver/Src/stm32g4xx_hal_sram.c ****     }
 787              		.loc 1 529 7 is_stmt 1 view .LVU242
 529:Drivers/STM32G4xx_HAL_Driver/Src/stm32g4xx_hal_sram.c ****     }
 788              		.loc 1 529 35 is_stmt 0 view .LVU243
 789 0042 1288     		ldrh	r2, [r2]
 790              	.LVL73:
 529:Drivers/STM32G4xx_HAL_Driver/Src/stm32g4xx_hal_sram.c ****     }
 791              		.loc 1 529 65 view .LVU244
 792 0044 0B68     		ldr	r3, [r1]
 793              	.LVL74:
 529:Drivers/STM32G4xx_HAL_Driver/Src/stm32g4xx_hal_sram.c ****     }
 794              		.loc 1 529 80 view .LVU245
 795 0046 1B0C     		lsrs	r3, r3, #16
 796 0048 1B04     		lsls	r3, r3, #16
 529:Drivers/STM32G4xx_HAL_Driver/Src/stm32g4xx_hal_sram.c ****     }
 797              		.loc 1 529 61 view .LVU246
 798 004a 1343     		orrs	r3, r3, r2
 529:Drivers/STM32G4xx_HAL_Driver/Src/stm32g4xx_hal_sram.c ****     }
 799              		.loc 1 529 21 view .LVU247
 800 004c 0B60     		str	r3, [r1]
 801              	.L49:
 533:Drivers/STM32G4xx_HAL_Driver/Src/stm32g4xx_hal_sram.c **** 
 802              		.loc 1 533 5 is_stmt 1 view .LVU248
 533:Drivers/STM32G4xx_HAL_Driver/Src/stm32g4xx_hal_sram.c **** 
 803              		.loc 1 533 18 is_stmt 0 view .LVU249
 804 004e 0123     		movs	r3, #1
 805 0050 80F85130 		strb	r3, [r0, #81]
 536:Drivers/STM32G4xx_HAL_Driver/Src/stm32g4xx_hal_sram.c ****   }
 806              		.loc 1 536 5 is_stmt 1 view .LVU250
 536:Drivers/STM32G4xx_HAL_Driver/Src/stm32g4xx_hal_sram.c ****   }
 807              		.loc 1 536 5 view .LVU251
 808 0054 0023     		movs	r3, #0
 809 0056 80F85030 		strb	r3, [r0, #80]
 536:Drivers/STM32G4xx_HAL_Driver/Src/stm32g4xx_hal_sram.c ****   }
 810              		.loc 1 536 5 view .LVU252
ARM GAS  /tmp/cc4B6zn6.s 			page 38


 543:Drivers/STM32G4xx_HAL_Driver/Src/stm32g4xx_hal_sram.c **** }
 811              		.loc 1 543 3 view .LVU253
 543:Drivers/STM32G4xx_HAL_Driver/Src/stm32g4xx_hal_sram.c **** }
 812              		.loc 1 543 10 is_stmt 0 view .LVU254
 813 005a 1846     		mov	r0, r3
 814              	.LVL75:
 543:Drivers/STM32G4xx_HAL_Driver/Src/stm32g4xx_hal_sram.c **** }
 815              		.loc 1 543 10 view .LVU255
 816 005c 00E0     		b	.L46
 817              	.LVL76:
 818              	.L50:
 540:Drivers/STM32G4xx_HAL_Driver/Src/stm32g4xx_hal_sram.c ****   }
 819              		.loc 1 540 12 view .LVU256
 820 005e 0120     		movs	r0, #1
 821              	.LVL77:
 822              	.L46:
 544:Drivers/STM32G4xx_HAL_Driver/Src/stm32g4xx_hal_sram.c **** 
 823              		.loc 1 544 1 view .LVU257
 824 0060 30BC     		pop	{r4, r5}
 825              	.LCFI9:
 826              		.cfi_remember_state
 827              		.cfi_restore 5
 828              		.cfi_restore 4
 829              		.cfi_def_cfa_offset 0
 830 0062 7047     		bx	lr
 831              	.LVL78:
 832              	.L51:
 833              	.LCFI10:
 834              		.cfi_restore_state
 508:Drivers/STM32G4xx_HAL_Driver/Src/stm32g4xx_hal_sram.c **** 
 835              		.loc 1 508 5 view .LVU258
 836 0064 0220     		movs	r0, #2
 837              	.LVL79:
 508:Drivers/STM32G4xx_HAL_Driver/Src/stm32g4xx_hal_sram.c **** 
 838              		.loc 1 508 5 view .LVU259
 839 0066 FBE7     		b	.L46
 840              		.cfi_endproc
 841              	.LFE338:
 843              		.section	.text.HAL_SRAM_Read_32b,"ax",%progbits
 844              		.align	1
 845              		.global	HAL_SRAM_Read_32b
 846              		.syntax unified
 847              		.thumb
 848              		.thumb_func
 850              	HAL_SRAM_Read_32b:
 851              	.LVL80:
 852              	.LFB339:
 557:Drivers/STM32G4xx_HAL_Driver/Src/stm32g4xx_hal_sram.c ****   uint32_t size;
 853              		.loc 1 557 1 is_stmt 1 view -0
 854              		.cfi_startproc
 855              		@ args = 0, pretend = 0, frame = 0
 856              		@ frame_needed = 0, uses_anonymous_args = 0
 857              		@ link register save eliminated.
 558:Drivers/STM32G4xx_HAL_Driver/Src/stm32g4xx_hal_sram.c ****   __IO uint32_t *psramaddress = pAddress;
 858              		.loc 1 558 3 view .LVU261
 559:Drivers/STM32G4xx_HAL_Driver/Src/stm32g4xx_hal_sram.c ****   uint32_t *pdestbuff = pDstBuffer;
 859              		.loc 1 559 3 view .LVU262
ARM GAS  /tmp/cc4B6zn6.s 			page 39


 560:Drivers/STM32G4xx_HAL_Driver/Src/stm32g4xx_hal_sram.c ****   HAL_SRAM_StateTypeDef state = hsram->State;
 860              		.loc 1 560 3 view .LVU263
 561:Drivers/STM32G4xx_HAL_Driver/Src/stm32g4xx_hal_sram.c **** 
 861              		.loc 1 561 3 view .LVU264
 561:Drivers/STM32G4xx_HAL_Driver/Src/stm32g4xx_hal_sram.c **** 
 862              		.loc 1 561 25 is_stmt 0 view .LVU265
 863 0000 90F851C0 		ldrb	ip, [r0, #81]	@ zero_extendqisi2
 864 0004 5FFA8CFC 		uxtb	ip, ip
 865              	.LVL81:
 564:Drivers/STM32G4xx_HAL_Driver/Src/stm32g4xx_hal_sram.c ****   {
 866              		.loc 1 564 3 is_stmt 1 view .LVU266
 564:Drivers/STM32G4xx_HAL_Driver/Src/stm32g4xx_hal_sram.c ****   {
 867              		.loc 1 564 6 is_stmt 0 view .LVU267
 868 0008 BCF1010F 		cmp	ip, #1
 869 000c 02D0     		beq	.L54
 564:Drivers/STM32G4xx_HAL_Driver/Src/stm32g4xx_hal_sram.c ****   {
 870              		.loc 1 564 39 discriminator 1 view .LVU268
 871 000e BCF1040F 		cmp	ip, #4
 872 0012 1AD1     		bne	.L58
 873              	.L54:
 557:Drivers/STM32G4xx_HAL_Driver/Src/stm32g4xx_hal_sram.c ****   uint32_t size;
 874              		.loc 1 557 1 view .LVU269
 875 0014 10B4     		push	{r4}
 876              	.LCFI11:
 877              		.cfi_def_cfa_offset 4
 878              		.cfi_offset 4, -4
 567:Drivers/STM32G4xx_HAL_Driver/Src/stm32g4xx_hal_sram.c **** 
 879              		.loc 1 567 5 is_stmt 1 view .LVU270
 567:Drivers/STM32G4xx_HAL_Driver/Src/stm32g4xx_hal_sram.c **** 
 880              		.loc 1 567 5 view .LVU271
 881 0016 90F85040 		ldrb	r4, [r0, #80]	@ zero_extendqisi2
 882 001a 012C     		cmp	r4, #1
 883 001c 17D0     		beq	.L59
 567:Drivers/STM32G4xx_HAL_Driver/Src/stm32g4xx_hal_sram.c **** 
 884              		.loc 1 567 5 discriminator 2 view .LVU272
 885 001e 0124     		movs	r4, #1
 886 0020 80F85040 		strb	r4, [r0, #80]
 567:Drivers/STM32G4xx_HAL_Driver/Src/stm32g4xx_hal_sram.c **** 
 887              		.loc 1 567 5 discriminator 2 view .LVU273
 570:Drivers/STM32G4xx_HAL_Driver/Src/stm32g4xx_hal_sram.c **** 
 888              		.loc 1 570 5 discriminator 2 view .LVU274
 570:Drivers/STM32G4xx_HAL_Driver/Src/stm32g4xx_hal_sram.c **** 
 889              		.loc 1 570 18 is_stmt 0 discriminator 2 view .LVU275
 890 0024 0224     		movs	r4, #2
 891 0026 80F85140 		strb	r4, [r0, #81]
 573:Drivers/STM32G4xx_HAL_Driver/Src/stm32g4xx_hal_sram.c ****     {
 892              		.loc 1 573 5 is_stmt 1 discriminator 2 view .LVU276
 893              	.LVL82:
 573:Drivers/STM32G4xx_HAL_Driver/Src/stm32g4xx_hal_sram.c ****     {
 894              		.loc 1 573 5 is_stmt 0 discriminator 2 view .LVU277
 895 002a 04E0     		b	.L56
 896              	.LVL83:
 897              	.L57:
 575:Drivers/STM32G4xx_HAL_Driver/Src/stm32g4xx_hal_sram.c ****       pdestbuff++;
 898              		.loc 1 575 7 is_stmt 1 discriminator 3 view .LVU278
 575:Drivers/STM32G4xx_HAL_Driver/Src/stm32g4xx_hal_sram.c ****       pdestbuff++;
 899              		.loc 1 575 20 is_stmt 0 discriminator 3 view .LVU279
ARM GAS  /tmp/cc4B6zn6.s 			page 40


 900 002c 51F8044B 		ldr	r4, [r1], #4
 901              	.LVL84:
 575:Drivers/STM32G4xx_HAL_Driver/Src/stm32g4xx_hal_sram.c ****       pdestbuff++;
 902              		.loc 1 575 18 discriminator 3 view .LVU280
 903 0030 42F8044B 		str	r4, [r2], #4
 904              	.LVL85:
 576:Drivers/STM32G4xx_HAL_Driver/Src/stm32g4xx_hal_sram.c ****       psramaddress++;
 905              		.loc 1 576 7 is_stmt 1 discriminator 3 view .LVU281
 577:Drivers/STM32G4xx_HAL_Driver/Src/stm32g4xx_hal_sram.c ****     }
 906              		.loc 1 577 7 discriminator 3 view .LVU282
 573:Drivers/STM32G4xx_HAL_Driver/Src/stm32g4xx_hal_sram.c ****     {
 907              		.loc 1 573 41 discriminator 3 view .LVU283
 573:Drivers/STM32G4xx_HAL_Driver/Src/stm32g4xx_hal_sram.c ****     {
 908              		.loc 1 573 45 is_stmt 0 discriminator 3 view .LVU284
 909 0034 013B     		subs	r3, r3, #1
 910              	.LVL86:
 911              	.L56:
 573:Drivers/STM32G4xx_HAL_Driver/Src/stm32g4xx_hal_sram.c ****     {
 912              		.loc 1 573 29 is_stmt 1 discriminator 1 view .LVU285
 573:Drivers/STM32G4xx_HAL_Driver/Src/stm32g4xx_hal_sram.c ****     {
 913              		.loc 1 573 5 is_stmt 0 discriminator 1 view .LVU286
 914 0036 002B     		cmp	r3, #0
 915 0038 F8D1     		bne	.L57
 581:Drivers/STM32G4xx_HAL_Driver/Src/stm32g4xx_hal_sram.c **** 
 916              		.loc 1 581 5 is_stmt 1 view .LVU287
 581:Drivers/STM32G4xx_HAL_Driver/Src/stm32g4xx_hal_sram.c **** 
 917              		.loc 1 581 18 is_stmt 0 view .LVU288
 918 003a 80F851C0 		strb	ip, [r0, #81]
 584:Drivers/STM32G4xx_HAL_Driver/Src/stm32g4xx_hal_sram.c ****   }
 919              		.loc 1 584 5 is_stmt 1 view .LVU289
 584:Drivers/STM32G4xx_HAL_Driver/Src/stm32g4xx_hal_sram.c ****   }
 920              		.loc 1 584 5 view .LVU290
 921 003e 80F85030 		strb	r3, [r0, #80]
 584:Drivers/STM32G4xx_HAL_Driver/Src/stm32g4xx_hal_sram.c ****   }
 922              		.loc 1 584 5 view .LVU291
 591:Drivers/STM32G4xx_HAL_Driver/Src/stm32g4xx_hal_sram.c **** }
 923              		.loc 1 591 3 view .LVU292
 591:Drivers/STM32G4xx_HAL_Driver/Src/stm32g4xx_hal_sram.c **** }
 924              		.loc 1 591 10 is_stmt 0 view .LVU293
 925 0042 1846     		mov	r0, r3
 926              	.LVL87:
 927              	.L55:
 592:Drivers/STM32G4xx_HAL_Driver/Src/stm32g4xx_hal_sram.c **** 
 928              		.loc 1 592 1 view .LVU294
 929 0044 5DF8044B 		ldr	r4, [sp], #4
 930              	.LCFI12:
 931              		.cfi_restore 4
 932              		.cfi_def_cfa_offset 0
 933 0048 7047     		bx	lr
 934              	.LVL88:
 935              	.L58:
 588:Drivers/STM32G4xx_HAL_Driver/Src/stm32g4xx_hal_sram.c ****   }
 936              		.loc 1 588 12 view .LVU295
 937 004a 0120     		movs	r0, #1
 938              	.LVL89:
 592:Drivers/STM32G4xx_HAL_Driver/Src/stm32g4xx_hal_sram.c **** 
 939              		.loc 1 592 1 view .LVU296
ARM GAS  /tmp/cc4B6zn6.s 			page 41


 940 004c 7047     		bx	lr
 941              	.LVL90:
 942              	.L59:
 943              	.LCFI13:
 944              		.cfi_def_cfa_offset 4
 945              		.cfi_offset 4, -4
 567:Drivers/STM32G4xx_HAL_Driver/Src/stm32g4xx_hal_sram.c **** 
 946              		.loc 1 567 5 view .LVU297
 947 004e 0220     		movs	r0, #2
 948              	.LVL91:
 567:Drivers/STM32G4xx_HAL_Driver/Src/stm32g4xx_hal_sram.c **** 
 949              		.loc 1 567 5 view .LVU298
 950 0050 F8E7     		b	.L55
 951              		.cfi_endproc
 952              	.LFE339:
 954              		.section	.text.HAL_SRAM_Write_32b,"ax",%progbits
 955              		.align	1
 956              		.global	HAL_SRAM_Write_32b
 957              		.syntax unified
 958              		.thumb
 959              		.thumb_func
 961              	HAL_SRAM_Write_32b:
 962              	.LVL92:
 963              	.LFB340:
 605:Drivers/STM32G4xx_HAL_Driver/Src/stm32g4xx_hal_sram.c ****   uint32_t size;
 964              		.loc 1 605 1 is_stmt 1 view -0
 965              		.cfi_startproc
 966              		@ args = 0, pretend = 0, frame = 0
 967              		@ frame_needed = 0, uses_anonymous_args = 0
 968              		@ link register save eliminated.
 605:Drivers/STM32G4xx_HAL_Driver/Src/stm32g4xx_hal_sram.c ****   uint32_t size;
 969              		.loc 1 605 1 is_stmt 0 view .LVU300
 970 0000 10B4     		push	{r4}
 971              	.LCFI14:
 972              		.cfi_def_cfa_offset 4
 973              		.cfi_offset 4, -4
 606:Drivers/STM32G4xx_HAL_Driver/Src/stm32g4xx_hal_sram.c ****   __IO uint32_t *psramaddress = pAddress;
 974              		.loc 1 606 3 is_stmt 1 view .LVU301
 607:Drivers/STM32G4xx_HAL_Driver/Src/stm32g4xx_hal_sram.c ****   uint32_t *psrcbuff = pSrcBuffer;
 975              		.loc 1 607 3 view .LVU302
 976              	.LVL93:
 608:Drivers/STM32G4xx_HAL_Driver/Src/stm32g4xx_hal_sram.c **** 
 977              		.loc 1 608 3 view .LVU303
 611:Drivers/STM32G4xx_HAL_Driver/Src/stm32g4xx_hal_sram.c ****   {
 978              		.loc 1 611 3 view .LVU304
 611:Drivers/STM32G4xx_HAL_Driver/Src/stm32g4xx_hal_sram.c ****   {
 979              		.loc 1 611 12 is_stmt 0 view .LVU305
 980 0002 90F85140 		ldrb	r4, [r0, #81]	@ zero_extendqisi2
 981 0006 E4B2     		uxtb	r4, r4
 611:Drivers/STM32G4xx_HAL_Driver/Src/stm32g4xx_hal_sram.c ****   {
 982              		.loc 1 611 6 view .LVU306
 983 0008 012C     		cmp	r4, #1
 984 000a 19D1     		bne	.L67
 614:Drivers/STM32G4xx_HAL_Driver/Src/stm32g4xx_hal_sram.c **** 
 985              		.loc 1 614 5 is_stmt 1 view .LVU307
 614:Drivers/STM32G4xx_HAL_Driver/Src/stm32g4xx_hal_sram.c **** 
 986              		.loc 1 614 5 view .LVU308
ARM GAS  /tmp/cc4B6zn6.s 			page 42


 987 000c 90F85040 		ldrb	r4, [r0, #80]	@ zero_extendqisi2
 988 0010 012C     		cmp	r4, #1
 989 0012 19D0     		beq	.L68
 614:Drivers/STM32G4xx_HAL_Driver/Src/stm32g4xx_hal_sram.c **** 
 990              		.loc 1 614 5 discriminator 2 view .LVU309
 991 0014 0124     		movs	r4, #1
 992 0016 80F85040 		strb	r4, [r0, #80]
 614:Drivers/STM32G4xx_HAL_Driver/Src/stm32g4xx_hal_sram.c **** 
 993              		.loc 1 614 5 discriminator 2 view .LVU310
 617:Drivers/STM32G4xx_HAL_Driver/Src/stm32g4xx_hal_sram.c **** 
 994              		.loc 1 617 5 discriminator 2 view .LVU311
 617:Drivers/STM32G4xx_HAL_Driver/Src/stm32g4xx_hal_sram.c **** 
 995              		.loc 1 617 18 is_stmt 0 discriminator 2 view .LVU312
 996 001a 0224     		movs	r4, #2
 997 001c 80F85140 		strb	r4, [r0, #81]
 620:Drivers/STM32G4xx_HAL_Driver/Src/stm32g4xx_hal_sram.c ****     {
 998              		.loc 1 620 5 is_stmt 1 discriminator 2 view .LVU313
 999              	.LVL94:
 620:Drivers/STM32G4xx_HAL_Driver/Src/stm32g4xx_hal_sram.c ****     {
 1000              		.loc 1 620 5 is_stmt 0 discriminator 2 view .LVU314
 1001 0020 04E0     		b	.L65
 1002              	.LVL95:
 1003              	.L66:
 622:Drivers/STM32G4xx_HAL_Driver/Src/stm32g4xx_hal_sram.c ****       psrcbuff++;
 1004              		.loc 1 622 7 is_stmt 1 discriminator 3 view .LVU315
 622:Drivers/STM32G4xx_HAL_Driver/Src/stm32g4xx_hal_sram.c ****       psrcbuff++;
 1005              		.loc 1 622 23 is_stmt 0 discriminator 3 view .LVU316
 1006 0022 52F8044B 		ldr	r4, [r2], #4
 1007              	.LVL96:
 622:Drivers/STM32G4xx_HAL_Driver/Src/stm32g4xx_hal_sram.c ****       psrcbuff++;
 1008              		.loc 1 622 21 discriminator 3 view .LVU317
 1009 0026 41F8044B 		str	r4, [r1], #4
 1010              	.LVL97:
 623:Drivers/STM32G4xx_HAL_Driver/Src/stm32g4xx_hal_sram.c ****       psramaddress++;
 1011              		.loc 1 623 7 is_stmt 1 discriminator 3 view .LVU318
 624:Drivers/STM32G4xx_HAL_Driver/Src/stm32g4xx_hal_sram.c ****     }
 1012              		.loc 1 624 7 discriminator 3 view .LVU319
 620:Drivers/STM32G4xx_HAL_Driver/Src/stm32g4xx_hal_sram.c ****     {
 1013              		.loc 1 620 41 discriminator 3 view .LVU320
 620:Drivers/STM32G4xx_HAL_Driver/Src/stm32g4xx_hal_sram.c ****     {
 1014              		.loc 1 620 45 is_stmt 0 discriminator 3 view .LVU321
 1015 002a 013B     		subs	r3, r3, #1
 1016              	.LVL98:
 1017              	.L65:
 620:Drivers/STM32G4xx_HAL_Driver/Src/stm32g4xx_hal_sram.c ****     {
 1018              		.loc 1 620 29 is_stmt 1 discriminator 1 view .LVU322
 620:Drivers/STM32G4xx_HAL_Driver/Src/stm32g4xx_hal_sram.c ****     {
 1019              		.loc 1 620 5 is_stmt 0 discriminator 1 view .LVU323
 1020 002c 002B     		cmp	r3, #0
 1021 002e F8D1     		bne	.L66
 628:Drivers/STM32G4xx_HAL_Driver/Src/stm32g4xx_hal_sram.c **** 
 1022              		.loc 1 628 5 is_stmt 1 view .LVU324
 628:Drivers/STM32G4xx_HAL_Driver/Src/stm32g4xx_hal_sram.c **** 
 1023              		.loc 1 628 18 is_stmt 0 view .LVU325
 1024 0030 0123     		movs	r3, #1
 1025              	.LVL99:
 628:Drivers/STM32G4xx_HAL_Driver/Src/stm32g4xx_hal_sram.c **** 
ARM GAS  /tmp/cc4B6zn6.s 			page 43


 1026              		.loc 1 628 18 view .LVU326
 1027 0032 80F85130 		strb	r3, [r0, #81]
 631:Drivers/STM32G4xx_HAL_Driver/Src/stm32g4xx_hal_sram.c ****   }
 1028              		.loc 1 631 5 is_stmt 1 view .LVU327
 631:Drivers/STM32G4xx_HAL_Driver/Src/stm32g4xx_hal_sram.c ****   }
 1029              		.loc 1 631 5 view .LVU328
 1030 0036 0023     		movs	r3, #0
 1031 0038 80F85030 		strb	r3, [r0, #80]
 631:Drivers/STM32G4xx_HAL_Driver/Src/stm32g4xx_hal_sram.c ****   }
 1032              		.loc 1 631 5 view .LVU329
 638:Drivers/STM32G4xx_HAL_Driver/Src/stm32g4xx_hal_sram.c **** }
 1033              		.loc 1 638 3 view .LVU330
 638:Drivers/STM32G4xx_HAL_Driver/Src/stm32g4xx_hal_sram.c **** }
 1034              		.loc 1 638 10 is_stmt 0 view .LVU331
 1035 003c 1846     		mov	r0, r3
 1036              	.LVL100:
 638:Drivers/STM32G4xx_HAL_Driver/Src/stm32g4xx_hal_sram.c **** }
 1037              		.loc 1 638 10 view .LVU332
 1038 003e 00E0     		b	.L64
 1039              	.LVL101:
 1040              	.L67:
 635:Drivers/STM32G4xx_HAL_Driver/Src/stm32g4xx_hal_sram.c ****   }
 1041              		.loc 1 635 12 view .LVU333
 1042 0040 0120     		movs	r0, #1
 1043              	.LVL102:
 1044              	.L64:
 639:Drivers/STM32G4xx_HAL_Driver/Src/stm32g4xx_hal_sram.c **** 
 1045              		.loc 1 639 1 view .LVU334
 1046 0042 5DF8044B 		ldr	r4, [sp], #4
 1047              	.LCFI15:
 1048              		.cfi_remember_state
 1049              		.cfi_restore 4
 1050              		.cfi_def_cfa_offset 0
 1051 0046 7047     		bx	lr
 1052              	.LVL103:
 1053              	.L68:
 1054              	.LCFI16:
 1055              		.cfi_restore_state
 614:Drivers/STM32G4xx_HAL_Driver/Src/stm32g4xx_hal_sram.c **** 
 1056              		.loc 1 614 5 view .LVU335
 1057 0048 0220     		movs	r0, #2
 1058              	.LVL104:
 614:Drivers/STM32G4xx_HAL_Driver/Src/stm32g4xx_hal_sram.c **** 
 1059              		.loc 1 614 5 view .LVU336
 1060 004a FAE7     		b	.L64
 1061              		.cfi_endproc
 1062              	.LFE340:
 1064              		.section	.text.HAL_SRAM_Read_DMA,"ax",%progbits
 1065              		.align	1
 1066              		.global	HAL_SRAM_Read_DMA
 1067              		.syntax unified
 1068              		.thumb
 1069              		.thumb_func
 1071              	HAL_SRAM_Read_DMA:
 1072              	.LVL105:
 1073              	.LFB341:
 652:Drivers/STM32G4xx_HAL_Driver/Src/stm32g4xx_hal_sram.c ****   HAL_StatusTypeDef status;
ARM GAS  /tmp/cc4B6zn6.s 			page 44


 1074              		.loc 1 652 1 is_stmt 1 view -0
 1075              		.cfi_startproc
 1076              		@ args = 0, pretend = 0, frame = 0
 1077              		@ frame_needed = 0, uses_anonymous_args = 0
 652:Drivers/STM32G4xx_HAL_Driver/Src/stm32g4xx_hal_sram.c ****   HAL_StatusTypeDef status;
 1078              		.loc 1 652 1 is_stmt 0 view .LVU338
 1079 0000 38B5     		push	{r3, r4, r5, lr}
 1080              	.LCFI17:
 1081              		.cfi_def_cfa_offset 16
 1082              		.cfi_offset 3, -16
 1083              		.cfi_offset 4, -12
 1084              		.cfi_offset 5, -8
 1085              		.cfi_offset 14, -4
 1086 0002 0446     		mov	r4, r0
 653:Drivers/STM32G4xx_HAL_Driver/Src/stm32g4xx_hal_sram.c ****   HAL_SRAM_StateTypeDef state = hsram->State;
 1087              		.loc 1 653 3 is_stmt 1 view .LVU339
 654:Drivers/STM32G4xx_HAL_Driver/Src/stm32g4xx_hal_sram.c **** 
 1088              		.loc 1 654 3 view .LVU340
 654:Drivers/STM32G4xx_HAL_Driver/Src/stm32g4xx_hal_sram.c **** 
 1089              		.loc 1 654 25 is_stmt 0 view .LVU341
 1090 0004 90F85100 		ldrb	r0, [r0, #81]	@ zero_extendqisi2
 1091              	.LVL106:
 654:Drivers/STM32G4xx_HAL_Driver/Src/stm32g4xx_hal_sram.c **** 
 1092              		.loc 1 654 25 view .LVU342
 1093 0008 C0B2     		uxtb	r0, r0
 1094              	.LVL107:
 657:Drivers/STM32G4xx_HAL_Driver/Src/stm32g4xx_hal_sram.c ****   {
 1095              		.loc 1 657 3 is_stmt 1 view .LVU343
 657:Drivers/STM32G4xx_HAL_Driver/Src/stm32g4xx_hal_sram.c ****   {
 1096              		.loc 1 657 6 is_stmt 0 view .LVU344
 1097 000a 0128     		cmp	r0, #1
 1098 000c 03D0     		beq	.L71
 657:Drivers/STM32G4xx_HAL_Driver/Src/stm32g4xx_hal_sram.c ****   {
 1099              		.loc 1 657 39 discriminator 1 view .LVU345
 1100 000e 0428     		cmp	r0, #4
 1101 0010 01D0     		beq	.L71
 684:Drivers/STM32G4xx_HAL_Driver/Src/stm32g4xx_hal_sram.c ****   }
 1102              		.loc 1 684 12 view .LVU346
 1103 0012 0120     		movs	r0, #1
 1104              	.LVL108:
 684:Drivers/STM32G4xx_HAL_Driver/Src/stm32g4xx_hal_sram.c ****   }
 1105              		.loc 1 684 12 view .LVU347
 1106 0014 18E0     		b	.L72
 1107              	.LVL109:
 1108              	.L71:
 660:Drivers/STM32G4xx_HAL_Driver/Src/stm32g4xx_hal_sram.c **** 
 1109              		.loc 1 660 5 is_stmt 1 view .LVU348
 660:Drivers/STM32G4xx_HAL_Driver/Src/stm32g4xx_hal_sram.c **** 
 1110              		.loc 1 660 5 view .LVU349
 1111 0016 94F850C0 		ldrb	ip, [r4, #80]	@ zero_extendqisi2
 1112 001a BCF1010F 		cmp	ip, #1
 1113 001e 18D0     		beq	.L76
 660:Drivers/STM32G4xx_HAL_Driver/Src/stm32g4xx_hal_sram.c **** 
 1114              		.loc 1 660 5 discriminator 2 view .LVU350
 1115 0020 0125     		movs	r5, #1
 1116 0022 84F85050 		strb	r5, [r4, #80]
 660:Drivers/STM32G4xx_HAL_Driver/Src/stm32g4xx_hal_sram.c **** 
ARM GAS  /tmp/cc4B6zn6.s 			page 45


 1117              		.loc 1 660 5 discriminator 2 view .LVU351
 663:Drivers/STM32G4xx_HAL_Driver/Src/stm32g4xx_hal_sram.c **** 
 1118              		.loc 1 663 5 discriminator 2 view .LVU352
 663:Drivers/STM32G4xx_HAL_Driver/Src/stm32g4xx_hal_sram.c **** 
 1119              		.loc 1 663 18 is_stmt 0 discriminator 2 view .LVU353
 1120 0026 0225     		movs	r5, #2
 1121 0028 84F85150 		strb	r5, [r4, #81]
 666:Drivers/STM32G4xx_HAL_Driver/Src/stm32g4xx_hal_sram.c ****     {
 1122              		.loc 1 666 5 is_stmt 1 discriminator 2 view .LVU354
 666:Drivers/STM32G4xx_HAL_Driver/Src/stm32g4xx_hal_sram.c ****     {
 1123              		.loc 1 666 8 is_stmt 0 discriminator 2 view .LVU355
 1124 002c 0128     		cmp	r0, #1
 1125 002e 0CD0     		beq	.L78
 672:Drivers/STM32G4xx_HAL_Driver/Src/stm32g4xx_hal_sram.c ****     }
 1126              		.loc 1 672 7 is_stmt 1 view .LVU356
 672:Drivers/STM32G4xx_HAL_Driver/Src/stm32g4xx_hal_sram.c ****     }
 1127              		.loc 1 672 12 is_stmt 0 view .LVU357
 1128 0030 606D     		ldr	r0, [r4, #84]
 1129              	.LVL110:
 672:Drivers/STM32G4xx_HAL_Driver/Src/stm32g4xx_hal_sram.c ****     }
 1130              		.loc 1 672 37 view .LVU358
 1131 0032 094D     		ldr	r5, .L79
 1132 0034 C562     		str	r5, [r0, #44]
 1133              	.L74:
 674:Drivers/STM32G4xx_HAL_Driver/Src/stm32g4xx_hal_sram.c **** 
 1134              		.loc 1 674 5 is_stmt 1 view .LVU359
 674:Drivers/STM32G4xx_HAL_Driver/Src/stm32g4xx_hal_sram.c **** 
 1135              		.loc 1 674 10 is_stmt 0 view .LVU360
 1136 0036 606D     		ldr	r0, [r4, #84]
 674:Drivers/STM32G4xx_HAL_Driver/Src/stm32g4xx_hal_sram.c **** 
 1137              		.loc 1 674 36 view .LVU361
 1138 0038 084D     		ldr	r5, .L79+4
 1139 003a 4563     		str	r5, [r0, #52]
 677:Drivers/STM32G4xx_HAL_Driver/Src/stm32g4xx_hal_sram.c **** 
 1140              		.loc 1 677 5 is_stmt 1 view .LVU362
 677:Drivers/STM32G4xx_HAL_Driver/Src/stm32g4xx_hal_sram.c **** 
 1141              		.loc 1 677 14 is_stmt 0 view .LVU363
 1142 003c 606D     		ldr	r0, [r4, #84]
 1143 003e FFF7FEFF 		bl	HAL_DMA_Start_IT
 1144              	.LVL111:
 680:Drivers/STM32G4xx_HAL_Driver/Src/stm32g4xx_hal_sram.c ****   }
 1145              		.loc 1 680 5 is_stmt 1 view .LVU364
 680:Drivers/STM32G4xx_HAL_Driver/Src/stm32g4xx_hal_sram.c ****   }
 1146              		.loc 1 680 5 view .LVU365
 1147 0042 0023     		movs	r3, #0
 1148 0044 84F85030 		strb	r3, [r4, #80]
 680:Drivers/STM32G4xx_HAL_Driver/Src/stm32g4xx_hal_sram.c ****   }
 1149              		.loc 1 680 5 view .LVU366
 1150              	.LVL112:
 1151              	.L72:
 688:Drivers/STM32G4xx_HAL_Driver/Src/stm32g4xx_hal_sram.c **** 
 1152              		.loc 1 688 1 is_stmt 0 view .LVU367
 1153 0048 38BD     		pop	{r3, r4, r5, pc}
 1154              	.LVL113:
 1155              	.L78:
 668:Drivers/STM32G4xx_HAL_Driver/Src/stm32g4xx_hal_sram.c ****     }
 1156              		.loc 1 668 7 is_stmt 1 view .LVU368
ARM GAS  /tmp/cc4B6zn6.s 			page 46


 668:Drivers/STM32G4xx_HAL_Driver/Src/stm32g4xx_hal_sram.c ****     }
 1157              		.loc 1 668 12 is_stmt 0 view .LVU369
 1158 004a 606D     		ldr	r0, [r4, #84]
 1159              	.LVL114:
 668:Drivers/STM32G4xx_HAL_Driver/Src/stm32g4xx_hal_sram.c ****     }
 1160              		.loc 1 668 37 view .LVU370
 1161 004c 044D     		ldr	r5, .L79+8
 1162 004e C562     		str	r5, [r0, #44]
 1163 0050 F1E7     		b	.L74
 1164              	.LVL115:
 1165              	.L76:
 660:Drivers/STM32G4xx_HAL_Driver/Src/stm32g4xx_hal_sram.c **** 
 1166              		.loc 1 660 5 view .LVU371
 1167 0052 0220     		movs	r0, #2
 1168              	.LVL116:
 660:Drivers/STM32G4xx_HAL_Driver/Src/stm32g4xx_hal_sram.c **** 
 1169              		.loc 1 660 5 view .LVU372
 1170 0054 F8E7     		b	.L72
 1171              	.L80:
 1172 0056 00BF     		.align	2
 1173              	.L79:
 1174 0058 00000000 		.word	SRAM_DMACpltProt
 1175 005c 00000000 		.word	SRAM_DMAError
 1176 0060 00000000 		.word	SRAM_DMACplt
 1177              		.cfi_endproc
 1178              	.LFE341:
 1180              		.section	.text.HAL_SRAM_Write_DMA,"ax",%progbits
 1181              		.align	1
 1182              		.global	HAL_SRAM_Write_DMA
 1183              		.syntax unified
 1184              		.thumb
 1185              		.thumb_func
 1187              	HAL_SRAM_Write_DMA:
 1188              	.LVL117:
 1189              	.LFB342:
 701:Drivers/STM32G4xx_HAL_Driver/Src/stm32g4xx_hal_sram.c ****   HAL_StatusTypeDef status;
 1190              		.loc 1 701 1 is_stmt 1 view -0
 1191              		.cfi_startproc
 1192              		@ args = 0, pretend = 0, frame = 0
 1193              		@ frame_needed = 0, uses_anonymous_args = 0
 701:Drivers/STM32G4xx_HAL_Driver/Src/stm32g4xx_hal_sram.c ****   HAL_StatusTypeDef status;
 1194              		.loc 1 701 1 is_stmt 0 view .LVU374
 1195 0000 10B5     		push	{r4, lr}
 1196              	.LCFI18:
 1197              		.cfi_def_cfa_offset 8
 1198              		.cfi_offset 4, -8
 1199              		.cfi_offset 14, -4
 1200 0002 0446     		mov	r4, r0
 702:Drivers/STM32G4xx_HAL_Driver/Src/stm32g4xx_hal_sram.c **** 
 1201              		.loc 1 702 3 is_stmt 1 view .LVU375
 705:Drivers/STM32G4xx_HAL_Driver/Src/stm32g4xx_hal_sram.c ****   {
 1202              		.loc 1 705 3 view .LVU376
 705:Drivers/STM32G4xx_HAL_Driver/Src/stm32g4xx_hal_sram.c ****   {
 1203              		.loc 1 705 12 is_stmt 0 view .LVU377
 1204 0004 90F85100 		ldrb	r0, [r0, #81]	@ zero_extendqisi2
 1205              	.LVL118:
 705:Drivers/STM32G4xx_HAL_Driver/Src/stm32g4xx_hal_sram.c ****   {
ARM GAS  /tmp/cc4B6zn6.s 			page 47


 1206              		.loc 1 705 12 view .LVU378
 1207 0008 C0B2     		uxtb	r0, r0
 705:Drivers/STM32G4xx_HAL_Driver/Src/stm32g4xx_hal_sram.c ****   {
 1208              		.loc 1 705 6 view .LVU379
 1209 000a 0128     		cmp	r0, #1
 1210 000c 01D0     		beq	.L86
 725:Drivers/STM32G4xx_HAL_Driver/Src/stm32g4xx_hal_sram.c ****   }
 1211              		.loc 1 725 12 view .LVU380
 1212 000e 0120     		movs	r0, #1
 1213              	.LVL119:
 1214              	.L82:
 729:Drivers/STM32G4xx_HAL_Driver/Src/stm32g4xx_hal_sram.c **** 
 1215              		.loc 1 729 1 view .LVU381
 1216 0010 10BD     		pop	{r4, pc}
 1217              	.LVL120:
 1218              	.L86:
 729:Drivers/STM32G4xx_HAL_Driver/Src/stm32g4xx_hal_sram.c **** 
 1219              		.loc 1 729 1 view .LVU382
 1220 0012 8C46     		mov	ip, r1
 1221 0014 1146     		mov	r1, r2
 1222              	.LVL121:
 708:Drivers/STM32G4xx_HAL_Driver/Src/stm32g4xx_hal_sram.c **** 
 1223              		.loc 1 708 5 is_stmt 1 view .LVU383
 708:Drivers/STM32G4xx_HAL_Driver/Src/stm32g4xx_hal_sram.c **** 
 1224              		.loc 1 708 5 view .LVU384
 1225 0016 94F85020 		ldrb	r2, [r4, #80]	@ zero_extendqisi2
 1226              	.LVL122:
 708:Drivers/STM32G4xx_HAL_Driver/Src/stm32g4xx_hal_sram.c **** 
 1227              		.loc 1 708 5 is_stmt 0 view .LVU385
 1228 001a 012A     		cmp	r2, #1
 1229 001c 13D0     		beq	.L84
 708:Drivers/STM32G4xx_HAL_Driver/Src/stm32g4xx_hal_sram.c **** 
 1230              		.loc 1 708 5 is_stmt 1 discriminator 2 view .LVU386
 1231 001e 0122     		movs	r2, #1
 1232 0020 84F85020 		strb	r2, [r4, #80]
 708:Drivers/STM32G4xx_HAL_Driver/Src/stm32g4xx_hal_sram.c **** 
 1233              		.loc 1 708 5 discriminator 2 view .LVU387
 711:Drivers/STM32G4xx_HAL_Driver/Src/stm32g4xx_hal_sram.c **** 
 1234              		.loc 1 711 5 discriminator 2 view .LVU388
 711:Drivers/STM32G4xx_HAL_Driver/Src/stm32g4xx_hal_sram.c **** 
 1235              		.loc 1 711 18 is_stmt 0 discriminator 2 view .LVU389
 1236 0024 0222     		movs	r2, #2
 1237 0026 84F85120 		strb	r2, [r4, #81]
 714:Drivers/STM32G4xx_HAL_Driver/Src/stm32g4xx_hal_sram.c ****     hsram->hdma->XferErrorCallback = SRAM_DMAError;
 1238              		.loc 1 714 5 is_stmt 1 discriminator 2 view .LVU390
 714:Drivers/STM32G4xx_HAL_Driver/Src/stm32g4xx_hal_sram.c ****     hsram->hdma->XferErrorCallback = SRAM_DMAError;
 1239              		.loc 1 714 10 is_stmt 0 discriminator 2 view .LVU391
 1240 002a 626D     		ldr	r2, [r4, #84]
 714:Drivers/STM32G4xx_HAL_Driver/Src/stm32g4xx_hal_sram.c ****     hsram->hdma->XferErrorCallback = SRAM_DMAError;
 1241              		.loc 1 714 35 discriminator 2 view .LVU392
 1242 002c 0748     		ldr	r0, .L87
 1243 002e D062     		str	r0, [r2, #44]
 715:Drivers/STM32G4xx_HAL_Driver/Src/stm32g4xx_hal_sram.c **** 
 1244              		.loc 1 715 5 is_stmt 1 discriminator 2 view .LVU393
 715:Drivers/STM32G4xx_HAL_Driver/Src/stm32g4xx_hal_sram.c **** 
 1245              		.loc 1 715 10 is_stmt 0 discriminator 2 view .LVU394
 1246 0030 626D     		ldr	r2, [r4, #84]
ARM GAS  /tmp/cc4B6zn6.s 			page 48


 715:Drivers/STM32G4xx_HAL_Driver/Src/stm32g4xx_hal_sram.c **** 
 1247              		.loc 1 715 36 discriminator 2 view .LVU395
 1248 0032 0748     		ldr	r0, .L87+4
 1249 0034 5063     		str	r0, [r2, #52]
 718:Drivers/STM32G4xx_HAL_Driver/Src/stm32g4xx_hal_sram.c **** 
 1250              		.loc 1 718 5 is_stmt 1 discriminator 2 view .LVU396
 718:Drivers/STM32G4xx_HAL_Driver/Src/stm32g4xx_hal_sram.c **** 
 1251              		.loc 1 718 14 is_stmt 0 discriminator 2 view .LVU397
 1252 0036 6246     		mov	r2, ip
 1253 0038 606D     		ldr	r0, [r4, #84]
 1254 003a FFF7FEFF 		bl	HAL_DMA_Start_IT
 1255              	.LVL123:
 721:Drivers/STM32G4xx_HAL_Driver/Src/stm32g4xx_hal_sram.c ****   }
 1256              		.loc 1 721 5 is_stmt 1 discriminator 2 view .LVU398
 721:Drivers/STM32G4xx_HAL_Driver/Src/stm32g4xx_hal_sram.c ****   }
 1257              		.loc 1 721 5 discriminator 2 view .LVU399
 1258 003e 0023     		movs	r3, #0
 1259 0040 84F85030 		strb	r3, [r4, #80]
 721:Drivers/STM32G4xx_HAL_Driver/Src/stm32g4xx_hal_sram.c ****   }
 1260              		.loc 1 721 5 discriminator 2 view .LVU400
 1261 0044 E4E7     		b	.L82
 1262              	.LVL124:
 1263              	.L84:
 708:Drivers/STM32G4xx_HAL_Driver/Src/stm32g4xx_hal_sram.c **** 
 1264              		.loc 1 708 5 is_stmt 0 view .LVU401
 1265 0046 0220     		movs	r0, #2
 1266 0048 E2E7     		b	.L82
 1267              	.L88:
 1268 004a 00BF     		.align	2
 1269              	.L87:
 1270 004c 00000000 		.word	SRAM_DMACplt
 1271 0050 00000000 		.word	SRAM_DMAError
 1272              		.cfi_endproc
 1273              	.LFE342:
 1275              		.section	.text.HAL_SRAM_WriteOperation_Enable,"ax",%progbits
 1276              		.align	1
 1277              		.global	HAL_SRAM_WriteOperation_Enable
 1278              		.syntax unified
 1279              		.thumb
 1280              		.thumb_func
 1282              	HAL_SRAM_WriteOperation_Enable:
 1283              	.LVL125:
 1284              	.LFB343:
 935:Drivers/STM32G4xx_HAL_Driver/Src/stm32g4xx_hal_sram.c ****   /* Check the SRAM controller state */
 1285              		.loc 1 935 1 is_stmt 1 view -0
 1286              		.cfi_startproc
 1287              		@ args = 0, pretend = 0, frame = 0
 1288              		@ frame_needed = 0, uses_anonymous_args = 0
 935:Drivers/STM32G4xx_HAL_Driver/Src/stm32g4xx_hal_sram.c ****   /* Check the SRAM controller state */
 1289              		.loc 1 935 1 is_stmt 0 view .LVU403
 1290 0000 38B5     		push	{r3, r4, r5, lr}
 1291              	.LCFI19:
 1292              		.cfi_def_cfa_offset 16
 1293              		.cfi_offset 3, -16
 1294              		.cfi_offset 4, -12
 1295              		.cfi_offset 5, -8
 1296              		.cfi_offset 14, -4
ARM GAS  /tmp/cc4B6zn6.s 			page 49


 937:Drivers/STM32G4xx_HAL_Driver/Src/stm32g4xx_hal_sram.c ****   {
 1297              		.loc 1 937 3 is_stmt 1 view .LVU404
 937:Drivers/STM32G4xx_HAL_Driver/Src/stm32g4xx_hal_sram.c ****   {
 1298              		.loc 1 937 12 is_stmt 0 view .LVU405
 1299 0002 90F85130 		ldrb	r3, [r0, #81]	@ zero_extendqisi2
 1300 0006 DBB2     		uxtb	r3, r3
 937:Drivers/STM32G4xx_HAL_Driver/Src/stm32g4xx_hal_sram.c ****   {
 1301              		.loc 1 937 6 view .LVU406
 1302 0008 042B     		cmp	r3, #4
 1303 000a 14D1     		bne	.L91
 1304 000c 0446     		mov	r4, r0
 940:Drivers/STM32G4xx_HAL_Driver/Src/stm32g4xx_hal_sram.c **** 
 1305              		.loc 1 940 5 is_stmt 1 view .LVU407
 940:Drivers/STM32G4xx_HAL_Driver/Src/stm32g4xx_hal_sram.c **** 
 1306              		.loc 1 940 5 view .LVU408
 1307 000e 90F85030 		ldrb	r3, [r0, #80]	@ zero_extendqisi2
 1308 0012 012B     		cmp	r3, #1
 1309 0014 11D0     		beq	.L92
 940:Drivers/STM32G4xx_HAL_Driver/Src/stm32g4xx_hal_sram.c **** 
 1310              		.loc 1 940 5 discriminator 2 view .LVU409
 1311 0016 0125     		movs	r5, #1
 1312 0018 80F85050 		strb	r5, [r0, #80]
 940:Drivers/STM32G4xx_HAL_Driver/Src/stm32g4xx_hal_sram.c **** 
 1313              		.loc 1 940 5 discriminator 2 view .LVU410
 943:Drivers/STM32G4xx_HAL_Driver/Src/stm32g4xx_hal_sram.c **** 
 1314              		.loc 1 943 5 discriminator 2 view .LVU411
 943:Drivers/STM32G4xx_HAL_Driver/Src/stm32g4xx_hal_sram.c **** 
 1315              		.loc 1 943 18 is_stmt 0 discriminator 2 view .LVU412
 1316 001c 0223     		movs	r3, #2
 1317 001e 80F85130 		strb	r3, [r0, #81]
 946:Drivers/STM32G4xx_HAL_Driver/Src/stm32g4xx_hal_sram.c **** 
 1318              		.loc 1 946 5 is_stmt 1 discriminator 2 view .LVU413
 946:Drivers/STM32G4xx_HAL_Driver/Src/stm32g4xx_hal_sram.c **** 
 1319              		.loc 1 946 11 is_stmt 0 discriminator 2 view .LVU414
 1320 0022 8168     		ldr	r1, [r0, #8]
 1321 0024 0068     		ldr	r0, [r0]
 1322              	.LVL126:
 946:Drivers/STM32G4xx_HAL_Driver/Src/stm32g4xx_hal_sram.c **** 
 1323              		.loc 1 946 11 discriminator 2 view .LVU415
 1324 0026 FFF7FEFF 		bl	FMC_NORSRAM_WriteOperation_Enable
 1325              	.LVL127:
 949:Drivers/STM32G4xx_HAL_Driver/Src/stm32g4xx_hal_sram.c **** 
 1326              		.loc 1 949 5 is_stmt 1 discriminator 2 view .LVU416
 949:Drivers/STM32G4xx_HAL_Driver/Src/stm32g4xx_hal_sram.c **** 
 1327              		.loc 1 949 18 is_stmt 0 discriminator 2 view .LVU417
 1328 002a 84F85150 		strb	r5, [r4, #81]
 952:Drivers/STM32G4xx_HAL_Driver/Src/stm32g4xx_hal_sram.c ****   }
 1329              		.loc 1 952 5 is_stmt 1 discriminator 2 view .LVU418
 952:Drivers/STM32G4xx_HAL_Driver/Src/stm32g4xx_hal_sram.c ****   }
 1330              		.loc 1 952 5 discriminator 2 view .LVU419
 1331 002e 0020     		movs	r0, #0
 1332 0030 84F85000 		strb	r0, [r4, #80]
 952:Drivers/STM32G4xx_HAL_Driver/Src/stm32g4xx_hal_sram.c ****   }
 1333              		.loc 1 952 5 discriminator 2 view .LVU420
 959:Drivers/STM32G4xx_HAL_Driver/Src/stm32g4xx_hal_sram.c **** }
 1334              		.loc 1 959 3 discriminator 2 view .LVU421
 959:Drivers/STM32G4xx_HAL_Driver/Src/stm32g4xx_hal_sram.c **** }
ARM GAS  /tmp/cc4B6zn6.s 			page 50


 1335              		.loc 1 959 10 is_stmt 0 discriminator 2 view .LVU422
 1336 0034 00E0     		b	.L90
 1337              	.LVL128:
 1338              	.L91:
 956:Drivers/STM32G4xx_HAL_Driver/Src/stm32g4xx_hal_sram.c ****   }
 1339              		.loc 1 956 12 view .LVU423
 1340 0036 0120     		movs	r0, #1
 1341              	.LVL129:
 1342              	.L90:
 960:Drivers/STM32G4xx_HAL_Driver/Src/stm32g4xx_hal_sram.c **** 
 1343              		.loc 1 960 1 view .LVU424
 1344 0038 38BD     		pop	{r3, r4, r5, pc}
 1345              	.LVL130:
 1346              	.L92:
 940:Drivers/STM32G4xx_HAL_Driver/Src/stm32g4xx_hal_sram.c **** 
 1347              		.loc 1 940 5 view .LVU425
 1348 003a 0220     		movs	r0, #2
 1349              	.LVL131:
 940:Drivers/STM32G4xx_HAL_Driver/Src/stm32g4xx_hal_sram.c **** 
 1350              		.loc 1 940 5 view .LVU426
 1351 003c FCE7     		b	.L90
 1352              		.cfi_endproc
 1353              	.LFE343:
 1355              		.section	.text.HAL_SRAM_WriteOperation_Disable,"ax",%progbits
 1356              		.align	1
 1357              		.global	HAL_SRAM_WriteOperation_Disable
 1358              		.syntax unified
 1359              		.thumb
 1360              		.thumb_func
 1362              	HAL_SRAM_WriteOperation_Disable:
 1363              	.LVL132:
 1364              	.LFB344:
 969:Drivers/STM32G4xx_HAL_Driver/Src/stm32g4xx_hal_sram.c ****   /* Check the SRAM controller state */
 1365              		.loc 1 969 1 is_stmt 1 view -0
 1366              		.cfi_startproc
 1367              		@ args = 0, pretend = 0, frame = 0
 1368              		@ frame_needed = 0, uses_anonymous_args = 0
 971:Drivers/STM32G4xx_HAL_Driver/Src/stm32g4xx_hal_sram.c ****   {
 1369              		.loc 1 971 3 view .LVU428
 971:Drivers/STM32G4xx_HAL_Driver/Src/stm32g4xx_hal_sram.c ****   {
 1370              		.loc 1 971 12 is_stmt 0 view .LVU429
 1371 0000 90F85130 		ldrb	r3, [r0, #81]	@ zero_extendqisi2
 1372 0004 DBB2     		uxtb	r3, r3
 971:Drivers/STM32G4xx_HAL_Driver/Src/stm32g4xx_hal_sram.c ****   {
 1373              		.loc 1 971 6 view .LVU430
 1374 0006 012B     		cmp	r3, #1
 1375 0008 16D1     		bne	.L96
 969:Drivers/STM32G4xx_HAL_Driver/Src/stm32g4xx_hal_sram.c ****   /* Check the SRAM controller state */
 1376              		.loc 1 969 1 view .LVU431
 1377 000a 10B5     		push	{r4, lr}
 1378              	.LCFI20:
 1379              		.cfi_def_cfa_offset 8
 1380              		.cfi_offset 4, -8
 1381              		.cfi_offset 14, -4
 1382 000c 0446     		mov	r4, r0
 974:Drivers/STM32G4xx_HAL_Driver/Src/stm32g4xx_hal_sram.c **** 
 1383              		.loc 1 974 5 is_stmt 1 view .LVU432
ARM GAS  /tmp/cc4B6zn6.s 			page 51


 974:Drivers/STM32G4xx_HAL_Driver/Src/stm32g4xx_hal_sram.c **** 
 1384              		.loc 1 974 5 view .LVU433
 1385 000e 90F85030 		ldrb	r3, [r0, #80]	@ zero_extendqisi2
 1386 0012 012B     		cmp	r3, #1
 1387 0014 12D0     		beq	.L97
 974:Drivers/STM32G4xx_HAL_Driver/Src/stm32g4xx_hal_sram.c **** 
 1388              		.loc 1 974 5 discriminator 2 view .LVU434
 1389 0016 0123     		movs	r3, #1
 1390 0018 80F85030 		strb	r3, [r0, #80]
 974:Drivers/STM32G4xx_HAL_Driver/Src/stm32g4xx_hal_sram.c **** 
 1391              		.loc 1 974 5 discriminator 2 view .LVU435
 977:Drivers/STM32G4xx_HAL_Driver/Src/stm32g4xx_hal_sram.c **** 
 1392              		.loc 1 977 5 discriminator 2 view .LVU436
 977:Drivers/STM32G4xx_HAL_Driver/Src/stm32g4xx_hal_sram.c **** 
 1393              		.loc 1 977 18 is_stmt 0 discriminator 2 view .LVU437
 1394 001c 0223     		movs	r3, #2
 1395 001e 80F85130 		strb	r3, [r0, #81]
 980:Drivers/STM32G4xx_HAL_Driver/Src/stm32g4xx_hal_sram.c **** 
 1396              		.loc 1 980 5 is_stmt 1 discriminator 2 view .LVU438
 980:Drivers/STM32G4xx_HAL_Driver/Src/stm32g4xx_hal_sram.c **** 
 1397              		.loc 1 980 11 is_stmt 0 discriminator 2 view .LVU439
 1398 0022 8168     		ldr	r1, [r0, #8]
 1399 0024 0068     		ldr	r0, [r0]
 1400              	.LVL133:
 980:Drivers/STM32G4xx_HAL_Driver/Src/stm32g4xx_hal_sram.c **** 
 1401              		.loc 1 980 11 discriminator 2 view .LVU440
 1402 0026 FFF7FEFF 		bl	FMC_NORSRAM_WriteOperation_Disable
 1403              	.LVL134:
 983:Drivers/STM32G4xx_HAL_Driver/Src/stm32g4xx_hal_sram.c **** 
 1404              		.loc 1 983 5 is_stmt 1 discriminator 2 view .LVU441
 983:Drivers/STM32G4xx_HAL_Driver/Src/stm32g4xx_hal_sram.c **** 
 1405              		.loc 1 983 18 is_stmt 0 discriminator 2 view .LVU442
 1406 002a 0423     		movs	r3, #4
 1407 002c 84F85130 		strb	r3, [r4, #81]
 986:Drivers/STM32G4xx_HAL_Driver/Src/stm32g4xx_hal_sram.c ****   }
 1408              		.loc 1 986 5 is_stmt 1 discriminator 2 view .LVU443
 986:Drivers/STM32G4xx_HAL_Driver/Src/stm32g4xx_hal_sram.c ****   }
 1409              		.loc 1 986 5 discriminator 2 view .LVU444
 1410 0030 0020     		movs	r0, #0
 1411 0032 84F85000 		strb	r0, [r4, #80]
 986:Drivers/STM32G4xx_HAL_Driver/Src/stm32g4xx_hal_sram.c ****   }
 1412              		.loc 1 986 5 discriminator 2 view .LVU445
 993:Drivers/STM32G4xx_HAL_Driver/Src/stm32g4xx_hal_sram.c **** }
 1413              		.loc 1 993 3 discriminator 2 view .LVU446
 1414              	.L95:
 994:Drivers/STM32G4xx_HAL_Driver/Src/stm32g4xx_hal_sram.c **** 
 1415              		.loc 1 994 1 is_stmt 0 view .LVU447
 1416 0036 10BD     		pop	{r4, pc}
 1417              	.LVL135:
 1418              	.L96:
 1419              	.LCFI21:
 1420              		.cfi_def_cfa_offset 0
 1421              		.cfi_restore 4
 1422              		.cfi_restore 14
 990:Drivers/STM32G4xx_HAL_Driver/Src/stm32g4xx_hal_sram.c ****   }
 1423              		.loc 1 990 12 view .LVU448
 1424 0038 0120     		movs	r0, #1
ARM GAS  /tmp/cc4B6zn6.s 			page 52


 1425              	.LVL136:
 994:Drivers/STM32G4xx_HAL_Driver/Src/stm32g4xx_hal_sram.c **** 
 1426              		.loc 1 994 1 view .LVU449
 1427 003a 7047     		bx	lr
 1428              	.LVL137:
 1429              	.L97:
 1430              	.LCFI22:
 1431              		.cfi_def_cfa_offset 8
 1432              		.cfi_offset 4, -8
 1433              		.cfi_offset 14, -4
 974:Drivers/STM32G4xx_HAL_Driver/Src/stm32g4xx_hal_sram.c **** 
 1434              		.loc 1 974 5 view .LVU450
 1435 003c 0220     		movs	r0, #2
 1436              	.LVL138:
 974:Drivers/STM32G4xx_HAL_Driver/Src/stm32g4xx_hal_sram.c **** 
 1437              		.loc 1 974 5 view .LVU451
 1438 003e FAE7     		b	.L95
 1439              		.cfi_endproc
 1440              	.LFE344:
 1442              		.section	.text.HAL_SRAM_GetState,"ax",%progbits
 1443              		.align	1
 1444              		.global	HAL_SRAM_GetState
 1445              		.syntax unified
 1446              		.thumb
 1447              		.thumb_func
 1449              	HAL_SRAM_GetState:
 1450              	.LVL139:
 1451              	.LFB345:
1022:Drivers/STM32G4xx_HAL_Driver/Src/stm32g4xx_hal_sram.c ****   return hsram->State;
 1452              		.loc 1 1022 1 is_stmt 1 view -0
 1453              		.cfi_startproc
 1454              		@ args = 0, pretend = 0, frame = 0
 1455              		@ frame_needed = 0, uses_anonymous_args = 0
 1456              		@ link register save eliminated.
1023:Drivers/STM32G4xx_HAL_Driver/Src/stm32g4xx_hal_sram.c **** }
 1457              		.loc 1 1023 3 view .LVU453
1023:Drivers/STM32G4xx_HAL_Driver/Src/stm32g4xx_hal_sram.c **** }
 1458              		.loc 1 1023 15 is_stmt 0 view .LVU454
 1459 0000 90F85100 		ldrb	r0, [r0, #81]	@ zero_extendqisi2
 1460              	.LVL140:
1024:Drivers/STM32G4xx_HAL_Driver/Src/stm32g4xx_hal_sram.c **** 
 1461              		.loc 1 1024 1 view .LVU455
 1462 0004 7047     		bx	lr
 1463              		.cfi_endproc
 1464              	.LFE345:
 1466              		.text
 1467              	.Letext0:
 1468              		.file 2 "/usr/share/gcc-arm-none-eabi-10.3-2021.10/arm-none-eabi/include/machine/_default_types.h"
 1469              		.file 3 "/usr/share/gcc-arm-none-eabi-10.3-2021.10/arm-none-eabi/include/sys/_stdint.h"
 1470              		.file 4 "Drivers/CMSIS/Device/ST/STM32G4xx/Include/stm32g474xx.h"
 1471              		.file 5 "Drivers/CMSIS/Device/ST/STM32G4xx/Include/stm32g4xx.h"
 1472              		.file 6 "Drivers/STM32G4xx_HAL_Driver/Inc/stm32g4xx_hal_def.h"
 1473              		.file 7 "Drivers/STM32G4xx_HAL_Driver/Inc/stm32g4xx_hal_dma.h"
 1474              		.file 8 "Drivers/STM32G4xx_HAL_Driver/Inc/stm32g4xx_ll_fmc.h"
 1475              		.file 9 "Drivers/STM32G4xx_HAL_Driver/Inc/stm32g4xx_hal_sram.h"
ARM GAS  /tmp/cc4B6zn6.s 			page 53

