ARM GAS  /tmp/ccBduf5I.s 			page 1


   1              		.cpu cortex-m4
   2              		.arch armv7e-m
   3              		.fpu fpv4-sp-d16
   4              		.eabi_attribute 27, 1
   5              		.eabi_attribute 28, 1
   6              		.eabi_attribute 20, 1
   7              		.eabi_attribute 21, 1
   8              		.eabi_attribute 23, 3
   9              		.eabi_attribute 24, 1
  10              		.eabi_attribute 25, 1
  11              		.eabi_attribute 26, 1
  12              		.eabi_attribute 30, 1
  13              		.eabi_attribute 34, 1
  14              		.eabi_attribute 18, 4
  15              		.file	"usbd_conf.c"
  16              		.text
  17              	.Ltext0:
  18              		.cfi_sections	.debug_frame
  19              		.section	.text.USBD_Get_USB_Status,"ax",%progbits
  20              		.align	1
  21              		.syntax unified
  22              		.thumb
  23              		.thumb_func
  25              	USBD_Get_USB_Status:
  26              	.LVL0:
  27              	.LFB365:
  28              		.file 1 "USB_Device/Target/usbd_conf.c"
   1:USB_Device/Target/usbd_conf.c **** /* USER CODE BEGIN Header */
   2:USB_Device/Target/usbd_conf.c **** /**
   3:USB_Device/Target/usbd_conf.c ****   ******************************************************************************
   4:USB_Device/Target/usbd_conf.c ****   * @file           : Target/usbd_conf.c
   5:USB_Device/Target/usbd_conf.c ****   * @version        : v3.0_Cube
   6:USB_Device/Target/usbd_conf.c ****   * @brief          : This file implements the board support package for the USB device library
   7:USB_Device/Target/usbd_conf.c ****   ******************************************************************************
   8:USB_Device/Target/usbd_conf.c ****   * @attention
   9:USB_Device/Target/usbd_conf.c ****   *
  10:USB_Device/Target/usbd_conf.c ****   * <h2><center>&copy; Copyright (c) 2021 STMicroelectronics.
  11:USB_Device/Target/usbd_conf.c ****   * All rights reserved.</center></h2>
  12:USB_Device/Target/usbd_conf.c ****   *
  13:USB_Device/Target/usbd_conf.c ****   * This software component is licensed by ST under Ultimate Liberty license
  14:USB_Device/Target/usbd_conf.c ****   * SLA0044, the "License"; You may not use this file except in compliance with
  15:USB_Device/Target/usbd_conf.c ****   * the License. You may obtain a copy of the License at:
  16:USB_Device/Target/usbd_conf.c ****   *                             www.st.com/SLA0044
  17:USB_Device/Target/usbd_conf.c ****   *
  18:USB_Device/Target/usbd_conf.c ****   ******************************************************************************
  19:USB_Device/Target/usbd_conf.c ****   */
  20:USB_Device/Target/usbd_conf.c **** /* USER CODE END Header */
  21:USB_Device/Target/usbd_conf.c **** 
  22:USB_Device/Target/usbd_conf.c **** /* Includes ------------------------------------------------------------------*/
  23:USB_Device/Target/usbd_conf.c **** #include "stm32g4xx.h"
  24:USB_Device/Target/usbd_conf.c **** #include "stm32g4xx_hal.h"
  25:USB_Device/Target/usbd_conf.c **** #include "usbd_def.h"
  26:USB_Device/Target/usbd_conf.c **** #include "usbd_core.h"
  27:USB_Device/Target/usbd_conf.c **** 
  28:USB_Device/Target/usbd_conf.c **** #include "usbd_cdc.h"
  29:USB_Device/Target/usbd_conf.c **** 
  30:USB_Device/Target/usbd_conf.c **** /* USER CODE BEGIN Includes */
ARM GAS  /tmp/ccBduf5I.s 			page 2


  31:USB_Device/Target/usbd_conf.c **** 
  32:USB_Device/Target/usbd_conf.c **** /* USER CODE END Includes */
  33:USB_Device/Target/usbd_conf.c **** 
  34:USB_Device/Target/usbd_conf.c **** /* Private typedef -----------------------------------------------------------*/
  35:USB_Device/Target/usbd_conf.c **** /* Private define ------------------------------------------------------------*/
  36:USB_Device/Target/usbd_conf.c **** /* Private macro -------------------------------------------------------------*/
  37:USB_Device/Target/usbd_conf.c **** 
  38:USB_Device/Target/usbd_conf.c **** /* Private variables ---------------------------------------------------------*/
  39:USB_Device/Target/usbd_conf.c **** /* USER CODE BEGIN PV */
  40:USB_Device/Target/usbd_conf.c **** 
  41:USB_Device/Target/usbd_conf.c **** /* USER CODE END PV */
  42:USB_Device/Target/usbd_conf.c **** 
  43:USB_Device/Target/usbd_conf.c **** PCD_HandleTypeDef hpcd_USB_FS;
  44:USB_Device/Target/usbd_conf.c **** void Error_Handler(void);
  45:USB_Device/Target/usbd_conf.c **** 
  46:USB_Device/Target/usbd_conf.c **** /* USER CODE BEGIN 0 */
  47:USB_Device/Target/usbd_conf.c **** 
  48:USB_Device/Target/usbd_conf.c **** /* USER CODE END 0 */
  49:USB_Device/Target/usbd_conf.c **** 
  50:USB_Device/Target/usbd_conf.c **** /* Exported function prototypes ----------------------------------------------*/
  51:USB_Device/Target/usbd_conf.c **** 
  52:USB_Device/Target/usbd_conf.c **** /* USER CODE BEGIN PFP */
  53:USB_Device/Target/usbd_conf.c **** /* Private function prototypes -----------------------------------------------*/
  54:USB_Device/Target/usbd_conf.c **** 
  55:USB_Device/Target/usbd_conf.c **** /* USER CODE END PFP */
  56:USB_Device/Target/usbd_conf.c **** 
  57:USB_Device/Target/usbd_conf.c **** /* Private functions ---------------------------------------------------------*/
  58:USB_Device/Target/usbd_conf.c **** static USBD_StatusTypeDef USBD_Get_USB_Status(HAL_StatusTypeDef hal_status);
  59:USB_Device/Target/usbd_conf.c **** /* USER CODE BEGIN 1 */
  60:USB_Device/Target/usbd_conf.c **** static void SystemClockConfig_Resume(void);
  61:USB_Device/Target/usbd_conf.c **** 
  62:USB_Device/Target/usbd_conf.c **** /* USER CODE END 1 */
  63:USB_Device/Target/usbd_conf.c **** extern void SystemClock_Config(void);
  64:USB_Device/Target/usbd_conf.c **** 
  65:USB_Device/Target/usbd_conf.c **** /*******************************************************************************
  66:USB_Device/Target/usbd_conf.c ****                        LL Driver Callbacks (PCD -> USB Device Library)
  67:USB_Device/Target/usbd_conf.c **** *******************************************************************************/
  68:USB_Device/Target/usbd_conf.c **** /* MSP Init */
  69:USB_Device/Target/usbd_conf.c **** 
  70:USB_Device/Target/usbd_conf.c **** #if (USE_HAL_PCD_REGISTER_CALLBACKS == 1U)
  71:USB_Device/Target/usbd_conf.c **** static void HAL_PCD_MspInit(PCD_HandleTypeDef* pcdHandle)
  72:USB_Device/Target/usbd_conf.c **** #else
  73:USB_Device/Target/usbd_conf.c **** void HAL_PCD_MspInit(PCD_HandleTypeDef* pcdHandle)
  74:USB_Device/Target/usbd_conf.c **** #endif /* USE_HAL_PCD_REGISTER_CALLBACKS */
  75:USB_Device/Target/usbd_conf.c **** {
  76:USB_Device/Target/usbd_conf.c ****   RCC_PeriphCLKInitTypeDef PeriphClkInit = {0};
  77:USB_Device/Target/usbd_conf.c ****   if(pcdHandle->Instance==USB)
  78:USB_Device/Target/usbd_conf.c ****   {
  79:USB_Device/Target/usbd_conf.c ****   /* USER CODE BEGIN USB_MspInit 0 */
  80:USB_Device/Target/usbd_conf.c **** 
  81:USB_Device/Target/usbd_conf.c ****   /* USER CODE END USB_MspInit 0 */
  82:USB_Device/Target/usbd_conf.c **** 
  83:USB_Device/Target/usbd_conf.c ****   /** Initializes the peripherals clocks
  84:USB_Device/Target/usbd_conf.c ****   */
  85:USB_Device/Target/usbd_conf.c ****     PeriphClkInit.PeriphClockSelection = RCC_PERIPHCLK_USB;
  86:USB_Device/Target/usbd_conf.c ****     PeriphClkInit.UsbClockSelection = RCC_USBCLKSOURCE_HSI48;
  87:USB_Device/Target/usbd_conf.c ****     if (HAL_RCCEx_PeriphCLKConfig(&PeriphClkInit) != HAL_OK)
ARM GAS  /tmp/ccBduf5I.s 			page 3


  88:USB_Device/Target/usbd_conf.c ****     {
  89:USB_Device/Target/usbd_conf.c ****       Error_Handler();
  90:USB_Device/Target/usbd_conf.c ****     }
  91:USB_Device/Target/usbd_conf.c **** 
  92:USB_Device/Target/usbd_conf.c ****     /* Peripheral clock enable */
  93:USB_Device/Target/usbd_conf.c ****     __HAL_RCC_USB_CLK_ENABLE();
  94:USB_Device/Target/usbd_conf.c **** 
  95:USB_Device/Target/usbd_conf.c ****     /* Peripheral interrupt init */
  96:USB_Device/Target/usbd_conf.c ****     HAL_NVIC_SetPriority(USB_LP_IRQn, 0, 0);
  97:USB_Device/Target/usbd_conf.c ****     HAL_NVIC_EnableIRQ(USB_LP_IRQn);
  98:USB_Device/Target/usbd_conf.c ****   /* USER CODE BEGIN USB_MspInit 1 */
  99:USB_Device/Target/usbd_conf.c **** 
 100:USB_Device/Target/usbd_conf.c ****   /* USER CODE END USB_MspInit 1 */
 101:USB_Device/Target/usbd_conf.c ****   }
 102:USB_Device/Target/usbd_conf.c **** }
 103:USB_Device/Target/usbd_conf.c **** 
 104:USB_Device/Target/usbd_conf.c **** #if (USE_HAL_PCD_REGISTER_CALLBACKS == 1U)
 105:USB_Device/Target/usbd_conf.c **** static void HAL_PCD_MspDeInit(PCD_HandleTypeDef* pcdHandle)
 106:USB_Device/Target/usbd_conf.c **** #else
 107:USB_Device/Target/usbd_conf.c **** void HAL_PCD_MspDeInit(PCD_HandleTypeDef* pcdHandle)
 108:USB_Device/Target/usbd_conf.c **** #endif /* USE_HAL_PCD_REGISTER_CALLBACKS */
 109:USB_Device/Target/usbd_conf.c **** {
 110:USB_Device/Target/usbd_conf.c ****   if(pcdHandle->Instance==USB)
 111:USB_Device/Target/usbd_conf.c ****   {
 112:USB_Device/Target/usbd_conf.c ****   /* USER CODE BEGIN USB_MspDeInit 0 */
 113:USB_Device/Target/usbd_conf.c **** 
 114:USB_Device/Target/usbd_conf.c ****   /* USER CODE END USB_MspDeInit 0 */
 115:USB_Device/Target/usbd_conf.c ****     /* Peripheral clock disable */
 116:USB_Device/Target/usbd_conf.c ****     __HAL_RCC_USB_CLK_DISABLE();
 117:USB_Device/Target/usbd_conf.c **** 
 118:USB_Device/Target/usbd_conf.c ****     /* Peripheral interrupt Deinit*/
 119:USB_Device/Target/usbd_conf.c ****     HAL_NVIC_DisableIRQ(USB_LP_IRQn);
 120:USB_Device/Target/usbd_conf.c **** 
 121:USB_Device/Target/usbd_conf.c ****   /* USER CODE BEGIN USB_MspDeInit 1 */
 122:USB_Device/Target/usbd_conf.c **** 
 123:USB_Device/Target/usbd_conf.c ****   /* USER CODE END USB_MspDeInit 1 */
 124:USB_Device/Target/usbd_conf.c ****   }
 125:USB_Device/Target/usbd_conf.c **** }
 126:USB_Device/Target/usbd_conf.c **** 
 127:USB_Device/Target/usbd_conf.c **** /**
 128:USB_Device/Target/usbd_conf.c ****   * @brief  Setup stage callback
 129:USB_Device/Target/usbd_conf.c ****   * @param  hpcd: PCD handle
 130:USB_Device/Target/usbd_conf.c ****   * @retval None
 131:USB_Device/Target/usbd_conf.c ****   */
 132:USB_Device/Target/usbd_conf.c **** #if (USE_HAL_PCD_REGISTER_CALLBACKS == 1U)
 133:USB_Device/Target/usbd_conf.c **** static void PCD_SetupStageCallback(PCD_HandleTypeDef *hpcd)
 134:USB_Device/Target/usbd_conf.c **** #else
 135:USB_Device/Target/usbd_conf.c **** void HAL_PCD_SetupStageCallback(PCD_HandleTypeDef *hpcd)
 136:USB_Device/Target/usbd_conf.c **** #endif /* USE_HAL_PCD_REGISTER_CALLBACKS */
 137:USB_Device/Target/usbd_conf.c **** {
 138:USB_Device/Target/usbd_conf.c ****   /* USER CODE BEGIN HAL_PCD_SetupStageCallback_PreTreatment */
 139:USB_Device/Target/usbd_conf.c **** 
 140:USB_Device/Target/usbd_conf.c ****   /* USER CODE END  HAL_PCD_SetupStageCallback_PreTreatment */
 141:USB_Device/Target/usbd_conf.c ****   USBD_LL_SetupStage((USBD_HandleTypeDef*)hpcd->pData, (uint8_t *)hpcd->Setup);
 142:USB_Device/Target/usbd_conf.c ****   /* USER CODE BEGIN HAL_PCD_SetupStageCallback_PostTreatment */
 143:USB_Device/Target/usbd_conf.c **** 
 144:USB_Device/Target/usbd_conf.c ****   /* USER CODE END  HAL_PCD_SetupStageCallback_PostTreatment */
ARM GAS  /tmp/ccBduf5I.s 			page 4


 145:USB_Device/Target/usbd_conf.c **** }
 146:USB_Device/Target/usbd_conf.c **** 
 147:USB_Device/Target/usbd_conf.c **** /**
 148:USB_Device/Target/usbd_conf.c ****   * @brief  Data Out stage callback.
 149:USB_Device/Target/usbd_conf.c ****   * @param  hpcd: PCD handle
 150:USB_Device/Target/usbd_conf.c ****   * @param  epnum: Endpoint number
 151:USB_Device/Target/usbd_conf.c ****   * @retval None
 152:USB_Device/Target/usbd_conf.c ****   */
 153:USB_Device/Target/usbd_conf.c **** #if (USE_HAL_PCD_REGISTER_CALLBACKS == 1U)
 154:USB_Device/Target/usbd_conf.c **** static void PCD_DataOutStageCallback(PCD_HandleTypeDef *hpcd, uint8_t epnum)
 155:USB_Device/Target/usbd_conf.c **** #else
 156:USB_Device/Target/usbd_conf.c **** void HAL_PCD_DataOutStageCallback(PCD_HandleTypeDef *hpcd, uint8_t epnum)
 157:USB_Device/Target/usbd_conf.c **** #endif /* USE_HAL_PCD_REGISTER_CALLBACKS */
 158:USB_Device/Target/usbd_conf.c **** {
 159:USB_Device/Target/usbd_conf.c ****   /* USER CODE BEGIN HAL_PCD_DataOutStageCallback_PreTreatment */
 160:USB_Device/Target/usbd_conf.c **** 
 161:USB_Device/Target/usbd_conf.c ****   /* USER CODE END HAL_PCD_DataOutStageCallback_PreTreatment */
 162:USB_Device/Target/usbd_conf.c ****   USBD_LL_DataOutStage((USBD_HandleTypeDef*)hpcd->pData, epnum, hpcd->OUT_ep[epnum].xfer_buff);
 163:USB_Device/Target/usbd_conf.c ****   /* USER CODE BEGIN HAL_PCD_DataOutStageCallback_PostTreatment */
 164:USB_Device/Target/usbd_conf.c **** 
 165:USB_Device/Target/usbd_conf.c ****   /* USER CODE END HAL_PCD_DataOutStageCallback_PostTreatment */
 166:USB_Device/Target/usbd_conf.c **** }
 167:USB_Device/Target/usbd_conf.c **** 
 168:USB_Device/Target/usbd_conf.c **** /**
 169:USB_Device/Target/usbd_conf.c ****   * @brief  Data In stage callback.
 170:USB_Device/Target/usbd_conf.c ****   * @param  hpcd: PCD handle
 171:USB_Device/Target/usbd_conf.c ****   * @param  epnum: Endpoint number
 172:USB_Device/Target/usbd_conf.c ****   * @retval None
 173:USB_Device/Target/usbd_conf.c ****   */
 174:USB_Device/Target/usbd_conf.c **** #if (USE_HAL_PCD_REGISTER_CALLBACKS == 1U)
 175:USB_Device/Target/usbd_conf.c **** static void PCD_DataInStageCallback(PCD_HandleTypeDef *hpcd, uint8_t epnum)
 176:USB_Device/Target/usbd_conf.c **** #else
 177:USB_Device/Target/usbd_conf.c **** void HAL_PCD_DataInStageCallback(PCD_HandleTypeDef *hpcd, uint8_t epnum)
 178:USB_Device/Target/usbd_conf.c **** #endif /* USE_HAL_PCD_REGISTER_CALLBACKS */
 179:USB_Device/Target/usbd_conf.c **** {
 180:USB_Device/Target/usbd_conf.c ****   /* USER CODE BEGIN HAL_PCD_DataInStageCallback_PreTreatment */
 181:USB_Device/Target/usbd_conf.c **** 
 182:USB_Device/Target/usbd_conf.c ****   /* USER CODE END HAL_PCD_DataInStageCallback_PreTreatment */
 183:USB_Device/Target/usbd_conf.c ****   USBD_LL_DataInStage((USBD_HandleTypeDef*)hpcd->pData, epnum, hpcd->IN_ep[epnum].xfer_buff);
 184:USB_Device/Target/usbd_conf.c ****   /* USER CODE BEGIN HAL_PCD_DataInStageCallback_PostTreatment  */
 185:USB_Device/Target/usbd_conf.c **** 
 186:USB_Device/Target/usbd_conf.c ****   /* USER CODE END HAL_PCD_DataInStageCallback_PostTreatment */
 187:USB_Device/Target/usbd_conf.c **** }
 188:USB_Device/Target/usbd_conf.c **** 
 189:USB_Device/Target/usbd_conf.c **** /**
 190:USB_Device/Target/usbd_conf.c ****   * @brief  SOF callback.
 191:USB_Device/Target/usbd_conf.c ****   * @param  hpcd: PCD handle
 192:USB_Device/Target/usbd_conf.c ****   * @retval None
 193:USB_Device/Target/usbd_conf.c ****   */
 194:USB_Device/Target/usbd_conf.c **** #if (USE_HAL_PCD_REGISTER_CALLBACKS == 1U)
 195:USB_Device/Target/usbd_conf.c **** static void PCD_SOFCallback(PCD_HandleTypeDef *hpcd)
 196:USB_Device/Target/usbd_conf.c **** #else
 197:USB_Device/Target/usbd_conf.c **** void HAL_PCD_SOFCallback(PCD_HandleTypeDef *hpcd)
 198:USB_Device/Target/usbd_conf.c **** #endif /* USE_HAL_PCD_REGISTER_CALLBACKS */
 199:USB_Device/Target/usbd_conf.c **** {
 200:USB_Device/Target/usbd_conf.c ****   /* USER CODE BEGIN HAL_PCD_SOFCallback_PreTreatment */
 201:USB_Device/Target/usbd_conf.c **** 
ARM GAS  /tmp/ccBduf5I.s 			page 5


 202:USB_Device/Target/usbd_conf.c ****   /* USER CODE END HAL_PCD_SOFCallback_PreTreatment */
 203:USB_Device/Target/usbd_conf.c ****   USBD_LL_SOF((USBD_HandleTypeDef*)hpcd->pData);
 204:USB_Device/Target/usbd_conf.c ****   /* USER CODE BEGIN HAL_PCD_SOFCallback_PostTreatment */
 205:USB_Device/Target/usbd_conf.c **** 
 206:USB_Device/Target/usbd_conf.c ****   /* USER CODE END HAL_PCD_SOFCallback_PostTreatment */
 207:USB_Device/Target/usbd_conf.c **** }
 208:USB_Device/Target/usbd_conf.c **** 
 209:USB_Device/Target/usbd_conf.c **** /**
 210:USB_Device/Target/usbd_conf.c ****   * @brief  Reset callback.
 211:USB_Device/Target/usbd_conf.c ****   * @param  hpcd: PCD handle
 212:USB_Device/Target/usbd_conf.c ****   * @retval None
 213:USB_Device/Target/usbd_conf.c ****   */
 214:USB_Device/Target/usbd_conf.c **** #if (USE_HAL_PCD_REGISTER_CALLBACKS == 1U)
 215:USB_Device/Target/usbd_conf.c **** static void PCD_ResetCallback(PCD_HandleTypeDef *hpcd)
 216:USB_Device/Target/usbd_conf.c **** #else
 217:USB_Device/Target/usbd_conf.c **** void HAL_PCD_ResetCallback(PCD_HandleTypeDef *hpcd)
 218:USB_Device/Target/usbd_conf.c **** #endif /* USE_HAL_PCD_REGISTER_CALLBACKS */
 219:USB_Device/Target/usbd_conf.c **** {
 220:USB_Device/Target/usbd_conf.c ****   /* USER CODE BEGIN HAL_PCD_ResetCallback_PreTreatment */
 221:USB_Device/Target/usbd_conf.c **** 
 222:USB_Device/Target/usbd_conf.c ****   /* USER CODE END HAL_PCD_ResetCallback_PreTreatment */
 223:USB_Device/Target/usbd_conf.c ****   USBD_SpeedTypeDef speed = USBD_SPEED_FULL;
 224:USB_Device/Target/usbd_conf.c **** 
 225:USB_Device/Target/usbd_conf.c ****   if ( hpcd->Init.speed != PCD_SPEED_FULL)
 226:USB_Device/Target/usbd_conf.c ****   {
 227:USB_Device/Target/usbd_conf.c ****     Error_Handler();
 228:USB_Device/Target/usbd_conf.c ****   }
 229:USB_Device/Target/usbd_conf.c ****     /* Set Speed. */
 230:USB_Device/Target/usbd_conf.c ****   USBD_LL_SetSpeed((USBD_HandleTypeDef*)hpcd->pData, speed);
 231:USB_Device/Target/usbd_conf.c **** 
 232:USB_Device/Target/usbd_conf.c ****   /* Reset Device. */
 233:USB_Device/Target/usbd_conf.c ****   USBD_LL_Reset((USBD_HandleTypeDef*)hpcd->pData);
 234:USB_Device/Target/usbd_conf.c ****   /* USER CODE BEGIN HAL_PCD_ResetCallback_PostTreatment */
 235:USB_Device/Target/usbd_conf.c **** 
 236:USB_Device/Target/usbd_conf.c ****   /* USER CODE END HAL_PCD_ResetCallback_PostTreatment */
 237:USB_Device/Target/usbd_conf.c **** }
 238:USB_Device/Target/usbd_conf.c **** 
 239:USB_Device/Target/usbd_conf.c **** /**
 240:USB_Device/Target/usbd_conf.c ****   * @brief  Suspend callback.
 241:USB_Device/Target/usbd_conf.c ****   * When Low power mode is enabled the debug cannot be used (IAR, Keil doesn't support it)
 242:USB_Device/Target/usbd_conf.c ****   * @param  hpcd: PCD handle
 243:USB_Device/Target/usbd_conf.c ****   * @retval None
 244:USB_Device/Target/usbd_conf.c ****   */
 245:USB_Device/Target/usbd_conf.c **** #if (USE_HAL_PCD_REGISTER_CALLBACKS == 1U)
 246:USB_Device/Target/usbd_conf.c **** static void PCD_SuspendCallback(PCD_HandleTypeDef *hpcd)
 247:USB_Device/Target/usbd_conf.c **** #else
 248:USB_Device/Target/usbd_conf.c **** void HAL_PCD_SuspendCallback(PCD_HandleTypeDef *hpcd)
 249:USB_Device/Target/usbd_conf.c **** #endif /* USE_HAL_PCD_REGISTER_CALLBACKS */
 250:USB_Device/Target/usbd_conf.c **** {
 251:USB_Device/Target/usbd_conf.c ****   /* USER CODE BEGIN HAL_PCD_SuspendCallback_PreTreatment */
 252:USB_Device/Target/usbd_conf.c **** 
 253:USB_Device/Target/usbd_conf.c ****   /* USER CODE END HAL_PCD_SuspendCallback_PreTreatment */
 254:USB_Device/Target/usbd_conf.c ****   /* Inform USB library that core enters in suspend Mode. */
 255:USB_Device/Target/usbd_conf.c ****   USBD_LL_Suspend((USBD_HandleTypeDef*)hpcd->pData);
 256:USB_Device/Target/usbd_conf.c ****   /* Enter in STOP mode. */
 257:USB_Device/Target/usbd_conf.c ****   /* USER CODE BEGIN 2 */
 258:USB_Device/Target/usbd_conf.c ****   if (hpcd->Init.low_power_enable)
ARM GAS  /tmp/ccBduf5I.s 			page 6


 259:USB_Device/Target/usbd_conf.c ****   {
 260:USB_Device/Target/usbd_conf.c ****     /* Set SLEEPDEEP bit and SleepOnExit of Cortex System Control Register. */
 261:USB_Device/Target/usbd_conf.c ****     SCB->SCR |= (uint32_t)((uint32_t)(SCB_SCR_SLEEPDEEP_Msk | SCB_SCR_SLEEPONEXIT_Msk));
 262:USB_Device/Target/usbd_conf.c ****   }
 263:USB_Device/Target/usbd_conf.c ****   /* USER CODE END 2 */
 264:USB_Device/Target/usbd_conf.c ****   /* USER CODE BEGIN HAL_PCD_SuspendCallback_PostTreatment */
 265:USB_Device/Target/usbd_conf.c **** 
 266:USB_Device/Target/usbd_conf.c ****   /* USER CODE END HAL_PCD_SuspendCallback_PostTreatment */
 267:USB_Device/Target/usbd_conf.c **** }
 268:USB_Device/Target/usbd_conf.c **** 
 269:USB_Device/Target/usbd_conf.c **** /**
 270:USB_Device/Target/usbd_conf.c ****   * @brief  Resume callback.
 271:USB_Device/Target/usbd_conf.c ****   * When Low power mode is enabled the debug cannot be used (IAR, Keil doesn't support it)
 272:USB_Device/Target/usbd_conf.c ****   * @param  hpcd: PCD handle
 273:USB_Device/Target/usbd_conf.c ****   * @retval None
 274:USB_Device/Target/usbd_conf.c ****   */
 275:USB_Device/Target/usbd_conf.c **** #if (USE_HAL_PCD_REGISTER_CALLBACKS == 1U)
 276:USB_Device/Target/usbd_conf.c **** static void PCD_ResumeCallback(PCD_HandleTypeDef *hpcd)
 277:USB_Device/Target/usbd_conf.c **** #else
 278:USB_Device/Target/usbd_conf.c **** void HAL_PCD_ResumeCallback(PCD_HandleTypeDef *hpcd)
 279:USB_Device/Target/usbd_conf.c **** #endif /* USE_HAL_PCD_REGISTER_CALLBACKS */
 280:USB_Device/Target/usbd_conf.c **** {
 281:USB_Device/Target/usbd_conf.c ****   /* USER CODE BEGIN HAL_PCD_ResumeCallback_PreTreatment */
 282:USB_Device/Target/usbd_conf.c **** 
 283:USB_Device/Target/usbd_conf.c ****   /* USER CODE END HAL_PCD_ResumeCallback_PreTreatment */
 284:USB_Device/Target/usbd_conf.c **** 
 285:USB_Device/Target/usbd_conf.c ****   /* USER CODE BEGIN 3 */
 286:USB_Device/Target/usbd_conf.c ****   if (hpcd->Init.low_power_enable)
 287:USB_Device/Target/usbd_conf.c ****   {
 288:USB_Device/Target/usbd_conf.c ****     /* Reset SLEEPDEEP bit of Cortex System Control Register. */
 289:USB_Device/Target/usbd_conf.c ****     SCB->SCR &= (uint32_t)~((uint32_t)(SCB_SCR_SLEEPDEEP_Msk | SCB_SCR_SLEEPONEXIT_Msk));
 290:USB_Device/Target/usbd_conf.c ****     SystemClockConfig_Resume();
 291:USB_Device/Target/usbd_conf.c ****   }
 292:USB_Device/Target/usbd_conf.c ****   /* USER CODE END 3 */
 293:USB_Device/Target/usbd_conf.c **** 
 294:USB_Device/Target/usbd_conf.c ****   USBD_LL_Resume((USBD_HandleTypeDef*)hpcd->pData);
 295:USB_Device/Target/usbd_conf.c ****   /* USER CODE BEGIN HAL_PCD_ResumeCallback_PostTreatment */
 296:USB_Device/Target/usbd_conf.c **** 
 297:USB_Device/Target/usbd_conf.c ****   /* USER CODE END HAL_PCD_ResumeCallback_PostTreatment */
 298:USB_Device/Target/usbd_conf.c **** }
 299:USB_Device/Target/usbd_conf.c **** 
 300:USB_Device/Target/usbd_conf.c **** /**
 301:USB_Device/Target/usbd_conf.c ****   * @brief  ISOOUTIncomplete callback.
 302:USB_Device/Target/usbd_conf.c ****   * @param  hpcd: PCD handle
 303:USB_Device/Target/usbd_conf.c ****   * @param  epnum: Endpoint number
 304:USB_Device/Target/usbd_conf.c ****   * @retval None
 305:USB_Device/Target/usbd_conf.c ****   */
 306:USB_Device/Target/usbd_conf.c **** #if (USE_HAL_PCD_REGISTER_CALLBACKS == 1U)
 307:USB_Device/Target/usbd_conf.c **** static void PCD_ISOOUTIncompleteCallback(PCD_HandleTypeDef *hpcd, uint8_t epnum)
 308:USB_Device/Target/usbd_conf.c **** #else
 309:USB_Device/Target/usbd_conf.c **** void HAL_PCD_ISOOUTIncompleteCallback(PCD_HandleTypeDef *hpcd, uint8_t epnum)
 310:USB_Device/Target/usbd_conf.c **** #endif /* USE_HAL_PCD_REGISTER_CALLBACKS */
 311:USB_Device/Target/usbd_conf.c **** {
 312:USB_Device/Target/usbd_conf.c ****   /* USER CODE BEGIN HAL_PCD_ISOOUTIncompleteCallback_PreTreatment */
 313:USB_Device/Target/usbd_conf.c **** 
 314:USB_Device/Target/usbd_conf.c ****   /* USER CODE END HAL_PCD_ISOOUTIncompleteCallback_PreTreatment */
 315:USB_Device/Target/usbd_conf.c ****   USBD_LL_IsoOUTIncomplete((USBD_HandleTypeDef*)hpcd->pData, epnum);
ARM GAS  /tmp/ccBduf5I.s 			page 7


 316:USB_Device/Target/usbd_conf.c ****   /* USER CODE BEGIN HAL_PCD_ISOOUTIncompleteCallback_PostTreatment */
 317:USB_Device/Target/usbd_conf.c **** 
 318:USB_Device/Target/usbd_conf.c ****   /* USER CODE END HAL_PCD_ISOOUTIncompleteCallback_PostTreatment */
 319:USB_Device/Target/usbd_conf.c **** }
 320:USB_Device/Target/usbd_conf.c **** 
 321:USB_Device/Target/usbd_conf.c **** /**
 322:USB_Device/Target/usbd_conf.c ****   * @brief  ISOINIncomplete callback.
 323:USB_Device/Target/usbd_conf.c ****   * @param  hpcd: PCD handle
 324:USB_Device/Target/usbd_conf.c ****   * @param  epnum: Endpoint number
 325:USB_Device/Target/usbd_conf.c ****   * @retval None
 326:USB_Device/Target/usbd_conf.c ****   */
 327:USB_Device/Target/usbd_conf.c **** #if (USE_HAL_PCD_REGISTER_CALLBACKS == 1U)
 328:USB_Device/Target/usbd_conf.c **** static void PCD_ISOINIncompleteCallback(PCD_HandleTypeDef *hpcd, uint8_t epnum)
 329:USB_Device/Target/usbd_conf.c **** #else
 330:USB_Device/Target/usbd_conf.c **** void HAL_PCD_ISOINIncompleteCallback(PCD_HandleTypeDef *hpcd, uint8_t epnum)
 331:USB_Device/Target/usbd_conf.c **** #endif /* USE_HAL_PCD_REGISTER_CALLBACKS */
 332:USB_Device/Target/usbd_conf.c **** {
 333:USB_Device/Target/usbd_conf.c ****   /* USER CODE BEGIN HAL_PCD_ISOINIncompleteCallback_PreTreatment */
 334:USB_Device/Target/usbd_conf.c **** 
 335:USB_Device/Target/usbd_conf.c ****   /* USER CODE END HAL_PCD_ISOINIncompleteCallback_PreTreatment */
 336:USB_Device/Target/usbd_conf.c ****   USBD_LL_IsoINIncomplete((USBD_HandleTypeDef*)hpcd->pData, epnum);
 337:USB_Device/Target/usbd_conf.c ****   /* USER CODE BEGIN HAL_PCD_ISOINIncompleteCallback_PostTreatment */
 338:USB_Device/Target/usbd_conf.c **** 
 339:USB_Device/Target/usbd_conf.c ****   /* USER CODE END HAL_PCD_ISOINIncompleteCallback_PostTreatment */
 340:USB_Device/Target/usbd_conf.c **** }
 341:USB_Device/Target/usbd_conf.c **** 
 342:USB_Device/Target/usbd_conf.c **** /**
 343:USB_Device/Target/usbd_conf.c ****   * @brief  Connect callback.
 344:USB_Device/Target/usbd_conf.c ****   * @param  hpcd: PCD handle
 345:USB_Device/Target/usbd_conf.c ****   * @retval None
 346:USB_Device/Target/usbd_conf.c ****   */
 347:USB_Device/Target/usbd_conf.c **** #if (USE_HAL_PCD_REGISTER_CALLBACKS == 1U)
 348:USB_Device/Target/usbd_conf.c **** static void PCD_ConnectCallback(PCD_HandleTypeDef *hpcd)
 349:USB_Device/Target/usbd_conf.c **** #else
 350:USB_Device/Target/usbd_conf.c **** void HAL_PCD_ConnectCallback(PCD_HandleTypeDef *hpcd)
 351:USB_Device/Target/usbd_conf.c **** #endif /* USE_HAL_PCD_REGISTER_CALLBACKS */
 352:USB_Device/Target/usbd_conf.c **** {
 353:USB_Device/Target/usbd_conf.c ****   /* USER CODE BEGIN HAL_PCD_ConnectCallback_PreTreatment */
 354:USB_Device/Target/usbd_conf.c **** 
 355:USB_Device/Target/usbd_conf.c ****   /* USER CODE END HAL_PCD_ConnectCallback_PreTreatment */
 356:USB_Device/Target/usbd_conf.c ****   USBD_LL_DevConnected((USBD_HandleTypeDef*)hpcd->pData);
 357:USB_Device/Target/usbd_conf.c ****   /* USER CODE BEGIN HAL_PCD_ConnectCallback_PostTreatment */
 358:USB_Device/Target/usbd_conf.c **** 
 359:USB_Device/Target/usbd_conf.c ****   /* USER CODE END HAL_PCD_ConnectCallback_PostTreatment */
 360:USB_Device/Target/usbd_conf.c **** }
 361:USB_Device/Target/usbd_conf.c **** 
 362:USB_Device/Target/usbd_conf.c **** /**
 363:USB_Device/Target/usbd_conf.c ****   * @brief  Disconnect callback.
 364:USB_Device/Target/usbd_conf.c ****   * @param  hpcd: PCD handle
 365:USB_Device/Target/usbd_conf.c ****   * @retval None
 366:USB_Device/Target/usbd_conf.c ****   */
 367:USB_Device/Target/usbd_conf.c **** #if (USE_HAL_PCD_REGISTER_CALLBACKS == 1U)
 368:USB_Device/Target/usbd_conf.c **** static void PCD_DisconnectCallback(PCD_HandleTypeDef *hpcd)
 369:USB_Device/Target/usbd_conf.c **** #else
 370:USB_Device/Target/usbd_conf.c **** void HAL_PCD_DisconnectCallback(PCD_HandleTypeDef *hpcd)
 371:USB_Device/Target/usbd_conf.c **** #endif /* USE_HAL_PCD_REGISTER_CALLBACKS */
 372:USB_Device/Target/usbd_conf.c **** {
ARM GAS  /tmp/ccBduf5I.s 			page 8


 373:USB_Device/Target/usbd_conf.c ****   /* USER CODE BEGIN HAL_PCD_DisconnectCallback_PreTreatment */
 374:USB_Device/Target/usbd_conf.c **** 
 375:USB_Device/Target/usbd_conf.c ****   /* USER CODE END HAL_PCD_DisconnectCallback_PreTreatment */
 376:USB_Device/Target/usbd_conf.c ****   USBD_LL_DevDisconnected((USBD_HandleTypeDef*)hpcd->pData);
 377:USB_Device/Target/usbd_conf.c ****   /* USER CODE BEGIN HAL_PCD_DisconnectCallback_PostTreatment */
 378:USB_Device/Target/usbd_conf.c **** 
 379:USB_Device/Target/usbd_conf.c ****   /* USER CODE END HAL_PCD_DisconnectCallback_PostTreatment */
 380:USB_Device/Target/usbd_conf.c **** }
 381:USB_Device/Target/usbd_conf.c **** 
 382:USB_Device/Target/usbd_conf.c ****   /* USER CODE BEGIN LowLevelInterface */
 383:USB_Device/Target/usbd_conf.c **** 
 384:USB_Device/Target/usbd_conf.c ****   /* USER CODE END LowLevelInterface */
 385:USB_Device/Target/usbd_conf.c **** 
 386:USB_Device/Target/usbd_conf.c **** /*******************************************************************************
 387:USB_Device/Target/usbd_conf.c ****                        LL Driver Interface (USB Device Library --> PCD)
 388:USB_Device/Target/usbd_conf.c **** *******************************************************************************/
 389:USB_Device/Target/usbd_conf.c **** 
 390:USB_Device/Target/usbd_conf.c **** /**
 391:USB_Device/Target/usbd_conf.c ****   * @brief  Initializes the low level portion of the device driver.
 392:USB_Device/Target/usbd_conf.c ****   * @param  pdev: Device handle
 393:USB_Device/Target/usbd_conf.c ****   * @retval USBD status
 394:USB_Device/Target/usbd_conf.c ****   */
 395:USB_Device/Target/usbd_conf.c **** USBD_StatusTypeDef USBD_LL_Init(USBD_HandleTypeDef *pdev)
 396:USB_Device/Target/usbd_conf.c **** {
 397:USB_Device/Target/usbd_conf.c ****   /* Init USB Ip. */
 398:USB_Device/Target/usbd_conf.c ****   hpcd_USB_FS.pData = pdev;
 399:USB_Device/Target/usbd_conf.c ****   /* Link the driver to the stack. */
 400:USB_Device/Target/usbd_conf.c ****   pdev->pData = &hpcd_USB_FS;
 401:USB_Device/Target/usbd_conf.c **** 
 402:USB_Device/Target/usbd_conf.c ****   hpcd_USB_FS.Instance = USB;
 403:USB_Device/Target/usbd_conf.c ****   hpcd_USB_FS.Init.dev_endpoints = 8;
 404:USB_Device/Target/usbd_conf.c ****   hpcd_USB_FS.Init.speed = PCD_SPEED_FULL;
 405:USB_Device/Target/usbd_conf.c ****   hpcd_USB_FS.Init.phy_itface = PCD_PHY_EMBEDDED;
 406:USB_Device/Target/usbd_conf.c ****   hpcd_USB_FS.Init.Sof_enable = DISABLE;
 407:USB_Device/Target/usbd_conf.c ****   hpcd_USB_FS.Init.low_power_enable = DISABLE;
 408:USB_Device/Target/usbd_conf.c ****   hpcd_USB_FS.Init.lpm_enable = DISABLE;
 409:USB_Device/Target/usbd_conf.c ****   hpcd_USB_FS.Init.battery_charging_enable = DISABLE;
 410:USB_Device/Target/usbd_conf.c **** 
 411:USB_Device/Target/usbd_conf.c ****   #if (USE_HAL_PCD_REGISTER_CALLBACKS == 1U)
 412:USB_Device/Target/usbd_conf.c ****   /* register Msp Callbacks (before the Init) */
 413:USB_Device/Target/usbd_conf.c ****   HAL_PCD_RegisterCallback(&hpcd_USB_FS, HAL_PCD_MSPINIT_CB_ID, PCD_MspInit);
 414:USB_Device/Target/usbd_conf.c ****   HAL_PCD_RegisterCallback(&hpcd_USB_FS, HAL_PCD_MSPDEINIT_CB_ID, PCD_MspDeInit);
 415:USB_Device/Target/usbd_conf.c ****   #endif /* USE_HAL_PCD_REGISTER_CALLBACKS */
 416:USB_Device/Target/usbd_conf.c **** 
 417:USB_Device/Target/usbd_conf.c ****   if (HAL_PCD_Init(&hpcd_USB_FS) != HAL_OK)
 418:USB_Device/Target/usbd_conf.c ****   {
 419:USB_Device/Target/usbd_conf.c ****     Error_Handler( );
 420:USB_Device/Target/usbd_conf.c ****   }
 421:USB_Device/Target/usbd_conf.c **** 
 422:USB_Device/Target/usbd_conf.c **** #if (USE_HAL_PCD_REGISTER_CALLBACKS == 1U)
 423:USB_Device/Target/usbd_conf.c ****   /* Register USB PCD CallBacks */
 424:USB_Device/Target/usbd_conf.c ****   HAL_PCD_RegisterCallback(&hpcd_USB_FS, HAL_PCD_SOF_CB_ID, PCD_SOFCallback);
 425:USB_Device/Target/usbd_conf.c ****   HAL_PCD_RegisterCallback(&hpcd_USB_FS, HAL_PCD_SETUPSTAGE_CB_ID, PCD_SetupStageCallback);
 426:USB_Device/Target/usbd_conf.c ****   HAL_PCD_RegisterCallback(&hpcd_USB_FS, HAL_PCD_RESET_CB_ID, PCD_ResetCallback);
 427:USB_Device/Target/usbd_conf.c ****   HAL_PCD_RegisterCallback(&hpcd_USB_FS, HAL_PCD_SUSPEND_CB_ID, PCD_SuspendCallback);
 428:USB_Device/Target/usbd_conf.c ****   HAL_PCD_RegisterCallback(&hpcd_USB_FS, HAL_PCD_RESUME_CB_ID, PCD_ResumeCallback);
 429:USB_Device/Target/usbd_conf.c ****   HAL_PCD_RegisterCallback(&hpcd_USB_FS, HAL_PCD_CONNECT_CB_ID, PCD_ConnectCallback);
ARM GAS  /tmp/ccBduf5I.s 			page 9


 430:USB_Device/Target/usbd_conf.c ****   HAL_PCD_RegisterCallback(&hpcd_USB_FS, HAL_PCD_DISCONNECT_CB_ID, PCD_DisconnectCallback);
 431:USB_Device/Target/usbd_conf.c ****   /* USER CODE BEGIN RegisterCallBackFirstPart */
 432:USB_Device/Target/usbd_conf.c **** 
 433:USB_Device/Target/usbd_conf.c ****   /* USER CODE END RegisterCallBackFirstPart */
 434:USB_Device/Target/usbd_conf.c ****   HAL_PCD_RegisterLpmCallback(&hpcd_USB_FS, PCDEx_LPM_Callback);
 435:USB_Device/Target/usbd_conf.c ****   HAL_PCD_RegisterDataOutStageCallback(&hpcd_USB_FS, PCD_DataOutStageCallback);
 436:USB_Device/Target/usbd_conf.c ****   HAL_PCD_RegisterDataInStageCallback(&hpcd_USB_FS, PCD_DataInStageCallback);
 437:USB_Device/Target/usbd_conf.c ****   HAL_PCD_RegisterIsoOutIncpltCallback(&hpcd_USB_FS, PCD_ISOOUTIncompleteCallback);
 438:USB_Device/Target/usbd_conf.c ****   HAL_PCD_RegisterIsoInIncpltCallback(&hpcd_USB_FS, PCD_ISOINIncompleteCallback);
 439:USB_Device/Target/usbd_conf.c ****   /* USER CODE BEGIN RegisterCallBackSecondPart */
 440:USB_Device/Target/usbd_conf.c **** 
 441:USB_Device/Target/usbd_conf.c ****   /* USER CODE END RegisterCallBackSecondPart */
 442:USB_Device/Target/usbd_conf.c **** #endif /* USE_HAL_PCD_REGISTER_CALLBACKS */
 443:USB_Device/Target/usbd_conf.c ****   /* USER CODE BEGIN EndPoint_Configuration */
 444:USB_Device/Target/usbd_conf.c ****   HAL_PCDEx_PMAConfig((PCD_HandleTypeDef*)pdev->pData , 0x00 , PCD_SNG_BUF, 0x18);
 445:USB_Device/Target/usbd_conf.c ****   HAL_PCDEx_PMAConfig((PCD_HandleTypeDef*)pdev->pData , 0x80 , PCD_SNG_BUF, 0x58);
 446:USB_Device/Target/usbd_conf.c ****   /* USER CODE END EndPoint_Configuration */
 447:USB_Device/Target/usbd_conf.c ****   /* USER CODE BEGIN EndPoint_Configuration_CDC */
 448:USB_Device/Target/usbd_conf.c ****   HAL_PCDEx_PMAConfig((PCD_HandleTypeDef*)pdev->pData , 0x81 , PCD_SNG_BUF, 0xC0);
 449:USB_Device/Target/usbd_conf.c ****   HAL_PCDEx_PMAConfig((PCD_HandleTypeDef*)pdev->pData , 0x01 , PCD_SNG_BUF, 0x110);
 450:USB_Device/Target/usbd_conf.c ****   HAL_PCDEx_PMAConfig((PCD_HandleTypeDef*)pdev->pData , 0x82 , PCD_SNG_BUF, 0x100);
 451:USB_Device/Target/usbd_conf.c ****   /* USER CODE END EndPoint_Configuration_CDC */
 452:USB_Device/Target/usbd_conf.c ****   return USBD_OK;
 453:USB_Device/Target/usbd_conf.c **** }
 454:USB_Device/Target/usbd_conf.c **** 
 455:USB_Device/Target/usbd_conf.c **** /**
 456:USB_Device/Target/usbd_conf.c ****   * @brief  De-Initializes the low level portion of the device driver.
 457:USB_Device/Target/usbd_conf.c ****   * @param  pdev: Device handle
 458:USB_Device/Target/usbd_conf.c ****   * @retval USBD status
 459:USB_Device/Target/usbd_conf.c ****   */
 460:USB_Device/Target/usbd_conf.c **** USBD_StatusTypeDef USBD_LL_DeInit(USBD_HandleTypeDef *pdev)
 461:USB_Device/Target/usbd_conf.c **** {
 462:USB_Device/Target/usbd_conf.c ****   HAL_StatusTypeDef hal_status = HAL_OK;
 463:USB_Device/Target/usbd_conf.c ****   USBD_StatusTypeDef usb_status = USBD_OK;
 464:USB_Device/Target/usbd_conf.c **** 
 465:USB_Device/Target/usbd_conf.c ****   hal_status = HAL_PCD_DeInit(pdev->pData);
 466:USB_Device/Target/usbd_conf.c **** 
 467:USB_Device/Target/usbd_conf.c ****   usb_status =  USBD_Get_USB_Status(hal_status);
 468:USB_Device/Target/usbd_conf.c **** 
 469:USB_Device/Target/usbd_conf.c ****   return usb_status;
 470:USB_Device/Target/usbd_conf.c **** }
 471:USB_Device/Target/usbd_conf.c **** 
 472:USB_Device/Target/usbd_conf.c **** /**
 473:USB_Device/Target/usbd_conf.c ****   * @brief  Starts the low level portion of the device driver.
 474:USB_Device/Target/usbd_conf.c ****   * @param  pdev: Device handle
 475:USB_Device/Target/usbd_conf.c ****   * @retval USBD status
 476:USB_Device/Target/usbd_conf.c ****   */
 477:USB_Device/Target/usbd_conf.c **** USBD_StatusTypeDef USBD_LL_Start(USBD_HandleTypeDef *pdev)
 478:USB_Device/Target/usbd_conf.c **** {
 479:USB_Device/Target/usbd_conf.c ****   HAL_StatusTypeDef hal_status = HAL_OK;
 480:USB_Device/Target/usbd_conf.c ****   USBD_StatusTypeDef usb_status = USBD_OK;
 481:USB_Device/Target/usbd_conf.c **** 
 482:USB_Device/Target/usbd_conf.c ****   hal_status = HAL_PCD_Start(pdev->pData);
 483:USB_Device/Target/usbd_conf.c **** 
 484:USB_Device/Target/usbd_conf.c ****   usb_status =  USBD_Get_USB_Status(hal_status);
 485:USB_Device/Target/usbd_conf.c **** 
 486:USB_Device/Target/usbd_conf.c ****   return usb_status;
ARM GAS  /tmp/ccBduf5I.s 			page 10


 487:USB_Device/Target/usbd_conf.c **** }
 488:USB_Device/Target/usbd_conf.c **** 
 489:USB_Device/Target/usbd_conf.c **** /**
 490:USB_Device/Target/usbd_conf.c ****   * @brief  Stops the low level portion of the device driver.
 491:USB_Device/Target/usbd_conf.c ****   * @param  pdev: Device handle
 492:USB_Device/Target/usbd_conf.c ****   * @retval USBD status
 493:USB_Device/Target/usbd_conf.c ****   */
 494:USB_Device/Target/usbd_conf.c **** USBD_StatusTypeDef USBD_LL_Stop(USBD_HandleTypeDef *pdev)
 495:USB_Device/Target/usbd_conf.c **** {
 496:USB_Device/Target/usbd_conf.c ****   HAL_StatusTypeDef hal_status = HAL_OK;
 497:USB_Device/Target/usbd_conf.c ****   USBD_StatusTypeDef usb_status = USBD_OK;
 498:USB_Device/Target/usbd_conf.c **** 
 499:USB_Device/Target/usbd_conf.c ****   hal_status = HAL_PCD_Stop(pdev->pData);
 500:USB_Device/Target/usbd_conf.c **** 
 501:USB_Device/Target/usbd_conf.c ****   usb_status =  USBD_Get_USB_Status(hal_status);
 502:USB_Device/Target/usbd_conf.c **** 
 503:USB_Device/Target/usbd_conf.c ****   return usb_status;
 504:USB_Device/Target/usbd_conf.c **** }
 505:USB_Device/Target/usbd_conf.c **** 
 506:USB_Device/Target/usbd_conf.c **** /**
 507:USB_Device/Target/usbd_conf.c ****   * @brief  Opens an endpoint of the low level driver.
 508:USB_Device/Target/usbd_conf.c ****   * @param  pdev: Device handle
 509:USB_Device/Target/usbd_conf.c ****   * @param  ep_addr: Endpoint number
 510:USB_Device/Target/usbd_conf.c ****   * @param  ep_type: Endpoint type
 511:USB_Device/Target/usbd_conf.c ****   * @param  ep_mps: Endpoint max packet size
 512:USB_Device/Target/usbd_conf.c ****   * @retval USBD status
 513:USB_Device/Target/usbd_conf.c ****   */
 514:USB_Device/Target/usbd_conf.c **** USBD_StatusTypeDef USBD_LL_OpenEP(USBD_HandleTypeDef *pdev, uint8_t ep_addr, uint8_t ep_type, uint1
 515:USB_Device/Target/usbd_conf.c **** {
 516:USB_Device/Target/usbd_conf.c ****   HAL_StatusTypeDef hal_status = HAL_OK;
 517:USB_Device/Target/usbd_conf.c ****   USBD_StatusTypeDef usb_status = USBD_OK;
 518:USB_Device/Target/usbd_conf.c **** 
 519:USB_Device/Target/usbd_conf.c ****   hal_status = HAL_PCD_EP_Open(pdev->pData, ep_addr, ep_mps, ep_type);
 520:USB_Device/Target/usbd_conf.c **** 
 521:USB_Device/Target/usbd_conf.c ****   usb_status =  USBD_Get_USB_Status(hal_status);
 522:USB_Device/Target/usbd_conf.c **** 
 523:USB_Device/Target/usbd_conf.c ****   return usb_status;
 524:USB_Device/Target/usbd_conf.c **** }
 525:USB_Device/Target/usbd_conf.c **** 
 526:USB_Device/Target/usbd_conf.c **** /**
 527:USB_Device/Target/usbd_conf.c ****   * @brief  Closes an endpoint of the low level driver.
 528:USB_Device/Target/usbd_conf.c ****   * @param  pdev: Device handle
 529:USB_Device/Target/usbd_conf.c ****   * @param  ep_addr: Endpoint number
 530:USB_Device/Target/usbd_conf.c ****   * @retval USBD status
 531:USB_Device/Target/usbd_conf.c ****   */
 532:USB_Device/Target/usbd_conf.c **** USBD_StatusTypeDef USBD_LL_CloseEP(USBD_HandleTypeDef *pdev, uint8_t ep_addr)
 533:USB_Device/Target/usbd_conf.c **** {
 534:USB_Device/Target/usbd_conf.c ****   HAL_StatusTypeDef hal_status = HAL_OK;
 535:USB_Device/Target/usbd_conf.c ****   USBD_StatusTypeDef usb_status = USBD_OK;
 536:USB_Device/Target/usbd_conf.c **** 
 537:USB_Device/Target/usbd_conf.c ****   hal_status = HAL_PCD_EP_Close(pdev->pData, ep_addr);
 538:USB_Device/Target/usbd_conf.c **** 
 539:USB_Device/Target/usbd_conf.c ****   usb_status =  USBD_Get_USB_Status(hal_status);
 540:USB_Device/Target/usbd_conf.c **** 
 541:USB_Device/Target/usbd_conf.c ****   return usb_status;
 542:USB_Device/Target/usbd_conf.c **** }
 543:USB_Device/Target/usbd_conf.c **** 
ARM GAS  /tmp/ccBduf5I.s 			page 11


 544:USB_Device/Target/usbd_conf.c **** /**
 545:USB_Device/Target/usbd_conf.c ****   * @brief  Flushes an endpoint of the Low Level Driver.
 546:USB_Device/Target/usbd_conf.c ****   * @param  pdev: Device handle
 547:USB_Device/Target/usbd_conf.c ****   * @param  ep_addr: Endpoint number
 548:USB_Device/Target/usbd_conf.c ****   * @retval USBD status
 549:USB_Device/Target/usbd_conf.c ****   */
 550:USB_Device/Target/usbd_conf.c **** USBD_StatusTypeDef USBD_LL_FlushEP(USBD_HandleTypeDef *pdev, uint8_t ep_addr)
 551:USB_Device/Target/usbd_conf.c **** {
 552:USB_Device/Target/usbd_conf.c ****   HAL_StatusTypeDef hal_status = HAL_OK;
 553:USB_Device/Target/usbd_conf.c ****   USBD_StatusTypeDef usb_status = USBD_OK;
 554:USB_Device/Target/usbd_conf.c **** 
 555:USB_Device/Target/usbd_conf.c ****   hal_status = HAL_PCD_EP_Flush(pdev->pData, ep_addr);
 556:USB_Device/Target/usbd_conf.c **** 
 557:USB_Device/Target/usbd_conf.c ****   usb_status =  USBD_Get_USB_Status(hal_status);
 558:USB_Device/Target/usbd_conf.c **** 
 559:USB_Device/Target/usbd_conf.c ****   return usb_status;
 560:USB_Device/Target/usbd_conf.c **** }
 561:USB_Device/Target/usbd_conf.c **** 
 562:USB_Device/Target/usbd_conf.c **** /**
 563:USB_Device/Target/usbd_conf.c ****   * @brief  Sets a Stall condition on an endpoint of the Low Level Driver.
 564:USB_Device/Target/usbd_conf.c ****   * @param  pdev: Device handle
 565:USB_Device/Target/usbd_conf.c ****   * @param  ep_addr: Endpoint number
 566:USB_Device/Target/usbd_conf.c ****   * @retval USBD status
 567:USB_Device/Target/usbd_conf.c ****   */
 568:USB_Device/Target/usbd_conf.c **** USBD_StatusTypeDef USBD_LL_StallEP(USBD_HandleTypeDef *pdev, uint8_t ep_addr)
 569:USB_Device/Target/usbd_conf.c **** {
 570:USB_Device/Target/usbd_conf.c ****   HAL_StatusTypeDef hal_status = HAL_OK;
 571:USB_Device/Target/usbd_conf.c ****   USBD_StatusTypeDef usb_status = USBD_OK;
 572:USB_Device/Target/usbd_conf.c **** 
 573:USB_Device/Target/usbd_conf.c ****   hal_status = HAL_PCD_EP_SetStall(pdev->pData, ep_addr);
 574:USB_Device/Target/usbd_conf.c **** 
 575:USB_Device/Target/usbd_conf.c ****   usb_status =  USBD_Get_USB_Status(hal_status);
 576:USB_Device/Target/usbd_conf.c **** 
 577:USB_Device/Target/usbd_conf.c ****   return usb_status;
 578:USB_Device/Target/usbd_conf.c **** }
 579:USB_Device/Target/usbd_conf.c **** 
 580:USB_Device/Target/usbd_conf.c **** /**
 581:USB_Device/Target/usbd_conf.c ****   * @brief  Clears a Stall condition on an endpoint of the Low Level Driver.
 582:USB_Device/Target/usbd_conf.c ****   * @param  pdev: Device handle
 583:USB_Device/Target/usbd_conf.c ****   * @param  ep_addr: Endpoint number
 584:USB_Device/Target/usbd_conf.c ****   * @retval USBD status
 585:USB_Device/Target/usbd_conf.c ****   */
 586:USB_Device/Target/usbd_conf.c **** USBD_StatusTypeDef USBD_LL_ClearStallEP(USBD_HandleTypeDef *pdev, uint8_t ep_addr)
 587:USB_Device/Target/usbd_conf.c **** {
 588:USB_Device/Target/usbd_conf.c ****   HAL_StatusTypeDef hal_status = HAL_OK;
 589:USB_Device/Target/usbd_conf.c ****   USBD_StatusTypeDef usb_status = USBD_OK;
 590:USB_Device/Target/usbd_conf.c **** 
 591:USB_Device/Target/usbd_conf.c ****   hal_status = HAL_PCD_EP_ClrStall(pdev->pData, ep_addr);
 592:USB_Device/Target/usbd_conf.c **** 
 593:USB_Device/Target/usbd_conf.c ****   usb_status =  USBD_Get_USB_Status(hal_status);
 594:USB_Device/Target/usbd_conf.c **** 
 595:USB_Device/Target/usbd_conf.c ****   return usb_status;
 596:USB_Device/Target/usbd_conf.c **** }
 597:USB_Device/Target/usbd_conf.c **** 
 598:USB_Device/Target/usbd_conf.c **** /**
 599:USB_Device/Target/usbd_conf.c ****   * @brief  Returns Stall condition.
 600:USB_Device/Target/usbd_conf.c ****   * @param  pdev: Device handle
ARM GAS  /tmp/ccBduf5I.s 			page 12


 601:USB_Device/Target/usbd_conf.c ****   * @param  ep_addr: Endpoint number
 602:USB_Device/Target/usbd_conf.c ****   * @retval Stall (1: Yes, 0: No)
 603:USB_Device/Target/usbd_conf.c ****   */
 604:USB_Device/Target/usbd_conf.c **** uint8_t USBD_LL_IsStallEP(USBD_HandleTypeDef *pdev, uint8_t ep_addr)
 605:USB_Device/Target/usbd_conf.c **** {
 606:USB_Device/Target/usbd_conf.c ****   PCD_HandleTypeDef *hpcd = (PCD_HandleTypeDef*) pdev->pData;
 607:USB_Device/Target/usbd_conf.c **** 
 608:USB_Device/Target/usbd_conf.c ****   if((ep_addr & 0x80) == 0x80)
 609:USB_Device/Target/usbd_conf.c ****   {
 610:USB_Device/Target/usbd_conf.c ****     return hpcd->IN_ep[ep_addr & 0x7F].is_stall;
 611:USB_Device/Target/usbd_conf.c ****   }
 612:USB_Device/Target/usbd_conf.c ****   else
 613:USB_Device/Target/usbd_conf.c ****   {
 614:USB_Device/Target/usbd_conf.c ****     return hpcd->OUT_ep[ep_addr & 0x7F].is_stall;
 615:USB_Device/Target/usbd_conf.c ****   }
 616:USB_Device/Target/usbd_conf.c **** }
 617:USB_Device/Target/usbd_conf.c **** 
 618:USB_Device/Target/usbd_conf.c **** /**
 619:USB_Device/Target/usbd_conf.c ****   * @brief  Assigns a USB address to the device.
 620:USB_Device/Target/usbd_conf.c ****   * @param  pdev: Device handle
 621:USB_Device/Target/usbd_conf.c ****   * @param  dev_addr: Device address
 622:USB_Device/Target/usbd_conf.c ****   * @retval USBD status
 623:USB_Device/Target/usbd_conf.c ****   */
 624:USB_Device/Target/usbd_conf.c **** USBD_StatusTypeDef USBD_LL_SetUSBAddress(USBD_HandleTypeDef *pdev, uint8_t dev_addr)
 625:USB_Device/Target/usbd_conf.c **** {
 626:USB_Device/Target/usbd_conf.c ****   HAL_StatusTypeDef hal_status = HAL_OK;
 627:USB_Device/Target/usbd_conf.c ****   USBD_StatusTypeDef usb_status = USBD_OK;
 628:USB_Device/Target/usbd_conf.c **** 
 629:USB_Device/Target/usbd_conf.c ****   hal_status = HAL_PCD_SetAddress(pdev->pData, dev_addr);
 630:USB_Device/Target/usbd_conf.c **** 
 631:USB_Device/Target/usbd_conf.c ****   usb_status =  USBD_Get_USB_Status(hal_status);
 632:USB_Device/Target/usbd_conf.c **** 
 633:USB_Device/Target/usbd_conf.c ****   return usb_status;
 634:USB_Device/Target/usbd_conf.c **** }
 635:USB_Device/Target/usbd_conf.c **** 
 636:USB_Device/Target/usbd_conf.c **** /**
 637:USB_Device/Target/usbd_conf.c ****   * @brief  Transmits data over an endpoint.
 638:USB_Device/Target/usbd_conf.c ****   * @param  pdev: Device handle
 639:USB_Device/Target/usbd_conf.c ****   * @param  ep_addr: Endpoint number
 640:USB_Device/Target/usbd_conf.c ****   * @param  pbuf: Pointer to data to be sent
 641:USB_Device/Target/usbd_conf.c ****   * @param  size: Data size
 642:USB_Device/Target/usbd_conf.c ****   * @retval USBD status
 643:USB_Device/Target/usbd_conf.c ****   */
 644:USB_Device/Target/usbd_conf.c **** USBD_StatusTypeDef USBD_LL_Transmit(USBD_HandleTypeDef *pdev, uint8_t ep_addr, uint8_t *pbuf, uint3
 645:USB_Device/Target/usbd_conf.c **** {
 646:USB_Device/Target/usbd_conf.c ****   HAL_StatusTypeDef hal_status = HAL_OK;
 647:USB_Device/Target/usbd_conf.c ****   USBD_StatusTypeDef usb_status = USBD_OK;
 648:USB_Device/Target/usbd_conf.c **** 
 649:USB_Device/Target/usbd_conf.c ****   hal_status = HAL_PCD_EP_Transmit(pdev->pData, ep_addr, pbuf, size);
 650:USB_Device/Target/usbd_conf.c **** 
 651:USB_Device/Target/usbd_conf.c ****   usb_status =  USBD_Get_USB_Status(hal_status);
 652:USB_Device/Target/usbd_conf.c **** 
 653:USB_Device/Target/usbd_conf.c ****   return usb_status;
 654:USB_Device/Target/usbd_conf.c **** }
 655:USB_Device/Target/usbd_conf.c **** 
 656:USB_Device/Target/usbd_conf.c **** /**
 657:USB_Device/Target/usbd_conf.c ****   * @brief  Prepares an endpoint for reception.
ARM GAS  /tmp/ccBduf5I.s 			page 13


 658:USB_Device/Target/usbd_conf.c ****   * @param  pdev: Device handle
 659:USB_Device/Target/usbd_conf.c ****   * @param  ep_addr: Endpoint number
 660:USB_Device/Target/usbd_conf.c ****   * @param  pbuf: Pointer to data to be received
 661:USB_Device/Target/usbd_conf.c ****   * @param  size: Data size
 662:USB_Device/Target/usbd_conf.c ****   * @retval USBD status
 663:USB_Device/Target/usbd_conf.c ****   */
 664:USB_Device/Target/usbd_conf.c **** USBD_StatusTypeDef USBD_LL_PrepareReceive(USBD_HandleTypeDef *pdev, uint8_t ep_addr, uint8_t *pbuf,
 665:USB_Device/Target/usbd_conf.c **** {
 666:USB_Device/Target/usbd_conf.c ****   HAL_StatusTypeDef hal_status = HAL_OK;
 667:USB_Device/Target/usbd_conf.c ****   USBD_StatusTypeDef usb_status = USBD_OK;
 668:USB_Device/Target/usbd_conf.c **** 
 669:USB_Device/Target/usbd_conf.c ****   hal_status = HAL_PCD_EP_Receive(pdev->pData, ep_addr, pbuf, size);
 670:USB_Device/Target/usbd_conf.c **** 
 671:USB_Device/Target/usbd_conf.c ****   usb_status =  USBD_Get_USB_Status(hal_status);
 672:USB_Device/Target/usbd_conf.c **** 
 673:USB_Device/Target/usbd_conf.c ****   return usb_status;
 674:USB_Device/Target/usbd_conf.c **** }
 675:USB_Device/Target/usbd_conf.c **** 
 676:USB_Device/Target/usbd_conf.c **** /**
 677:USB_Device/Target/usbd_conf.c ****   * @brief  Returns the last transferred packet size.
 678:USB_Device/Target/usbd_conf.c ****   * @param  pdev: Device handle
 679:USB_Device/Target/usbd_conf.c ****   * @param  ep_addr: Endpoint number
 680:USB_Device/Target/usbd_conf.c ****   * @retval Received Data Size
 681:USB_Device/Target/usbd_conf.c ****   */
 682:USB_Device/Target/usbd_conf.c **** uint32_t USBD_LL_GetRxDataSize(USBD_HandleTypeDef *pdev, uint8_t ep_addr)
 683:USB_Device/Target/usbd_conf.c **** {
 684:USB_Device/Target/usbd_conf.c ****   return HAL_PCD_EP_GetRxCount((PCD_HandleTypeDef*) pdev->pData, ep_addr);
 685:USB_Device/Target/usbd_conf.c **** }
 686:USB_Device/Target/usbd_conf.c **** 
 687:USB_Device/Target/usbd_conf.c **** /**
 688:USB_Device/Target/usbd_conf.c ****   * @brief  Send LPM message to user layer
 689:USB_Device/Target/usbd_conf.c ****   * @param  hpcd: PCD handle
 690:USB_Device/Target/usbd_conf.c ****   * @param  msg: LPM message
 691:USB_Device/Target/usbd_conf.c ****   * @retval None
 692:USB_Device/Target/usbd_conf.c ****   */
 693:USB_Device/Target/usbd_conf.c **** #if (USE_HAL_PCD_REGISTER_CALLBACKS == 1U)
 694:USB_Device/Target/usbd_conf.c **** static void PCDEx_LPM_Callback(PCD_HandleTypeDef *hpcd, PCD_LPM_MsgTypeDef msg)
 695:USB_Device/Target/usbd_conf.c **** #else
 696:USB_Device/Target/usbd_conf.c **** void HAL_PCDEx_LPM_Callback(PCD_HandleTypeDef *hpcd, PCD_LPM_MsgTypeDef msg)
 697:USB_Device/Target/usbd_conf.c **** #endif /* USE_HAL_PCD_REGISTER_CALLBACKS */
 698:USB_Device/Target/usbd_conf.c **** {
 699:USB_Device/Target/usbd_conf.c ****   /* USER CODE BEGIN LPM_Callback */
 700:USB_Device/Target/usbd_conf.c ****   switch (msg)
 701:USB_Device/Target/usbd_conf.c ****   {
 702:USB_Device/Target/usbd_conf.c ****   case PCD_LPM_L0_ACTIVE:
 703:USB_Device/Target/usbd_conf.c ****     if (hpcd->Init.low_power_enable)
 704:USB_Device/Target/usbd_conf.c ****     {
 705:USB_Device/Target/usbd_conf.c ****       SystemClockConfig_Resume();
 706:USB_Device/Target/usbd_conf.c **** 
 707:USB_Device/Target/usbd_conf.c ****       /* Reset SLEEPDEEP bit of Cortex System Control Register. */
 708:USB_Device/Target/usbd_conf.c ****       SCB->SCR &= (uint32_t)~((uint32_t)(SCB_SCR_SLEEPDEEP_Msk | SCB_SCR_SLEEPONEXIT_Msk));
 709:USB_Device/Target/usbd_conf.c ****     }
 710:USB_Device/Target/usbd_conf.c ****     USBD_LL_Resume(hpcd->pData);
 711:USB_Device/Target/usbd_conf.c ****     break;
 712:USB_Device/Target/usbd_conf.c **** 
 713:USB_Device/Target/usbd_conf.c ****   case PCD_LPM_L1_ACTIVE:
 714:USB_Device/Target/usbd_conf.c ****     USBD_LL_Suspend(hpcd->pData);
ARM GAS  /tmp/ccBduf5I.s 			page 14


 715:USB_Device/Target/usbd_conf.c **** 
 716:USB_Device/Target/usbd_conf.c ****     /* Enter in STOP mode. */
 717:USB_Device/Target/usbd_conf.c ****     if (hpcd->Init.low_power_enable)
 718:USB_Device/Target/usbd_conf.c ****     {
 719:USB_Device/Target/usbd_conf.c ****       /* Set SLEEPDEEP bit and SleepOnExit of Cortex System Control Register. */
 720:USB_Device/Target/usbd_conf.c ****       SCB->SCR |= (uint32_t)((uint32_t)(SCB_SCR_SLEEPDEEP_Msk | SCB_SCR_SLEEPONEXIT_Msk));
 721:USB_Device/Target/usbd_conf.c ****     }
 722:USB_Device/Target/usbd_conf.c ****     break;
 723:USB_Device/Target/usbd_conf.c ****   }
 724:USB_Device/Target/usbd_conf.c ****   /* USER CODE END LPM_Callback */
 725:USB_Device/Target/usbd_conf.c **** }
 726:USB_Device/Target/usbd_conf.c **** 
 727:USB_Device/Target/usbd_conf.c **** /**
 728:USB_Device/Target/usbd_conf.c ****   * @brief  Delays routine for the USB Device Library.
 729:USB_Device/Target/usbd_conf.c ****   * @param  Delay: Delay in ms
 730:USB_Device/Target/usbd_conf.c ****   * @retval None
 731:USB_Device/Target/usbd_conf.c ****   */
 732:USB_Device/Target/usbd_conf.c **** void USBD_LL_Delay(uint32_t Delay)
 733:USB_Device/Target/usbd_conf.c **** {
 734:USB_Device/Target/usbd_conf.c ****   HAL_Delay(Delay);
 735:USB_Device/Target/usbd_conf.c **** }
 736:USB_Device/Target/usbd_conf.c **** 
 737:USB_Device/Target/usbd_conf.c **** /**
 738:USB_Device/Target/usbd_conf.c ****   * @brief  Static single allocation.
 739:USB_Device/Target/usbd_conf.c ****   * @param  size: Size of allocated memory
 740:USB_Device/Target/usbd_conf.c ****   * @retval None
 741:USB_Device/Target/usbd_conf.c ****   */
 742:USB_Device/Target/usbd_conf.c **** void *USBD_static_malloc(uint32_t size)
 743:USB_Device/Target/usbd_conf.c **** {
 744:USB_Device/Target/usbd_conf.c ****   static uint32_t mem[(sizeof(USBD_CDC_HandleTypeDef)/4)+1];/* On 32-bit boundary */
 745:USB_Device/Target/usbd_conf.c ****   return mem;
 746:USB_Device/Target/usbd_conf.c **** }
 747:USB_Device/Target/usbd_conf.c **** 
 748:USB_Device/Target/usbd_conf.c **** /**
 749:USB_Device/Target/usbd_conf.c ****   * @brief  Dummy memory free
 750:USB_Device/Target/usbd_conf.c ****   * @param  p: Pointer to allocated  memory address
 751:USB_Device/Target/usbd_conf.c ****   * @retval None
 752:USB_Device/Target/usbd_conf.c ****   */
 753:USB_Device/Target/usbd_conf.c **** void USBD_static_free(void *p)
 754:USB_Device/Target/usbd_conf.c **** {
 755:USB_Device/Target/usbd_conf.c **** 
 756:USB_Device/Target/usbd_conf.c **** }
 757:USB_Device/Target/usbd_conf.c **** 
 758:USB_Device/Target/usbd_conf.c **** /* USER CODE BEGIN 5 */
 759:USB_Device/Target/usbd_conf.c **** /**
 760:USB_Device/Target/usbd_conf.c ****   * @brief  Configures system clock after wake-up from USB resume callBack:
 761:USB_Device/Target/usbd_conf.c ****   *         enable HSI, PLL and select PLL as system clock source.
 762:USB_Device/Target/usbd_conf.c ****   * @retval None
 763:USB_Device/Target/usbd_conf.c ****   */
 764:USB_Device/Target/usbd_conf.c **** static void SystemClockConfig_Resume(void)
 765:USB_Device/Target/usbd_conf.c **** {
 766:USB_Device/Target/usbd_conf.c ****   SystemClock_Config();
 767:USB_Device/Target/usbd_conf.c **** }
 768:USB_Device/Target/usbd_conf.c **** /* USER CODE END 5 */
 769:USB_Device/Target/usbd_conf.c **** 
 770:USB_Device/Target/usbd_conf.c **** /**
 771:USB_Device/Target/usbd_conf.c ****   * @brief  Returns the USB status depending on the HAL status:
ARM GAS  /tmp/ccBduf5I.s 			page 15


 772:USB_Device/Target/usbd_conf.c ****   * @param  hal_status: HAL status
 773:USB_Device/Target/usbd_conf.c ****   * @retval USB status
 774:USB_Device/Target/usbd_conf.c ****   */
 775:USB_Device/Target/usbd_conf.c **** USBD_StatusTypeDef USBD_Get_USB_Status(HAL_StatusTypeDef hal_status)
 776:USB_Device/Target/usbd_conf.c **** {
  29              		.loc 1 776 1 view -0
  30              		.cfi_startproc
  31              		@ args = 0, pretend = 0, frame = 0
  32              		@ frame_needed = 0, uses_anonymous_args = 0
  33              		@ link register save eliminated.
 777:USB_Device/Target/usbd_conf.c ****   USBD_StatusTypeDef usb_status = USBD_OK;
  34              		.loc 1 777 3 view .LVU1
 778:USB_Device/Target/usbd_conf.c **** 
 779:USB_Device/Target/usbd_conf.c ****   switch (hal_status)
  35              		.loc 1 779 3 view .LVU2
  36 0000 0328     		cmp	r0, #3
  37 0002 05D8     		bhi	.L7
  38 0004 DFE800F0 		tbb	[pc, r0]
  39              	.L4:
  40 0008 05       		.byte	(.L2-.L4)/2
  41 0009 04       		.byte	(.L7-.L4)/2
  42 000a 02       		.byte	(.L5-.L4)/2
  43 000b 05       		.byte	(.L2-.L4)/2
  44              		.p2align 1
  45              	.L5:
 780:USB_Device/Target/usbd_conf.c ****   {
 781:USB_Device/Target/usbd_conf.c ****     case HAL_OK :
 782:USB_Device/Target/usbd_conf.c ****       usb_status = USBD_OK;
 783:USB_Device/Target/usbd_conf.c ****     break;
 784:USB_Device/Target/usbd_conf.c ****     case HAL_ERROR :
 785:USB_Device/Target/usbd_conf.c ****       usb_status = USBD_FAIL;
 786:USB_Device/Target/usbd_conf.c ****     break;
 787:USB_Device/Target/usbd_conf.c ****     case HAL_BUSY :
 788:USB_Device/Target/usbd_conf.c ****       usb_status = USBD_BUSY;
  46              		.loc 1 788 7 view .LVU3
  47              	.LVL1:
 789:USB_Device/Target/usbd_conf.c ****     break;
  48              		.loc 1 789 5 view .LVU4
 788:USB_Device/Target/usbd_conf.c ****     break;
  49              		.loc 1 788 18 is_stmt 0 view .LVU5
  50 000c 0120     		movs	r0, #1
  51              	.LVL2:
  52              		.loc 1 789 5 view .LVU6
  53 000e 7047     		bx	lr
  54              	.LVL3:
  55              	.L7:
 785:USB_Device/Target/usbd_conf.c ****     break;
  56              		.loc 1 785 18 view .LVU7
  57 0010 0320     		movs	r0, #3
  58              	.LVL4:
  59              	.L2:
 790:USB_Device/Target/usbd_conf.c ****     case HAL_TIMEOUT :
 791:USB_Device/Target/usbd_conf.c ****       usb_status = USBD_FAIL;
 792:USB_Device/Target/usbd_conf.c ****     break;
 793:USB_Device/Target/usbd_conf.c ****     default :
 794:USB_Device/Target/usbd_conf.c ****       usb_status = USBD_FAIL;
 795:USB_Device/Target/usbd_conf.c ****     break;
ARM GAS  /tmp/ccBduf5I.s 			page 16


 796:USB_Device/Target/usbd_conf.c ****   }
 797:USB_Device/Target/usbd_conf.c ****   return usb_status;
  60              		.loc 1 797 3 is_stmt 1 view .LVU8
 798:USB_Device/Target/usbd_conf.c **** }
  61              		.loc 1 798 1 is_stmt 0 view .LVU9
  62 0012 7047     		bx	lr
  63              		.cfi_endproc
  64              	.LFE365:
  66              		.section	.text.SystemClockConfig_Resume,"ax",%progbits
  67              		.align	1
  68              		.syntax unified
  69              		.thumb
  70              		.thumb_func
  72              	SystemClockConfig_Resume:
  73              	.LFB364:
 765:USB_Device/Target/usbd_conf.c ****   SystemClock_Config();
  74              		.loc 1 765 1 is_stmt 1 view -0
  75              		.cfi_startproc
  76              		@ args = 0, pretend = 0, frame = 0
  77              		@ frame_needed = 0, uses_anonymous_args = 0
  78 0000 08B5     		push	{r3, lr}
  79              	.LCFI0:
  80              		.cfi_def_cfa_offset 8
  81              		.cfi_offset 3, -8
  82              		.cfi_offset 14, -4
 766:USB_Device/Target/usbd_conf.c **** }
  83              		.loc 1 766 3 view .LVU11
  84 0002 FFF7FEFF 		bl	SystemClock_Config
  85              	.LVL5:
 767:USB_Device/Target/usbd_conf.c **** /* USER CODE END 5 */
  86              		.loc 1 767 1 is_stmt 0 view .LVU12
  87 0006 08BD     		pop	{r3, pc}
  88              		.cfi_endproc
  89              	.LFE364:
  91              		.section	.text.HAL_PCD_MspInit,"ax",%progbits
  92              		.align	1
  93              		.global	HAL_PCD_MspInit
  94              		.syntax unified
  95              		.thumb
  96              		.thumb_func
  98              	HAL_PCD_MspInit:
  99              	.LVL6:
 100              	.LFB333:
  75:USB_Device/Target/usbd_conf.c ****   RCC_PeriphCLKInitTypeDef PeriphClkInit = {0};
 101              		.loc 1 75 1 is_stmt 1 view -0
 102              		.cfi_startproc
 103              		@ args = 0, pretend = 0, frame = 88
 104              		@ frame_needed = 0, uses_anonymous_args = 0
  75:USB_Device/Target/usbd_conf.c ****   RCC_PeriphCLKInitTypeDef PeriphClkInit = {0};
 105              		.loc 1 75 1 is_stmt 0 view .LVU14
 106 0000 10B5     		push	{r4, lr}
 107              	.LCFI1:
 108              		.cfi_def_cfa_offset 8
 109              		.cfi_offset 4, -8
 110              		.cfi_offset 14, -4
 111 0002 96B0     		sub	sp, sp, #88
 112              	.LCFI2:
ARM GAS  /tmp/ccBduf5I.s 			page 17


 113              		.cfi_def_cfa_offset 96
 114 0004 0446     		mov	r4, r0
  76:USB_Device/Target/usbd_conf.c ****   if(pcdHandle->Instance==USB)
 115              		.loc 1 76 3 is_stmt 1 view .LVU15
  76:USB_Device/Target/usbd_conf.c ****   if(pcdHandle->Instance==USB)
 116              		.loc 1 76 28 is_stmt 0 view .LVU16
 117 0006 5422     		movs	r2, #84
 118 0008 0021     		movs	r1, #0
 119 000a 01A8     		add	r0, sp, #4
 120              	.LVL7:
  76:USB_Device/Target/usbd_conf.c ****   if(pcdHandle->Instance==USB)
 121              		.loc 1 76 28 view .LVU17
 122 000c FFF7FEFF 		bl	memset
 123              	.LVL8:
  77:USB_Device/Target/usbd_conf.c ****   {
 124              		.loc 1 77 3 is_stmt 1 view .LVU18
  77:USB_Device/Target/usbd_conf.c ****   {
 125              		.loc 1 77 15 is_stmt 0 view .LVU19
 126 0010 2268     		ldr	r2, [r4]
  77:USB_Device/Target/usbd_conf.c ****   {
 127              		.loc 1 77 5 view .LVU20
 128 0012 114B     		ldr	r3, .L16
 129 0014 9A42     		cmp	r2, r3
 130 0016 01D0     		beq	.L14
 131              	.L10:
 102:USB_Device/Target/usbd_conf.c **** 
 132              		.loc 1 102 1 view .LVU21
 133 0018 16B0     		add	sp, sp, #88
 134              	.LCFI3:
 135              		.cfi_remember_state
 136              		.cfi_def_cfa_offset 8
 137              		@ sp needed
 138 001a 10BD     		pop	{r4, pc}
 139              	.LVL9:
 140              	.L14:
 141              	.LCFI4:
 142              		.cfi_restore_state
  85:USB_Device/Target/usbd_conf.c ****     PeriphClkInit.UsbClockSelection = RCC_USBCLKSOURCE_HSI48;
 143              		.loc 1 85 5 is_stmt 1 view .LVU22
  85:USB_Device/Target/usbd_conf.c ****     PeriphClkInit.UsbClockSelection = RCC_USBCLKSOURCE_HSI48;
 144              		.loc 1 85 40 is_stmt 0 view .LVU23
 145 001c 4FF40053 		mov	r3, #8192
 146 0020 0193     		str	r3, [sp, #4]
  86:USB_Device/Target/usbd_conf.c ****     if (HAL_RCCEx_PeriphCLKConfig(&PeriphClkInit) != HAL_OK)
 147              		.loc 1 86 5 is_stmt 1 view .LVU24
  87:USB_Device/Target/usbd_conf.c ****     {
 148              		.loc 1 87 5 view .LVU25
  87:USB_Device/Target/usbd_conf.c ****     {
 149              		.loc 1 87 9 is_stmt 0 view .LVU26
 150 0022 01A8     		add	r0, sp, #4
 151 0024 FFF7FEFF 		bl	HAL_RCCEx_PeriphCLKConfig
 152              	.LVL10:
  87:USB_Device/Target/usbd_conf.c ****     {
 153              		.loc 1 87 8 view .LVU27
 154 0028 90B9     		cbnz	r0, .L15
 155              	.L12:
  93:USB_Device/Target/usbd_conf.c **** 
ARM GAS  /tmp/ccBduf5I.s 			page 18


 156              		.loc 1 93 5 is_stmt 1 view .LVU28
 157              	.LBB2:
  93:USB_Device/Target/usbd_conf.c **** 
 158              		.loc 1 93 5 view .LVU29
  93:USB_Device/Target/usbd_conf.c **** 
 159              		.loc 1 93 5 view .LVU30
 160 002a 0C4B     		ldr	r3, .L16+4
 161 002c 9A6D     		ldr	r2, [r3, #88]
 162 002e 42F40002 		orr	r2, r2, #8388608
 163 0032 9A65     		str	r2, [r3, #88]
  93:USB_Device/Target/usbd_conf.c **** 
 164              		.loc 1 93 5 view .LVU31
 165 0034 9B6D     		ldr	r3, [r3, #88]
 166 0036 03F40003 		and	r3, r3, #8388608
 167 003a 0093     		str	r3, [sp]
  93:USB_Device/Target/usbd_conf.c **** 
 168              		.loc 1 93 5 view .LVU32
 169 003c 009B     		ldr	r3, [sp]
 170              	.LBE2:
  93:USB_Device/Target/usbd_conf.c **** 
 171              		.loc 1 93 5 view .LVU33
  96:USB_Device/Target/usbd_conf.c ****     HAL_NVIC_EnableIRQ(USB_LP_IRQn);
 172              		.loc 1 96 5 view .LVU34
 173 003e 0022     		movs	r2, #0
 174 0040 1146     		mov	r1, r2
 175 0042 1420     		movs	r0, #20
 176 0044 FFF7FEFF 		bl	HAL_NVIC_SetPriority
 177              	.LVL11:
  97:USB_Device/Target/usbd_conf.c ****   /* USER CODE BEGIN USB_MspInit 1 */
 178              		.loc 1 97 5 view .LVU35
 179 0048 1420     		movs	r0, #20
 180 004a FFF7FEFF 		bl	HAL_NVIC_EnableIRQ
 181              	.LVL12:
 102:USB_Device/Target/usbd_conf.c **** 
 182              		.loc 1 102 1 is_stmt 0 view .LVU36
 183 004e E3E7     		b	.L10
 184              	.L15:
  89:USB_Device/Target/usbd_conf.c ****     }
 185              		.loc 1 89 7 is_stmt 1 view .LVU37
 186 0050 FFF7FEFF 		bl	Error_Handler
 187              	.LVL13:
 188 0054 E9E7     		b	.L12
 189              	.L17:
 190 0056 00BF     		.align	2
 191              	.L16:
 192 0058 005C0040 		.word	1073765376
 193 005c 00100240 		.word	1073876992
 194              		.cfi_endproc
 195              	.LFE333:
 197              		.section	.text.HAL_PCD_MspDeInit,"ax",%progbits
 198              		.align	1
 199              		.global	HAL_PCD_MspDeInit
 200              		.syntax unified
 201              		.thumb
 202              		.thumb_func
 204              	HAL_PCD_MspDeInit:
 205              	.LVL14:
ARM GAS  /tmp/ccBduf5I.s 			page 19


 206              	.LFB334:
 109:USB_Device/Target/usbd_conf.c ****   if(pcdHandle->Instance==USB)
 207              		.loc 1 109 1 view -0
 208              		.cfi_startproc
 209              		@ args = 0, pretend = 0, frame = 0
 210              		@ frame_needed = 0, uses_anonymous_args = 0
 109:USB_Device/Target/usbd_conf.c ****   if(pcdHandle->Instance==USB)
 211              		.loc 1 109 1 is_stmt 0 view .LVU39
 212 0000 08B5     		push	{r3, lr}
 213              	.LCFI5:
 214              		.cfi_def_cfa_offset 8
 215              		.cfi_offset 3, -8
 216              		.cfi_offset 14, -4
 110:USB_Device/Target/usbd_conf.c ****   {
 217              		.loc 1 110 3 is_stmt 1 view .LVU40
 110:USB_Device/Target/usbd_conf.c ****   {
 218              		.loc 1 110 15 is_stmt 0 view .LVU41
 219 0002 0268     		ldr	r2, [r0]
 110:USB_Device/Target/usbd_conf.c ****   {
 220              		.loc 1 110 5 view .LVU42
 221 0004 064B     		ldr	r3, .L22
 222 0006 9A42     		cmp	r2, r3
 223 0008 00D0     		beq	.L21
 224              	.LVL15:
 225              	.L18:
 125:USB_Device/Target/usbd_conf.c **** 
 226              		.loc 1 125 1 view .LVU43
 227 000a 08BD     		pop	{r3, pc}
 228              	.LVL16:
 229              	.L21:
 116:USB_Device/Target/usbd_conf.c **** 
 230              		.loc 1 116 5 is_stmt 1 view .LVU44
 231 000c 054A     		ldr	r2, .L22+4
 232 000e 936D     		ldr	r3, [r2, #88]
 233 0010 23F40003 		bic	r3, r3, #8388608
 234 0014 9365     		str	r3, [r2, #88]
 119:USB_Device/Target/usbd_conf.c **** 
 235              		.loc 1 119 5 view .LVU45
 236 0016 1420     		movs	r0, #20
 237              	.LVL17:
 119:USB_Device/Target/usbd_conf.c **** 
 238              		.loc 1 119 5 is_stmt 0 view .LVU46
 239 0018 FFF7FEFF 		bl	HAL_NVIC_DisableIRQ
 240              	.LVL18:
 125:USB_Device/Target/usbd_conf.c **** 
 241              		.loc 1 125 1 view .LVU47
 242 001c F5E7     		b	.L18
 243              	.L23:
 244 001e 00BF     		.align	2
 245              	.L22:
 246 0020 005C0040 		.word	1073765376
 247 0024 00100240 		.word	1073876992
 248              		.cfi_endproc
 249              	.LFE334:
 251              		.section	.text.HAL_PCD_SetupStageCallback,"ax",%progbits
 252              		.align	1
 253              		.global	HAL_PCD_SetupStageCallback
ARM GAS  /tmp/ccBduf5I.s 			page 20


 254              		.syntax unified
 255              		.thumb
 256              		.thumb_func
 258              	HAL_PCD_SetupStageCallback:
 259              	.LVL19:
 260              	.LFB335:
 137:USB_Device/Target/usbd_conf.c ****   /* USER CODE BEGIN HAL_PCD_SetupStageCallback_PreTreatment */
 261              		.loc 1 137 1 is_stmt 1 view -0
 262              		.cfi_startproc
 263              		@ args = 0, pretend = 0, frame = 0
 264              		@ frame_needed = 0, uses_anonymous_args = 0
 137:USB_Device/Target/usbd_conf.c ****   /* USER CODE BEGIN HAL_PCD_SetupStageCallback_PreTreatment */
 265              		.loc 1 137 1 is_stmt 0 view .LVU49
 266 0000 08B5     		push	{r3, lr}
 267              	.LCFI6:
 268              		.cfi_def_cfa_offset 8
 269              		.cfi_offset 3, -8
 270              		.cfi_offset 14, -4
 141:USB_Device/Target/usbd_conf.c ****   /* USER CODE BEGIN HAL_PCD_SetupStageCallback_PostTreatment */
 271              		.loc 1 141 3 is_stmt 1 view .LVU50
 272 0002 00F52C71 		add	r1, r0, #688
 273 0006 D0F8F002 		ldr	r0, [r0, #752]
 274              	.LVL20:
 141:USB_Device/Target/usbd_conf.c ****   /* USER CODE BEGIN HAL_PCD_SetupStageCallback_PostTreatment */
 275              		.loc 1 141 3 is_stmt 0 view .LVU51
 276 000a FFF7FEFF 		bl	USBD_LL_SetupStage
 277              	.LVL21:
 145:USB_Device/Target/usbd_conf.c **** 
 278              		.loc 1 145 1 view .LVU52
 279 000e 08BD     		pop	{r3, pc}
 280              		.cfi_endproc
 281              	.LFE335:
 283              		.section	.text.HAL_PCD_DataOutStageCallback,"ax",%progbits
 284              		.align	1
 285              		.global	HAL_PCD_DataOutStageCallback
 286              		.syntax unified
 287              		.thumb
 288              		.thumb_func
 290              	HAL_PCD_DataOutStageCallback:
 291              	.LVL22:
 292              	.LFB336:
 158:USB_Device/Target/usbd_conf.c ****   /* USER CODE BEGIN HAL_PCD_DataOutStageCallback_PreTreatment */
 293              		.loc 1 158 1 is_stmt 1 view -0
 294              		.cfi_startproc
 295              		@ args = 0, pretend = 0, frame = 0
 296              		@ frame_needed = 0, uses_anonymous_args = 0
 158:USB_Device/Target/usbd_conf.c ****   /* USER CODE BEGIN HAL_PCD_DataOutStageCallback_PreTreatment */
 297              		.loc 1 158 1 is_stmt 0 view .LVU54
 298 0000 08B5     		push	{r3, lr}
 299              	.LCFI7:
 300              		.cfi_def_cfa_offset 8
 301              		.cfi_offset 3, -8
 302              		.cfi_offset 14, -4
 162:USB_Device/Target/usbd_conf.c ****   /* USER CODE BEGIN HAL_PCD_DataOutStageCallback_PostTreatment */
 303              		.loc 1 162 3 is_stmt 1 view .LVU55
 304 0002 01EB8103 		add	r3, r1, r1, lsl #2
 305 0006 00EBC303 		add	r3, r0, r3, lsl #3
ARM GAS  /tmp/ccBduf5I.s 			page 21


 306 000a D3F87C21 		ldr	r2, [r3, #380]
 307 000e D0F8F002 		ldr	r0, [r0, #752]
 308              	.LVL23:
 162:USB_Device/Target/usbd_conf.c ****   /* USER CODE BEGIN HAL_PCD_DataOutStageCallback_PostTreatment */
 309              		.loc 1 162 3 is_stmt 0 view .LVU56
 310 0012 FFF7FEFF 		bl	USBD_LL_DataOutStage
 311              	.LVL24:
 166:USB_Device/Target/usbd_conf.c **** 
 312              		.loc 1 166 1 view .LVU57
 313 0016 08BD     		pop	{r3, pc}
 314              		.cfi_endproc
 315              	.LFE336:
 317              		.section	.text.HAL_PCD_DataInStageCallback,"ax",%progbits
 318              		.align	1
 319              		.global	HAL_PCD_DataInStageCallback
 320              		.syntax unified
 321              		.thumb
 322              		.thumb_func
 324              	HAL_PCD_DataInStageCallback:
 325              	.LVL25:
 326              	.LFB337:
 179:USB_Device/Target/usbd_conf.c ****   /* USER CODE BEGIN HAL_PCD_DataInStageCallback_PreTreatment */
 327              		.loc 1 179 1 is_stmt 1 view -0
 328              		.cfi_startproc
 329              		@ args = 0, pretend = 0, frame = 0
 330              		@ frame_needed = 0, uses_anonymous_args = 0
 179:USB_Device/Target/usbd_conf.c ****   /* USER CODE BEGIN HAL_PCD_DataInStageCallback_PreTreatment */
 331              		.loc 1 179 1 is_stmt 0 view .LVU59
 332 0000 08B5     		push	{r3, lr}
 333              	.LCFI8:
 334              		.cfi_def_cfa_offset 8
 335              		.cfi_offset 3, -8
 336              		.cfi_offset 14, -4
 183:USB_Device/Target/usbd_conf.c ****   /* USER CODE BEGIN HAL_PCD_DataInStageCallback_PostTreatment  */
 337              		.loc 1 183 3 is_stmt 1 view .LVU60
 338 0002 01EB8103 		add	r3, r1, r1, lsl #2
 339 0006 00EBC303 		add	r3, r0, r3, lsl #3
 340 000a DA6B     		ldr	r2, [r3, #60]
 341 000c D0F8F002 		ldr	r0, [r0, #752]
 342              	.LVL26:
 183:USB_Device/Target/usbd_conf.c ****   /* USER CODE BEGIN HAL_PCD_DataInStageCallback_PostTreatment  */
 343              		.loc 1 183 3 is_stmt 0 view .LVU61
 344 0010 FFF7FEFF 		bl	USBD_LL_DataInStage
 345              	.LVL27:
 187:USB_Device/Target/usbd_conf.c **** 
 346              		.loc 1 187 1 view .LVU62
 347 0014 08BD     		pop	{r3, pc}
 348              		.cfi_endproc
 349              	.LFE337:
 351              		.section	.text.HAL_PCD_SOFCallback,"ax",%progbits
 352              		.align	1
 353              		.global	HAL_PCD_SOFCallback
 354              		.syntax unified
 355              		.thumb
 356              		.thumb_func
 358              	HAL_PCD_SOFCallback:
 359              	.LVL28:
ARM GAS  /tmp/ccBduf5I.s 			page 22


 360              	.LFB338:
 199:USB_Device/Target/usbd_conf.c ****   /* USER CODE BEGIN HAL_PCD_SOFCallback_PreTreatment */
 361              		.loc 1 199 1 is_stmt 1 view -0
 362              		.cfi_startproc
 363              		@ args = 0, pretend = 0, frame = 0
 364              		@ frame_needed = 0, uses_anonymous_args = 0
 199:USB_Device/Target/usbd_conf.c ****   /* USER CODE BEGIN HAL_PCD_SOFCallback_PreTreatment */
 365              		.loc 1 199 1 is_stmt 0 view .LVU64
 366 0000 08B5     		push	{r3, lr}
 367              	.LCFI9:
 368              		.cfi_def_cfa_offset 8
 369              		.cfi_offset 3, -8
 370              		.cfi_offset 14, -4
 203:USB_Device/Target/usbd_conf.c ****   /* USER CODE BEGIN HAL_PCD_SOFCallback_PostTreatment */
 371              		.loc 1 203 3 is_stmt 1 view .LVU65
 372 0002 D0F8F002 		ldr	r0, [r0, #752]
 373              	.LVL29:
 203:USB_Device/Target/usbd_conf.c ****   /* USER CODE BEGIN HAL_PCD_SOFCallback_PostTreatment */
 374              		.loc 1 203 3 is_stmt 0 view .LVU66
 375 0006 FFF7FEFF 		bl	USBD_LL_SOF
 376              	.LVL30:
 207:USB_Device/Target/usbd_conf.c **** 
 377              		.loc 1 207 1 view .LVU67
 378 000a 08BD     		pop	{r3, pc}
 379              		.cfi_endproc
 380              	.LFE338:
 382              		.section	.text.HAL_PCD_ResetCallback,"ax",%progbits
 383              		.align	1
 384              		.global	HAL_PCD_ResetCallback
 385              		.syntax unified
 386              		.thumb
 387              		.thumb_func
 389              	HAL_PCD_ResetCallback:
 390              	.LVL31:
 391              	.LFB339:
 219:USB_Device/Target/usbd_conf.c ****   /* USER CODE BEGIN HAL_PCD_ResetCallback_PreTreatment */
 392              		.loc 1 219 1 is_stmt 1 view -0
 393              		.cfi_startproc
 394              		@ args = 0, pretend = 0, frame = 0
 395              		@ frame_needed = 0, uses_anonymous_args = 0
 219:USB_Device/Target/usbd_conf.c ****   /* USER CODE BEGIN HAL_PCD_ResetCallback_PreTreatment */
 396              		.loc 1 219 1 is_stmt 0 view .LVU69
 397 0000 10B5     		push	{r4, lr}
 398              	.LCFI10:
 399              		.cfi_def_cfa_offset 8
 400              		.cfi_offset 4, -8
 401              		.cfi_offset 14, -4
 402 0002 0446     		mov	r4, r0
 223:USB_Device/Target/usbd_conf.c **** 
 403              		.loc 1 223 3 is_stmt 1 view .LVU70
 404              	.LVL32:
 225:USB_Device/Target/usbd_conf.c ****   {
 405              		.loc 1 225 3 view .LVU71
 225:USB_Device/Target/usbd_conf.c ****   {
 406              		.loc 1 225 18 is_stmt 0 view .LVU72
 407 0004 8368     		ldr	r3, [r0, #8]
 225:USB_Device/Target/usbd_conf.c ****   {
ARM GAS  /tmp/ccBduf5I.s 			page 23


 408              		.loc 1 225 6 view .LVU73
 409 0006 022B     		cmp	r3, #2
 410 0008 09D1     		bne	.L35
 411              	.LVL33:
 412              	.L33:
 230:USB_Device/Target/usbd_conf.c **** 
 413              		.loc 1 230 3 is_stmt 1 view .LVU74
 414 000a 0121     		movs	r1, #1
 415 000c D4F8F002 		ldr	r0, [r4, #752]
 416 0010 FFF7FEFF 		bl	USBD_LL_SetSpeed
 417              	.LVL34:
 233:USB_Device/Target/usbd_conf.c ****   /* USER CODE BEGIN HAL_PCD_ResetCallback_PostTreatment */
 418              		.loc 1 233 3 view .LVU75
 419 0014 D4F8F002 		ldr	r0, [r4, #752]
 420 0018 FFF7FEFF 		bl	USBD_LL_Reset
 421              	.LVL35:
 237:USB_Device/Target/usbd_conf.c **** 
 422              		.loc 1 237 1 is_stmt 0 view .LVU76
 423 001c 10BD     		pop	{r4, pc}
 424              	.LVL36:
 425              	.L35:
 227:USB_Device/Target/usbd_conf.c ****   }
 426              		.loc 1 227 5 is_stmt 1 view .LVU77
 427 001e FFF7FEFF 		bl	Error_Handler
 428              	.LVL37:
 227:USB_Device/Target/usbd_conf.c ****   }
 429              		.loc 1 227 5 is_stmt 0 view .LVU78
 430 0022 F2E7     		b	.L33
 431              		.cfi_endproc
 432              	.LFE339:
 434              		.section	.text.HAL_PCD_SuspendCallback,"ax",%progbits
 435              		.align	1
 436              		.global	HAL_PCD_SuspendCallback
 437              		.syntax unified
 438              		.thumb
 439              		.thumb_func
 441              	HAL_PCD_SuspendCallback:
 442              	.LVL38:
 443              	.LFB340:
 250:USB_Device/Target/usbd_conf.c ****   /* USER CODE BEGIN HAL_PCD_SuspendCallback_PreTreatment */
 444              		.loc 1 250 1 is_stmt 1 view -0
 445              		.cfi_startproc
 446              		@ args = 0, pretend = 0, frame = 0
 447              		@ frame_needed = 0, uses_anonymous_args = 0
 250:USB_Device/Target/usbd_conf.c ****   /* USER CODE BEGIN HAL_PCD_SuspendCallback_PreTreatment */
 448              		.loc 1 250 1 is_stmt 0 view .LVU80
 449 0000 10B5     		push	{r4, lr}
 450              	.LCFI11:
 451              		.cfi_def_cfa_offset 8
 452              		.cfi_offset 4, -8
 453              		.cfi_offset 14, -4
 454 0002 0446     		mov	r4, r0
 255:USB_Device/Target/usbd_conf.c ****   /* Enter in STOP mode. */
 455              		.loc 1 255 3 is_stmt 1 view .LVU81
 456 0004 D0F8F002 		ldr	r0, [r0, #752]
 457              	.LVL39:
 255:USB_Device/Target/usbd_conf.c ****   /* Enter in STOP mode. */
ARM GAS  /tmp/ccBduf5I.s 			page 24


 458              		.loc 1 255 3 is_stmt 0 view .LVU82
 459 0008 FFF7FEFF 		bl	USBD_LL_Suspend
 460              	.LVL40:
 258:USB_Device/Target/usbd_conf.c ****   {
 461              		.loc 1 258 3 is_stmt 1 view .LVU83
 258:USB_Device/Target/usbd_conf.c ****   {
 462              		.loc 1 258 17 is_stmt 0 view .LVU84
 463 000c A369     		ldr	r3, [r4, #24]
 258:USB_Device/Target/usbd_conf.c ****   {
 464              		.loc 1 258 6 view .LVU85
 465 000e 23B1     		cbz	r3, .L36
 261:USB_Device/Target/usbd_conf.c ****   }
 466              		.loc 1 261 5 is_stmt 1 view .LVU86
 261:USB_Device/Target/usbd_conf.c ****   }
 467              		.loc 1 261 14 is_stmt 0 view .LVU87
 468 0010 024A     		ldr	r2, .L39
 469 0012 1369     		ldr	r3, [r2, #16]
 470 0014 43F00603 		orr	r3, r3, #6
 471 0018 1361     		str	r3, [r2, #16]
 472              	.L36:
 267:USB_Device/Target/usbd_conf.c **** 
 473              		.loc 1 267 1 view .LVU88
 474 001a 10BD     		pop	{r4, pc}
 475              	.LVL41:
 476              	.L40:
 267:USB_Device/Target/usbd_conf.c **** 
 477              		.loc 1 267 1 view .LVU89
 478              		.align	2
 479              	.L39:
 480 001c 00ED00E0 		.word	-536810240
 481              		.cfi_endproc
 482              	.LFE340:
 484              		.section	.text.HAL_PCD_ResumeCallback,"ax",%progbits
 485              		.align	1
 486              		.global	HAL_PCD_ResumeCallback
 487              		.syntax unified
 488              		.thumb
 489              		.thumb_func
 491              	HAL_PCD_ResumeCallback:
 492              	.LVL42:
 493              	.LFB341:
 280:USB_Device/Target/usbd_conf.c ****   /* USER CODE BEGIN HAL_PCD_ResumeCallback_PreTreatment */
 494              		.loc 1 280 1 is_stmt 1 view -0
 495              		.cfi_startproc
 496              		@ args = 0, pretend = 0, frame = 0
 497              		@ frame_needed = 0, uses_anonymous_args = 0
 280:USB_Device/Target/usbd_conf.c ****   /* USER CODE BEGIN HAL_PCD_ResumeCallback_PreTreatment */
 498              		.loc 1 280 1 is_stmt 0 view .LVU91
 499 0000 10B5     		push	{r4, lr}
 500              	.LCFI12:
 501              		.cfi_def_cfa_offset 8
 502              		.cfi_offset 4, -8
 503              		.cfi_offset 14, -4
 504 0002 0446     		mov	r4, r0
 286:USB_Device/Target/usbd_conf.c ****   {
 505              		.loc 1 286 3 is_stmt 1 view .LVU92
 286:USB_Device/Target/usbd_conf.c ****   {
ARM GAS  /tmp/ccBduf5I.s 			page 25


 506              		.loc 1 286 17 is_stmt 0 view .LVU93
 507 0004 8369     		ldr	r3, [r0, #24]
 286:USB_Device/Target/usbd_conf.c ****   {
 508              		.loc 1 286 6 view .LVU94
 509 0006 23B9     		cbnz	r3, .L44
 510              	.LVL43:
 511              	.L42:
 294:USB_Device/Target/usbd_conf.c ****   /* USER CODE BEGIN HAL_PCD_ResumeCallback_PostTreatment */
 512              		.loc 1 294 3 is_stmt 1 view .LVU95
 513 0008 D4F8F002 		ldr	r0, [r4, #752]
 514 000c FFF7FEFF 		bl	USBD_LL_Resume
 515              	.LVL44:
 298:USB_Device/Target/usbd_conf.c **** 
 516              		.loc 1 298 1 is_stmt 0 view .LVU96
 517 0010 10BD     		pop	{r4, pc}
 518              	.LVL45:
 519              	.L44:
 289:USB_Device/Target/usbd_conf.c ****     SystemClockConfig_Resume();
 520              		.loc 1 289 5 is_stmt 1 view .LVU97
 289:USB_Device/Target/usbd_conf.c ****     SystemClockConfig_Resume();
 521              		.loc 1 289 14 is_stmt 0 view .LVU98
 522 0012 044A     		ldr	r2, .L45
 523 0014 1369     		ldr	r3, [r2, #16]
 524 0016 23F00603 		bic	r3, r3, #6
 525 001a 1361     		str	r3, [r2, #16]
 290:USB_Device/Target/usbd_conf.c ****   }
 526              		.loc 1 290 5 is_stmt 1 view .LVU99
 527 001c FFF7FEFF 		bl	SystemClockConfig_Resume
 528              	.LVL46:
 290:USB_Device/Target/usbd_conf.c ****   }
 529              		.loc 1 290 5 is_stmt 0 view .LVU100
 530 0020 F2E7     		b	.L42
 531              	.L46:
 532 0022 00BF     		.align	2
 533              	.L45:
 534 0024 00ED00E0 		.word	-536810240
 535              		.cfi_endproc
 536              	.LFE341:
 538              		.section	.text.HAL_PCD_ISOOUTIncompleteCallback,"ax",%progbits
 539              		.align	1
 540              		.global	HAL_PCD_ISOOUTIncompleteCallback
 541              		.syntax unified
 542              		.thumb
 543              		.thumb_func
 545              	HAL_PCD_ISOOUTIncompleteCallback:
 546              	.LVL47:
 547              	.LFB342:
 311:USB_Device/Target/usbd_conf.c ****   /* USER CODE BEGIN HAL_PCD_ISOOUTIncompleteCallback_PreTreatment */
 548              		.loc 1 311 1 is_stmt 1 view -0
 549              		.cfi_startproc
 550              		@ args = 0, pretend = 0, frame = 0
 551              		@ frame_needed = 0, uses_anonymous_args = 0
 311:USB_Device/Target/usbd_conf.c ****   /* USER CODE BEGIN HAL_PCD_ISOOUTIncompleteCallback_PreTreatment */
 552              		.loc 1 311 1 is_stmt 0 view .LVU102
 553 0000 08B5     		push	{r3, lr}
 554              	.LCFI13:
 555              		.cfi_def_cfa_offset 8
ARM GAS  /tmp/ccBduf5I.s 			page 26


 556              		.cfi_offset 3, -8
 557              		.cfi_offset 14, -4
 315:USB_Device/Target/usbd_conf.c ****   /* USER CODE BEGIN HAL_PCD_ISOOUTIncompleteCallback_PostTreatment */
 558              		.loc 1 315 3 is_stmt 1 view .LVU103
 559 0002 D0F8F002 		ldr	r0, [r0, #752]
 560              	.LVL48:
 315:USB_Device/Target/usbd_conf.c ****   /* USER CODE BEGIN HAL_PCD_ISOOUTIncompleteCallback_PostTreatment */
 561              		.loc 1 315 3 is_stmt 0 view .LVU104
 562 0006 FFF7FEFF 		bl	USBD_LL_IsoOUTIncomplete
 563              	.LVL49:
 319:USB_Device/Target/usbd_conf.c **** 
 564              		.loc 1 319 1 view .LVU105
 565 000a 08BD     		pop	{r3, pc}
 566              		.cfi_endproc
 567              	.LFE342:
 569              		.section	.text.HAL_PCD_ISOINIncompleteCallback,"ax",%progbits
 570              		.align	1
 571              		.global	HAL_PCD_ISOINIncompleteCallback
 572              		.syntax unified
 573              		.thumb
 574              		.thumb_func
 576              	HAL_PCD_ISOINIncompleteCallback:
 577              	.LVL50:
 578              	.LFB343:
 332:USB_Device/Target/usbd_conf.c ****   /* USER CODE BEGIN HAL_PCD_ISOINIncompleteCallback_PreTreatment */
 579              		.loc 1 332 1 is_stmt 1 view -0
 580              		.cfi_startproc
 581              		@ args = 0, pretend = 0, frame = 0
 582              		@ frame_needed = 0, uses_anonymous_args = 0
 332:USB_Device/Target/usbd_conf.c ****   /* USER CODE BEGIN HAL_PCD_ISOINIncompleteCallback_PreTreatment */
 583              		.loc 1 332 1 is_stmt 0 view .LVU107
 584 0000 08B5     		push	{r3, lr}
 585              	.LCFI14:
 586              		.cfi_def_cfa_offset 8
 587              		.cfi_offset 3, -8
 588              		.cfi_offset 14, -4
 336:USB_Device/Target/usbd_conf.c ****   /* USER CODE BEGIN HAL_PCD_ISOINIncompleteCallback_PostTreatment */
 589              		.loc 1 336 3 is_stmt 1 view .LVU108
 590 0002 D0F8F002 		ldr	r0, [r0, #752]
 591              	.LVL51:
 336:USB_Device/Target/usbd_conf.c ****   /* USER CODE BEGIN HAL_PCD_ISOINIncompleteCallback_PostTreatment */
 592              		.loc 1 336 3 is_stmt 0 view .LVU109
 593 0006 FFF7FEFF 		bl	USBD_LL_IsoINIncomplete
 594              	.LVL52:
 340:USB_Device/Target/usbd_conf.c **** 
 595              		.loc 1 340 1 view .LVU110
 596 000a 08BD     		pop	{r3, pc}
 597              		.cfi_endproc
 598              	.LFE343:
 600              		.section	.text.HAL_PCD_ConnectCallback,"ax",%progbits
 601              		.align	1
 602              		.global	HAL_PCD_ConnectCallback
 603              		.syntax unified
 604              		.thumb
 605              		.thumb_func
 607              	HAL_PCD_ConnectCallback:
 608              	.LVL53:
ARM GAS  /tmp/ccBduf5I.s 			page 27


 609              	.LFB344:
 352:USB_Device/Target/usbd_conf.c ****   /* USER CODE BEGIN HAL_PCD_ConnectCallback_PreTreatment */
 610              		.loc 1 352 1 is_stmt 1 view -0
 611              		.cfi_startproc
 612              		@ args = 0, pretend = 0, frame = 0
 613              		@ frame_needed = 0, uses_anonymous_args = 0
 352:USB_Device/Target/usbd_conf.c ****   /* USER CODE BEGIN HAL_PCD_ConnectCallback_PreTreatment */
 614              		.loc 1 352 1 is_stmt 0 view .LVU112
 615 0000 08B5     		push	{r3, lr}
 616              	.LCFI15:
 617              		.cfi_def_cfa_offset 8
 618              		.cfi_offset 3, -8
 619              		.cfi_offset 14, -4
 356:USB_Device/Target/usbd_conf.c ****   /* USER CODE BEGIN HAL_PCD_ConnectCallback_PostTreatment */
 620              		.loc 1 356 3 is_stmt 1 view .LVU113
 621 0002 D0F8F002 		ldr	r0, [r0, #752]
 622              	.LVL54:
 356:USB_Device/Target/usbd_conf.c ****   /* USER CODE BEGIN HAL_PCD_ConnectCallback_PostTreatment */
 623              		.loc 1 356 3 is_stmt 0 view .LVU114
 624 0006 FFF7FEFF 		bl	USBD_LL_DevConnected
 625              	.LVL55:
 360:USB_Device/Target/usbd_conf.c **** 
 626              		.loc 1 360 1 view .LVU115
 627 000a 08BD     		pop	{r3, pc}
 628              		.cfi_endproc
 629              	.LFE344:
 631              		.section	.text.HAL_PCD_DisconnectCallback,"ax",%progbits
 632              		.align	1
 633              		.global	HAL_PCD_DisconnectCallback
 634              		.syntax unified
 635              		.thumb
 636              		.thumb_func
 638              	HAL_PCD_DisconnectCallback:
 639              	.LVL56:
 640              	.LFB345:
 372:USB_Device/Target/usbd_conf.c ****   /* USER CODE BEGIN HAL_PCD_DisconnectCallback_PreTreatment */
 641              		.loc 1 372 1 is_stmt 1 view -0
 642              		.cfi_startproc
 643              		@ args = 0, pretend = 0, frame = 0
 644              		@ frame_needed = 0, uses_anonymous_args = 0
 372:USB_Device/Target/usbd_conf.c ****   /* USER CODE BEGIN HAL_PCD_DisconnectCallback_PreTreatment */
 645              		.loc 1 372 1 is_stmt 0 view .LVU117
 646 0000 08B5     		push	{r3, lr}
 647              	.LCFI16:
 648              		.cfi_def_cfa_offset 8
 649              		.cfi_offset 3, -8
 650              		.cfi_offset 14, -4
 376:USB_Device/Target/usbd_conf.c ****   /* USER CODE BEGIN HAL_PCD_DisconnectCallback_PostTreatment */
 651              		.loc 1 376 3 is_stmt 1 view .LVU118
 652 0002 D0F8F002 		ldr	r0, [r0, #752]
 653              	.LVL57:
 376:USB_Device/Target/usbd_conf.c ****   /* USER CODE BEGIN HAL_PCD_DisconnectCallback_PostTreatment */
 654              		.loc 1 376 3 is_stmt 0 view .LVU119
 655 0006 FFF7FEFF 		bl	USBD_LL_DevDisconnected
 656              	.LVL58:
 380:USB_Device/Target/usbd_conf.c **** 
 657              		.loc 1 380 1 view .LVU120
ARM GAS  /tmp/ccBduf5I.s 			page 28


 658 000a 08BD     		pop	{r3, pc}
 659              		.cfi_endproc
 660              	.LFE345:
 662              		.section	.text.USBD_LL_Init,"ax",%progbits
 663              		.align	1
 664              		.global	USBD_LL_Init
 665              		.syntax unified
 666              		.thumb
 667              		.thumb_func
 669              	USBD_LL_Init:
 670              	.LVL59:
 671              	.LFB346:
 396:USB_Device/Target/usbd_conf.c ****   /* Init USB Ip. */
 672              		.loc 1 396 1 is_stmt 1 view -0
 673              		.cfi_startproc
 674              		@ args = 0, pretend = 0, frame = 0
 675              		@ frame_needed = 0, uses_anonymous_args = 0
 396:USB_Device/Target/usbd_conf.c ****   /* Init USB Ip. */
 676              		.loc 1 396 1 is_stmt 0 view .LVU122
 677 0000 10B5     		push	{r4, lr}
 678              	.LCFI17:
 679              		.cfi_def_cfa_offset 8
 680              		.cfi_offset 4, -8
 681              		.cfi_offset 14, -4
 682 0002 0446     		mov	r4, r0
 398:USB_Device/Target/usbd_conf.c ****   /* Link the driver to the stack. */
 683              		.loc 1 398 3 is_stmt 1 view .LVU123
 398:USB_Device/Target/usbd_conf.c ****   /* Link the driver to the stack. */
 684              		.loc 1 398 21 is_stmt 0 view .LVU124
 685 0004 1E48     		ldr	r0, .L59
 686              	.LVL60:
 398:USB_Device/Target/usbd_conf.c ****   /* Link the driver to the stack. */
 687              		.loc 1 398 21 view .LVU125
 688 0006 C0F8F042 		str	r4, [r0, #752]
 400:USB_Device/Target/usbd_conf.c **** 
 689              		.loc 1 400 3 is_stmt 1 view .LVU126
 400:USB_Device/Target/usbd_conf.c **** 
 690              		.loc 1 400 15 is_stmt 0 view .LVU127
 691 000a C4F8C402 		str	r0, [r4, #708]
 402:USB_Device/Target/usbd_conf.c ****   hpcd_USB_FS.Init.dev_endpoints = 8;
 692              		.loc 1 402 3 is_stmt 1 view .LVU128
 402:USB_Device/Target/usbd_conf.c ****   hpcd_USB_FS.Init.dev_endpoints = 8;
 693              		.loc 1 402 24 is_stmt 0 view .LVU129
 694 000e 1D4B     		ldr	r3, .L59+4
 695 0010 0360     		str	r3, [r0]
 403:USB_Device/Target/usbd_conf.c ****   hpcd_USB_FS.Init.speed = PCD_SPEED_FULL;
 696              		.loc 1 403 3 is_stmt 1 view .LVU130
 403:USB_Device/Target/usbd_conf.c ****   hpcd_USB_FS.Init.speed = PCD_SPEED_FULL;
 697              		.loc 1 403 34 is_stmt 0 view .LVU131
 698 0012 0823     		movs	r3, #8
 699 0014 4360     		str	r3, [r0, #4]
 404:USB_Device/Target/usbd_conf.c ****   hpcd_USB_FS.Init.phy_itface = PCD_PHY_EMBEDDED;
 700              		.loc 1 404 3 is_stmt 1 view .LVU132
 404:USB_Device/Target/usbd_conf.c ****   hpcd_USB_FS.Init.phy_itface = PCD_PHY_EMBEDDED;
 701              		.loc 1 404 26 is_stmt 0 view .LVU133
 702 0016 0223     		movs	r3, #2
 703 0018 8360     		str	r3, [r0, #8]
ARM GAS  /tmp/ccBduf5I.s 			page 29


 405:USB_Device/Target/usbd_conf.c ****   hpcd_USB_FS.Init.Sof_enable = DISABLE;
 704              		.loc 1 405 3 is_stmt 1 view .LVU134
 405:USB_Device/Target/usbd_conf.c ****   hpcd_USB_FS.Init.Sof_enable = DISABLE;
 705              		.loc 1 405 31 is_stmt 0 view .LVU135
 706 001a 0361     		str	r3, [r0, #16]
 406:USB_Device/Target/usbd_conf.c ****   hpcd_USB_FS.Init.low_power_enable = DISABLE;
 707              		.loc 1 406 3 is_stmt 1 view .LVU136
 406:USB_Device/Target/usbd_conf.c ****   hpcd_USB_FS.Init.low_power_enable = DISABLE;
 708              		.loc 1 406 31 is_stmt 0 view .LVU137
 709 001c 0023     		movs	r3, #0
 710 001e 4361     		str	r3, [r0, #20]
 407:USB_Device/Target/usbd_conf.c ****   hpcd_USB_FS.Init.lpm_enable = DISABLE;
 711              		.loc 1 407 3 is_stmt 1 view .LVU138
 407:USB_Device/Target/usbd_conf.c ****   hpcd_USB_FS.Init.lpm_enable = DISABLE;
 712              		.loc 1 407 37 is_stmt 0 view .LVU139
 713 0020 8361     		str	r3, [r0, #24]
 408:USB_Device/Target/usbd_conf.c ****   hpcd_USB_FS.Init.battery_charging_enable = DISABLE;
 714              		.loc 1 408 3 is_stmt 1 view .LVU140
 408:USB_Device/Target/usbd_conf.c ****   hpcd_USB_FS.Init.battery_charging_enable = DISABLE;
 715              		.loc 1 408 31 is_stmt 0 view .LVU141
 716 0022 C361     		str	r3, [r0, #28]
 409:USB_Device/Target/usbd_conf.c **** 
 717              		.loc 1 409 3 is_stmt 1 view .LVU142
 409:USB_Device/Target/usbd_conf.c **** 
 718              		.loc 1 409 44 is_stmt 0 view .LVU143
 719 0024 0362     		str	r3, [r0, #32]
 417:USB_Device/Target/usbd_conf.c ****   {
 720              		.loc 1 417 3 is_stmt 1 view .LVU144
 417:USB_Device/Target/usbd_conf.c ****   {
 721              		.loc 1 417 7 is_stmt 0 view .LVU145
 722 0026 FFF7FEFF 		bl	HAL_PCD_Init
 723              	.LVL61:
 417:USB_Device/Target/usbd_conf.c ****   {
 724              		.loc 1 417 6 view .LVU146
 725 002a 30BB     		cbnz	r0, .L58
 726              	.L56:
 444:USB_Device/Target/usbd_conf.c ****   HAL_PCDEx_PMAConfig((PCD_HandleTypeDef*)pdev->pData , 0x80 , PCD_SNG_BUF, 0x58);
 727              		.loc 1 444 3 is_stmt 1 view .LVU147
 728 002c 1823     		movs	r3, #24
 729 002e 0022     		movs	r2, #0
 730 0030 1146     		mov	r1, r2
 731 0032 D4F8C402 		ldr	r0, [r4, #708]
 732 0036 FFF7FEFF 		bl	HAL_PCDEx_PMAConfig
 733              	.LVL62:
 445:USB_Device/Target/usbd_conf.c ****   /* USER CODE END EndPoint_Configuration */
 734              		.loc 1 445 3 view .LVU148
 735 003a 5823     		movs	r3, #88
 736 003c 0022     		movs	r2, #0
 737 003e 8021     		movs	r1, #128
 738 0040 D4F8C402 		ldr	r0, [r4, #708]
 739 0044 FFF7FEFF 		bl	HAL_PCDEx_PMAConfig
 740              	.LVL63:
 448:USB_Device/Target/usbd_conf.c ****   HAL_PCDEx_PMAConfig((PCD_HandleTypeDef*)pdev->pData , 0x01 , PCD_SNG_BUF, 0x110);
 741              		.loc 1 448 3 view .LVU149
 742 0048 C023     		movs	r3, #192
 743 004a 0022     		movs	r2, #0
 744 004c 8121     		movs	r1, #129
ARM GAS  /tmp/ccBduf5I.s 			page 30


 745 004e D4F8C402 		ldr	r0, [r4, #708]
 746 0052 FFF7FEFF 		bl	HAL_PCDEx_PMAConfig
 747              	.LVL64:
 449:USB_Device/Target/usbd_conf.c ****   HAL_PCDEx_PMAConfig((PCD_HandleTypeDef*)pdev->pData , 0x82 , PCD_SNG_BUF, 0x100);
 748              		.loc 1 449 3 view .LVU150
 749 0056 4FF48873 		mov	r3, #272
 750 005a 0022     		movs	r2, #0
 751 005c 0121     		movs	r1, #1
 752 005e D4F8C402 		ldr	r0, [r4, #708]
 753 0062 FFF7FEFF 		bl	HAL_PCDEx_PMAConfig
 754              	.LVL65:
 450:USB_Device/Target/usbd_conf.c ****   /* USER CODE END EndPoint_Configuration_CDC */
 755              		.loc 1 450 3 view .LVU151
 756 0066 4FF48073 		mov	r3, #256
 757 006a 0022     		movs	r2, #0
 758 006c 8221     		movs	r1, #130
 759 006e D4F8C402 		ldr	r0, [r4, #708]
 760 0072 FFF7FEFF 		bl	HAL_PCDEx_PMAConfig
 761              	.LVL66:
 452:USB_Device/Target/usbd_conf.c **** }
 762              		.loc 1 452 3 view .LVU152
 453:USB_Device/Target/usbd_conf.c **** 
 763              		.loc 1 453 1 is_stmt 0 view .LVU153
 764 0076 0020     		movs	r0, #0
 765 0078 10BD     		pop	{r4, pc}
 766              	.LVL67:
 767              	.L58:
 419:USB_Device/Target/usbd_conf.c ****   }
 768              		.loc 1 419 5 is_stmt 1 view .LVU154
 769 007a FFF7FEFF 		bl	Error_Handler
 770              	.LVL68:
 771 007e D5E7     		b	.L56
 772              	.L60:
 773              		.align	2
 774              	.L59:
 775 0080 00000000 		.word	.LANCHOR0
 776 0084 005C0040 		.word	1073765376
 777              		.cfi_endproc
 778              	.LFE346:
 780              		.section	.text.USBD_LL_DeInit,"ax",%progbits
 781              		.align	1
 782              		.global	USBD_LL_DeInit
 783              		.syntax unified
 784              		.thumb
 785              		.thumb_func
 787              	USBD_LL_DeInit:
 788              	.LVL69:
 789              	.LFB347:
 461:USB_Device/Target/usbd_conf.c ****   HAL_StatusTypeDef hal_status = HAL_OK;
 790              		.loc 1 461 1 view -0
 791              		.cfi_startproc
 792              		@ args = 0, pretend = 0, frame = 0
 793              		@ frame_needed = 0, uses_anonymous_args = 0
 461:USB_Device/Target/usbd_conf.c ****   HAL_StatusTypeDef hal_status = HAL_OK;
 794              		.loc 1 461 1 is_stmt 0 view .LVU156
 795 0000 08B5     		push	{r3, lr}
 796              	.LCFI18:
ARM GAS  /tmp/ccBduf5I.s 			page 31


 797              		.cfi_def_cfa_offset 8
 798              		.cfi_offset 3, -8
 799              		.cfi_offset 14, -4
 462:USB_Device/Target/usbd_conf.c ****   USBD_StatusTypeDef usb_status = USBD_OK;
 800              		.loc 1 462 3 is_stmt 1 view .LVU157
 801              	.LVL70:
 463:USB_Device/Target/usbd_conf.c **** 
 802              		.loc 1 463 3 view .LVU158
 465:USB_Device/Target/usbd_conf.c **** 
 803              		.loc 1 465 3 view .LVU159
 465:USB_Device/Target/usbd_conf.c **** 
 804              		.loc 1 465 16 is_stmt 0 view .LVU160
 805 0002 D0F8C402 		ldr	r0, [r0, #708]
 806              	.LVL71:
 465:USB_Device/Target/usbd_conf.c **** 
 807              		.loc 1 465 16 view .LVU161
 808 0006 FFF7FEFF 		bl	HAL_PCD_DeInit
 809              	.LVL72:
 467:USB_Device/Target/usbd_conf.c **** 
 810              		.loc 1 467 3 is_stmt 1 view .LVU162
 467:USB_Device/Target/usbd_conf.c **** 
 811              		.loc 1 467 17 is_stmt 0 view .LVU163
 812 000a FFF7FEFF 		bl	USBD_Get_USB_Status
 813              	.LVL73:
 469:USB_Device/Target/usbd_conf.c **** }
 814              		.loc 1 469 3 is_stmt 1 view .LVU164
 470:USB_Device/Target/usbd_conf.c **** 
 815              		.loc 1 470 1 is_stmt 0 view .LVU165
 816 000e 08BD     		pop	{r3, pc}
 817              		.cfi_endproc
 818              	.LFE347:
 820              		.section	.text.USBD_LL_Start,"ax",%progbits
 821              		.align	1
 822              		.global	USBD_LL_Start
 823              		.syntax unified
 824              		.thumb
 825              		.thumb_func
 827              	USBD_LL_Start:
 828              	.LVL74:
 829              	.LFB348:
 478:USB_Device/Target/usbd_conf.c ****   HAL_StatusTypeDef hal_status = HAL_OK;
 830              		.loc 1 478 1 is_stmt 1 view -0
 831              		.cfi_startproc
 832              		@ args = 0, pretend = 0, frame = 0
 833              		@ frame_needed = 0, uses_anonymous_args = 0
 478:USB_Device/Target/usbd_conf.c ****   HAL_StatusTypeDef hal_status = HAL_OK;
 834              		.loc 1 478 1 is_stmt 0 view .LVU167
 835 0000 08B5     		push	{r3, lr}
 836              	.LCFI19:
 837              		.cfi_def_cfa_offset 8
 838              		.cfi_offset 3, -8
 839              		.cfi_offset 14, -4
 479:USB_Device/Target/usbd_conf.c ****   USBD_StatusTypeDef usb_status = USBD_OK;
 840              		.loc 1 479 3 is_stmt 1 view .LVU168
 841              	.LVL75:
 480:USB_Device/Target/usbd_conf.c **** 
 842              		.loc 1 480 3 view .LVU169
ARM GAS  /tmp/ccBduf5I.s 			page 32


 482:USB_Device/Target/usbd_conf.c **** 
 843              		.loc 1 482 3 view .LVU170
 482:USB_Device/Target/usbd_conf.c **** 
 844              		.loc 1 482 16 is_stmt 0 view .LVU171
 845 0002 D0F8C402 		ldr	r0, [r0, #708]
 846              	.LVL76:
 482:USB_Device/Target/usbd_conf.c **** 
 847              		.loc 1 482 16 view .LVU172
 848 0006 FFF7FEFF 		bl	HAL_PCD_Start
 849              	.LVL77:
 484:USB_Device/Target/usbd_conf.c **** 
 850              		.loc 1 484 3 is_stmt 1 view .LVU173
 484:USB_Device/Target/usbd_conf.c **** 
 851              		.loc 1 484 17 is_stmt 0 view .LVU174
 852 000a FFF7FEFF 		bl	USBD_Get_USB_Status
 853              	.LVL78:
 486:USB_Device/Target/usbd_conf.c **** }
 854              		.loc 1 486 3 is_stmt 1 view .LVU175
 487:USB_Device/Target/usbd_conf.c **** 
 855              		.loc 1 487 1 is_stmt 0 view .LVU176
 856 000e 08BD     		pop	{r3, pc}
 857              		.cfi_endproc
 858              	.LFE348:
 860              		.section	.text.USBD_LL_Stop,"ax",%progbits
 861              		.align	1
 862              		.global	USBD_LL_Stop
 863              		.syntax unified
 864              		.thumb
 865              		.thumb_func
 867              	USBD_LL_Stop:
 868              	.LVL79:
 869              	.LFB349:
 495:USB_Device/Target/usbd_conf.c ****   HAL_StatusTypeDef hal_status = HAL_OK;
 870              		.loc 1 495 1 is_stmt 1 view -0
 871              		.cfi_startproc
 872              		@ args = 0, pretend = 0, frame = 0
 873              		@ frame_needed = 0, uses_anonymous_args = 0
 495:USB_Device/Target/usbd_conf.c ****   HAL_StatusTypeDef hal_status = HAL_OK;
 874              		.loc 1 495 1 is_stmt 0 view .LVU178
 875 0000 08B5     		push	{r3, lr}
 876              	.LCFI20:
 877              		.cfi_def_cfa_offset 8
 878              		.cfi_offset 3, -8
 879              		.cfi_offset 14, -4
 496:USB_Device/Target/usbd_conf.c ****   USBD_StatusTypeDef usb_status = USBD_OK;
 880              		.loc 1 496 3 is_stmt 1 view .LVU179
 881              	.LVL80:
 497:USB_Device/Target/usbd_conf.c **** 
 882              		.loc 1 497 3 view .LVU180
 499:USB_Device/Target/usbd_conf.c **** 
 883              		.loc 1 499 3 view .LVU181
 499:USB_Device/Target/usbd_conf.c **** 
 884              		.loc 1 499 16 is_stmt 0 view .LVU182
 885 0002 D0F8C402 		ldr	r0, [r0, #708]
 886              	.LVL81:
 499:USB_Device/Target/usbd_conf.c **** 
 887              		.loc 1 499 16 view .LVU183
ARM GAS  /tmp/ccBduf5I.s 			page 33


 888 0006 FFF7FEFF 		bl	HAL_PCD_Stop
 889              	.LVL82:
 501:USB_Device/Target/usbd_conf.c **** 
 890              		.loc 1 501 3 is_stmt 1 view .LVU184
 501:USB_Device/Target/usbd_conf.c **** 
 891              		.loc 1 501 17 is_stmt 0 view .LVU185
 892 000a FFF7FEFF 		bl	USBD_Get_USB_Status
 893              	.LVL83:
 503:USB_Device/Target/usbd_conf.c **** }
 894              		.loc 1 503 3 is_stmt 1 view .LVU186
 504:USB_Device/Target/usbd_conf.c **** 
 895              		.loc 1 504 1 is_stmt 0 view .LVU187
 896 000e 08BD     		pop	{r3, pc}
 897              		.cfi_endproc
 898              	.LFE349:
 900              		.section	.text.USBD_LL_OpenEP,"ax",%progbits
 901              		.align	1
 902              		.global	USBD_LL_OpenEP
 903              		.syntax unified
 904              		.thumb
 905              		.thumb_func
 907              	USBD_LL_OpenEP:
 908              	.LVL84:
 909              	.LFB350:
 515:USB_Device/Target/usbd_conf.c ****   HAL_StatusTypeDef hal_status = HAL_OK;
 910              		.loc 1 515 1 is_stmt 1 view -0
 911              		.cfi_startproc
 912              		@ args = 0, pretend = 0, frame = 0
 913              		@ frame_needed = 0, uses_anonymous_args = 0
 515:USB_Device/Target/usbd_conf.c ****   HAL_StatusTypeDef hal_status = HAL_OK;
 914              		.loc 1 515 1 is_stmt 0 view .LVU189
 915 0000 08B5     		push	{r3, lr}
 916              	.LCFI21:
 917              		.cfi_def_cfa_offset 8
 918              		.cfi_offset 3, -8
 919              		.cfi_offset 14, -4
 920 0002 9446     		mov	ip, r2
 921 0004 1A46     		mov	r2, r3
 922              	.LVL85:
 516:USB_Device/Target/usbd_conf.c ****   USBD_StatusTypeDef usb_status = USBD_OK;
 923              		.loc 1 516 3 is_stmt 1 view .LVU190
 517:USB_Device/Target/usbd_conf.c **** 
 924              		.loc 1 517 3 view .LVU191
 519:USB_Device/Target/usbd_conf.c **** 
 925              		.loc 1 519 3 view .LVU192
 519:USB_Device/Target/usbd_conf.c **** 
 926              		.loc 1 519 16 is_stmt 0 view .LVU193
 927 0006 6346     		mov	r3, ip
 928              	.LVL86:
 519:USB_Device/Target/usbd_conf.c **** 
 929              		.loc 1 519 16 view .LVU194
 930 0008 D0F8C402 		ldr	r0, [r0, #708]
 931              	.LVL87:
 519:USB_Device/Target/usbd_conf.c **** 
 932              		.loc 1 519 16 view .LVU195
 933 000c FFF7FEFF 		bl	HAL_PCD_EP_Open
 934              	.LVL88:
ARM GAS  /tmp/ccBduf5I.s 			page 34


 521:USB_Device/Target/usbd_conf.c **** 
 935              		.loc 1 521 3 is_stmt 1 view .LVU196
 521:USB_Device/Target/usbd_conf.c **** 
 936              		.loc 1 521 17 is_stmt 0 view .LVU197
 937 0010 FFF7FEFF 		bl	USBD_Get_USB_Status
 938              	.LVL89:
 523:USB_Device/Target/usbd_conf.c **** }
 939              		.loc 1 523 3 is_stmt 1 view .LVU198
 524:USB_Device/Target/usbd_conf.c **** 
 940              		.loc 1 524 1 is_stmt 0 view .LVU199
 941 0014 08BD     		pop	{r3, pc}
 942              		.cfi_endproc
 943              	.LFE350:
 945              		.section	.text.USBD_LL_CloseEP,"ax",%progbits
 946              		.align	1
 947              		.global	USBD_LL_CloseEP
 948              		.syntax unified
 949              		.thumb
 950              		.thumb_func
 952              	USBD_LL_CloseEP:
 953              	.LVL90:
 954              	.LFB351:
 533:USB_Device/Target/usbd_conf.c ****   HAL_StatusTypeDef hal_status = HAL_OK;
 955              		.loc 1 533 1 is_stmt 1 view -0
 956              		.cfi_startproc
 957              		@ args = 0, pretend = 0, frame = 0
 958              		@ frame_needed = 0, uses_anonymous_args = 0
 533:USB_Device/Target/usbd_conf.c ****   HAL_StatusTypeDef hal_status = HAL_OK;
 959              		.loc 1 533 1 is_stmt 0 view .LVU201
 960 0000 08B5     		push	{r3, lr}
 961              	.LCFI22:
 962              		.cfi_def_cfa_offset 8
 963              		.cfi_offset 3, -8
 964              		.cfi_offset 14, -4
 534:USB_Device/Target/usbd_conf.c ****   USBD_StatusTypeDef usb_status = USBD_OK;
 965              		.loc 1 534 3 is_stmt 1 view .LVU202
 966              	.LVL91:
 535:USB_Device/Target/usbd_conf.c **** 
 967              		.loc 1 535 3 view .LVU203
 537:USB_Device/Target/usbd_conf.c **** 
 968              		.loc 1 537 3 view .LVU204
 537:USB_Device/Target/usbd_conf.c **** 
 969              		.loc 1 537 16 is_stmt 0 view .LVU205
 970 0002 D0F8C402 		ldr	r0, [r0, #708]
 971              	.LVL92:
 537:USB_Device/Target/usbd_conf.c **** 
 972              		.loc 1 537 16 view .LVU206
 973 0006 FFF7FEFF 		bl	HAL_PCD_EP_Close
 974              	.LVL93:
 539:USB_Device/Target/usbd_conf.c **** 
 975              		.loc 1 539 3 is_stmt 1 view .LVU207
 539:USB_Device/Target/usbd_conf.c **** 
 976              		.loc 1 539 17 is_stmt 0 view .LVU208
 977 000a FFF7FEFF 		bl	USBD_Get_USB_Status
 978              	.LVL94:
 541:USB_Device/Target/usbd_conf.c **** }
 979              		.loc 1 541 3 is_stmt 1 view .LVU209
ARM GAS  /tmp/ccBduf5I.s 			page 35


 542:USB_Device/Target/usbd_conf.c **** 
 980              		.loc 1 542 1 is_stmt 0 view .LVU210
 981 000e 08BD     		pop	{r3, pc}
 982              		.cfi_endproc
 983              	.LFE351:
 985              		.section	.text.USBD_LL_FlushEP,"ax",%progbits
 986              		.align	1
 987              		.global	USBD_LL_FlushEP
 988              		.syntax unified
 989              		.thumb
 990              		.thumb_func
 992              	USBD_LL_FlushEP:
 993              	.LVL95:
 994              	.LFB352:
 551:USB_Device/Target/usbd_conf.c ****   HAL_StatusTypeDef hal_status = HAL_OK;
 995              		.loc 1 551 1 is_stmt 1 view -0
 996              		.cfi_startproc
 997              		@ args = 0, pretend = 0, frame = 0
 998              		@ frame_needed = 0, uses_anonymous_args = 0
 551:USB_Device/Target/usbd_conf.c ****   HAL_StatusTypeDef hal_status = HAL_OK;
 999              		.loc 1 551 1 is_stmt 0 view .LVU212
 1000 0000 08B5     		push	{r3, lr}
 1001              	.LCFI23:
 1002              		.cfi_def_cfa_offset 8
 1003              		.cfi_offset 3, -8
 1004              		.cfi_offset 14, -4
 552:USB_Device/Target/usbd_conf.c ****   USBD_StatusTypeDef usb_status = USBD_OK;
 1005              		.loc 1 552 3 is_stmt 1 view .LVU213
 1006              	.LVL96:
 553:USB_Device/Target/usbd_conf.c **** 
 1007              		.loc 1 553 3 view .LVU214
 555:USB_Device/Target/usbd_conf.c **** 
 1008              		.loc 1 555 3 view .LVU215
 555:USB_Device/Target/usbd_conf.c **** 
 1009              		.loc 1 555 16 is_stmt 0 view .LVU216
 1010 0002 D0F8C402 		ldr	r0, [r0, #708]
 1011              	.LVL97:
 555:USB_Device/Target/usbd_conf.c **** 
 1012              		.loc 1 555 16 view .LVU217
 1013 0006 FFF7FEFF 		bl	HAL_PCD_EP_Flush
 1014              	.LVL98:
 557:USB_Device/Target/usbd_conf.c **** 
 1015              		.loc 1 557 3 is_stmt 1 view .LVU218
 557:USB_Device/Target/usbd_conf.c **** 
 1016              		.loc 1 557 17 is_stmt 0 view .LVU219
 1017 000a FFF7FEFF 		bl	USBD_Get_USB_Status
 1018              	.LVL99:
 559:USB_Device/Target/usbd_conf.c **** }
 1019              		.loc 1 559 3 is_stmt 1 view .LVU220
 560:USB_Device/Target/usbd_conf.c **** 
 1020              		.loc 1 560 1 is_stmt 0 view .LVU221
 1021 000e 08BD     		pop	{r3, pc}
 1022              		.cfi_endproc
 1023              	.LFE352:
 1025              		.section	.text.USBD_LL_StallEP,"ax",%progbits
 1026              		.align	1
 1027              		.global	USBD_LL_StallEP
ARM GAS  /tmp/ccBduf5I.s 			page 36


 1028              		.syntax unified
 1029              		.thumb
 1030              		.thumb_func
 1032              	USBD_LL_StallEP:
 1033              	.LVL100:
 1034              	.LFB353:
 569:USB_Device/Target/usbd_conf.c ****   HAL_StatusTypeDef hal_status = HAL_OK;
 1035              		.loc 1 569 1 is_stmt 1 view -0
 1036              		.cfi_startproc
 1037              		@ args = 0, pretend = 0, frame = 0
 1038              		@ frame_needed = 0, uses_anonymous_args = 0
 569:USB_Device/Target/usbd_conf.c ****   HAL_StatusTypeDef hal_status = HAL_OK;
 1039              		.loc 1 569 1 is_stmt 0 view .LVU223
 1040 0000 08B5     		push	{r3, lr}
 1041              	.LCFI24:
 1042              		.cfi_def_cfa_offset 8
 1043              		.cfi_offset 3, -8
 1044              		.cfi_offset 14, -4
 570:USB_Device/Target/usbd_conf.c ****   USBD_StatusTypeDef usb_status = USBD_OK;
 1045              		.loc 1 570 3 is_stmt 1 view .LVU224
 1046              	.LVL101:
 571:USB_Device/Target/usbd_conf.c **** 
 1047              		.loc 1 571 3 view .LVU225
 573:USB_Device/Target/usbd_conf.c **** 
 1048              		.loc 1 573 3 view .LVU226
 573:USB_Device/Target/usbd_conf.c **** 
 1049              		.loc 1 573 16 is_stmt 0 view .LVU227
 1050 0002 D0F8C402 		ldr	r0, [r0, #708]
 1051              	.LVL102:
 573:USB_Device/Target/usbd_conf.c **** 
 1052              		.loc 1 573 16 view .LVU228
 1053 0006 FFF7FEFF 		bl	HAL_PCD_EP_SetStall
 1054              	.LVL103:
 575:USB_Device/Target/usbd_conf.c **** 
 1055              		.loc 1 575 3 is_stmt 1 view .LVU229
 575:USB_Device/Target/usbd_conf.c **** 
 1056              		.loc 1 575 17 is_stmt 0 view .LVU230
 1057 000a FFF7FEFF 		bl	USBD_Get_USB_Status
 1058              	.LVL104:
 577:USB_Device/Target/usbd_conf.c **** }
 1059              		.loc 1 577 3 is_stmt 1 view .LVU231
 578:USB_Device/Target/usbd_conf.c **** 
 1060              		.loc 1 578 1 is_stmt 0 view .LVU232
 1061 000e 08BD     		pop	{r3, pc}
 1062              		.cfi_endproc
 1063              	.LFE353:
 1065              		.section	.text.USBD_LL_ClearStallEP,"ax",%progbits
 1066              		.align	1
 1067              		.global	USBD_LL_ClearStallEP
 1068              		.syntax unified
 1069              		.thumb
 1070              		.thumb_func
 1072              	USBD_LL_ClearStallEP:
 1073              	.LVL105:
 1074              	.LFB354:
 587:USB_Device/Target/usbd_conf.c ****   HAL_StatusTypeDef hal_status = HAL_OK;
 1075              		.loc 1 587 1 is_stmt 1 view -0
ARM GAS  /tmp/ccBduf5I.s 			page 37


 1076              		.cfi_startproc
 1077              		@ args = 0, pretend = 0, frame = 0
 1078              		@ frame_needed = 0, uses_anonymous_args = 0
 587:USB_Device/Target/usbd_conf.c ****   HAL_StatusTypeDef hal_status = HAL_OK;
 1079              		.loc 1 587 1 is_stmt 0 view .LVU234
 1080 0000 08B5     		push	{r3, lr}
 1081              	.LCFI25:
 1082              		.cfi_def_cfa_offset 8
 1083              		.cfi_offset 3, -8
 1084              		.cfi_offset 14, -4
 588:USB_Device/Target/usbd_conf.c ****   USBD_StatusTypeDef usb_status = USBD_OK;
 1085              		.loc 1 588 3 is_stmt 1 view .LVU235
 1086              	.LVL106:
 589:USB_Device/Target/usbd_conf.c **** 
 1087              		.loc 1 589 3 view .LVU236
 591:USB_Device/Target/usbd_conf.c **** 
 1088              		.loc 1 591 3 view .LVU237
 591:USB_Device/Target/usbd_conf.c **** 
 1089              		.loc 1 591 16 is_stmt 0 view .LVU238
 1090 0002 D0F8C402 		ldr	r0, [r0, #708]
 1091              	.LVL107:
 591:USB_Device/Target/usbd_conf.c **** 
 1092              		.loc 1 591 16 view .LVU239
 1093 0006 FFF7FEFF 		bl	HAL_PCD_EP_ClrStall
 1094              	.LVL108:
 593:USB_Device/Target/usbd_conf.c **** 
 1095              		.loc 1 593 3 is_stmt 1 view .LVU240
 593:USB_Device/Target/usbd_conf.c **** 
 1096              		.loc 1 593 17 is_stmt 0 view .LVU241
 1097 000a FFF7FEFF 		bl	USBD_Get_USB_Status
 1098              	.LVL109:
 595:USB_Device/Target/usbd_conf.c **** }
 1099              		.loc 1 595 3 is_stmt 1 view .LVU242
 596:USB_Device/Target/usbd_conf.c **** 
 1100              		.loc 1 596 1 is_stmt 0 view .LVU243
 1101 000e 08BD     		pop	{r3, pc}
 1102              		.cfi_endproc
 1103              	.LFE354:
 1105              		.section	.text.USBD_LL_IsStallEP,"ax",%progbits
 1106              		.align	1
 1107              		.global	USBD_LL_IsStallEP
 1108              		.syntax unified
 1109              		.thumb
 1110              		.thumb_func
 1112              	USBD_LL_IsStallEP:
 1113              	.LVL110:
 1114              	.LFB355:
 605:USB_Device/Target/usbd_conf.c ****   PCD_HandleTypeDef *hpcd = (PCD_HandleTypeDef*) pdev->pData;
 1115              		.loc 1 605 1 is_stmt 1 view -0
 1116              		.cfi_startproc
 1117              		@ args = 0, pretend = 0, frame = 0
 1118              		@ frame_needed = 0, uses_anonymous_args = 0
 1119              		@ link register save eliminated.
 606:USB_Device/Target/usbd_conf.c **** 
 1120              		.loc 1 606 3 view .LVU245
 606:USB_Device/Target/usbd_conf.c **** 
 1121              		.loc 1 606 22 is_stmt 0 view .LVU246
ARM GAS  /tmp/ccBduf5I.s 			page 38


 1122 0000 D0F8C432 		ldr	r3, [r0, #708]
 1123              	.LVL111:
 608:USB_Device/Target/usbd_conf.c ****   {
 1124              		.loc 1 608 3 is_stmt 1 view .LVU247
 608:USB_Device/Target/usbd_conf.c ****   {
 1125              		.loc 1 608 5 is_stmt 0 view .LVU248
 1126 0004 11F0800F 		tst	r1, #128
 1127 0008 08D1     		bne	.L80
 614:USB_Device/Target/usbd_conf.c ****   }
 1128              		.loc 1 614 5 is_stmt 1 view .LVU249
 614:USB_Device/Target/usbd_conf.c ****   }
 1129              		.loc 1 614 33 is_stmt 0 view .LVU250
 1130 000a 01F07F01 		and	r1, r1, #127
 1131              	.LVL112:
 614:USB_Device/Target/usbd_conf.c ****   }
 1132              		.loc 1 614 40 view .LVU251
 1133 000e 01EB8101 		add	r1, r1, r1, lsl #2
 1134 0012 03EBC101 		add	r1, r3, r1, lsl #3
 1135 0016 91F86A01 		ldrb	r0, [r1, #362]	@ zero_extendqisi2
 1136              	.LVL113:
 616:USB_Device/Target/usbd_conf.c **** 
 1137              		.loc 1 616 1 view .LVU252
 1138 001a 7047     		bx	lr
 1139              	.LVL114:
 1140              	.L80:
 610:USB_Device/Target/usbd_conf.c ****   }
 1141              		.loc 1 610 5 is_stmt 1 view .LVU253
 610:USB_Device/Target/usbd_conf.c ****   }
 1142              		.loc 1 610 32 is_stmt 0 view .LVU254
 1143 001c 01F07F01 		and	r1, r1, #127
 1144              	.LVL115:
 610:USB_Device/Target/usbd_conf.c ****   }
 1145              		.loc 1 610 39 view .LVU255
 1146 0020 0131     		adds	r1, r1, #1
 1147 0022 01EB8101 		add	r1, r1, r1, lsl #2
 1148 0026 03EBC101 		add	r1, r3, r1, lsl #3
 1149 002a 8878     		ldrb	r0, [r1, #2]	@ zero_extendqisi2
 1150              	.LVL116:
 610:USB_Device/Target/usbd_conf.c ****   }
 1151              		.loc 1 610 39 view .LVU256
 1152 002c 7047     		bx	lr
 1153              		.cfi_endproc
 1154              	.LFE355:
 1156              		.section	.text.USBD_LL_SetUSBAddress,"ax",%progbits
 1157              		.align	1
 1158              		.global	USBD_LL_SetUSBAddress
 1159              		.syntax unified
 1160              		.thumb
 1161              		.thumb_func
 1163              	USBD_LL_SetUSBAddress:
 1164              	.LVL117:
 1165              	.LFB356:
 625:USB_Device/Target/usbd_conf.c ****   HAL_StatusTypeDef hal_status = HAL_OK;
 1166              		.loc 1 625 1 is_stmt 1 view -0
 1167              		.cfi_startproc
 1168              		@ args = 0, pretend = 0, frame = 0
 1169              		@ frame_needed = 0, uses_anonymous_args = 0
ARM GAS  /tmp/ccBduf5I.s 			page 39


 625:USB_Device/Target/usbd_conf.c ****   HAL_StatusTypeDef hal_status = HAL_OK;
 1170              		.loc 1 625 1 is_stmt 0 view .LVU258
 1171 0000 08B5     		push	{r3, lr}
 1172              	.LCFI26:
 1173              		.cfi_def_cfa_offset 8
 1174              		.cfi_offset 3, -8
 1175              		.cfi_offset 14, -4
 626:USB_Device/Target/usbd_conf.c ****   USBD_StatusTypeDef usb_status = USBD_OK;
 1176              		.loc 1 626 3 is_stmt 1 view .LVU259
 1177              	.LVL118:
 627:USB_Device/Target/usbd_conf.c **** 
 1178              		.loc 1 627 3 view .LVU260
 629:USB_Device/Target/usbd_conf.c **** 
 1179              		.loc 1 629 3 view .LVU261
 629:USB_Device/Target/usbd_conf.c **** 
 1180              		.loc 1 629 16 is_stmt 0 view .LVU262
 1181 0002 D0F8C402 		ldr	r0, [r0, #708]
 1182              	.LVL119:
 629:USB_Device/Target/usbd_conf.c **** 
 1183              		.loc 1 629 16 view .LVU263
 1184 0006 FFF7FEFF 		bl	HAL_PCD_SetAddress
 1185              	.LVL120:
 631:USB_Device/Target/usbd_conf.c **** 
 1186              		.loc 1 631 3 is_stmt 1 view .LVU264
 631:USB_Device/Target/usbd_conf.c **** 
 1187              		.loc 1 631 17 is_stmt 0 view .LVU265
 1188 000a FFF7FEFF 		bl	USBD_Get_USB_Status
 1189              	.LVL121:
 633:USB_Device/Target/usbd_conf.c **** }
 1190              		.loc 1 633 3 is_stmt 1 view .LVU266
 634:USB_Device/Target/usbd_conf.c **** 
 1191              		.loc 1 634 1 is_stmt 0 view .LVU267
 1192 000e 08BD     		pop	{r3, pc}
 1193              		.cfi_endproc
 1194              	.LFE356:
 1196              		.section	.text.USBD_LL_Transmit,"ax",%progbits
 1197              		.align	1
 1198              		.global	USBD_LL_Transmit
 1199              		.syntax unified
 1200              		.thumb
 1201              		.thumb_func
 1203              	USBD_LL_Transmit:
 1204              	.LVL122:
 1205              	.LFB357:
 645:USB_Device/Target/usbd_conf.c ****   HAL_StatusTypeDef hal_status = HAL_OK;
 1206              		.loc 1 645 1 is_stmt 1 view -0
 1207              		.cfi_startproc
 1208              		@ args = 0, pretend = 0, frame = 0
 1209              		@ frame_needed = 0, uses_anonymous_args = 0
 645:USB_Device/Target/usbd_conf.c ****   HAL_StatusTypeDef hal_status = HAL_OK;
 1210              		.loc 1 645 1 is_stmt 0 view .LVU269
 1211 0000 08B5     		push	{r3, lr}
 1212              	.LCFI27:
 1213              		.cfi_def_cfa_offset 8
 1214              		.cfi_offset 3, -8
 1215              		.cfi_offset 14, -4
 646:USB_Device/Target/usbd_conf.c ****   USBD_StatusTypeDef usb_status = USBD_OK;
ARM GAS  /tmp/ccBduf5I.s 			page 40


 1216              		.loc 1 646 3 is_stmt 1 view .LVU270
 1217              	.LVL123:
 647:USB_Device/Target/usbd_conf.c **** 
 1218              		.loc 1 647 3 view .LVU271
 649:USB_Device/Target/usbd_conf.c **** 
 1219              		.loc 1 649 3 view .LVU272
 649:USB_Device/Target/usbd_conf.c **** 
 1220              		.loc 1 649 16 is_stmt 0 view .LVU273
 1221 0002 D0F8C402 		ldr	r0, [r0, #708]
 1222              	.LVL124:
 649:USB_Device/Target/usbd_conf.c **** 
 1223              		.loc 1 649 16 view .LVU274
 1224 0006 FFF7FEFF 		bl	HAL_PCD_EP_Transmit
 1225              	.LVL125:
 651:USB_Device/Target/usbd_conf.c **** 
 1226              		.loc 1 651 3 is_stmt 1 view .LVU275
 651:USB_Device/Target/usbd_conf.c **** 
 1227              		.loc 1 651 17 is_stmt 0 view .LVU276
 1228 000a FFF7FEFF 		bl	USBD_Get_USB_Status
 1229              	.LVL126:
 653:USB_Device/Target/usbd_conf.c **** }
 1230              		.loc 1 653 3 is_stmt 1 view .LVU277
 654:USB_Device/Target/usbd_conf.c **** 
 1231              		.loc 1 654 1 is_stmt 0 view .LVU278
 1232 000e 08BD     		pop	{r3, pc}
 1233              		.cfi_endproc
 1234              	.LFE357:
 1236              		.section	.text.USBD_LL_PrepareReceive,"ax",%progbits
 1237              		.align	1
 1238              		.global	USBD_LL_PrepareReceive
 1239              		.syntax unified
 1240              		.thumb
 1241              		.thumb_func
 1243              	USBD_LL_PrepareReceive:
 1244              	.LVL127:
 1245              	.LFB358:
 665:USB_Device/Target/usbd_conf.c ****   HAL_StatusTypeDef hal_status = HAL_OK;
 1246              		.loc 1 665 1 is_stmt 1 view -0
 1247              		.cfi_startproc
 1248              		@ args = 0, pretend = 0, frame = 0
 1249              		@ frame_needed = 0, uses_anonymous_args = 0
 665:USB_Device/Target/usbd_conf.c ****   HAL_StatusTypeDef hal_status = HAL_OK;
 1250              		.loc 1 665 1 is_stmt 0 view .LVU280
 1251 0000 08B5     		push	{r3, lr}
 1252              	.LCFI28:
 1253              		.cfi_def_cfa_offset 8
 1254              		.cfi_offset 3, -8
 1255              		.cfi_offset 14, -4
 666:USB_Device/Target/usbd_conf.c ****   USBD_StatusTypeDef usb_status = USBD_OK;
 1256              		.loc 1 666 3 is_stmt 1 view .LVU281
 1257              	.LVL128:
 667:USB_Device/Target/usbd_conf.c **** 
 1258              		.loc 1 667 3 view .LVU282
 669:USB_Device/Target/usbd_conf.c **** 
 1259              		.loc 1 669 3 view .LVU283
 669:USB_Device/Target/usbd_conf.c **** 
 1260              		.loc 1 669 16 is_stmt 0 view .LVU284
ARM GAS  /tmp/ccBduf5I.s 			page 41


 1261 0002 D0F8C402 		ldr	r0, [r0, #708]
 1262              	.LVL129:
 669:USB_Device/Target/usbd_conf.c **** 
 1263              		.loc 1 669 16 view .LVU285
 1264 0006 FFF7FEFF 		bl	HAL_PCD_EP_Receive
 1265              	.LVL130:
 671:USB_Device/Target/usbd_conf.c **** 
 1266              		.loc 1 671 3 is_stmt 1 view .LVU286
 671:USB_Device/Target/usbd_conf.c **** 
 1267              		.loc 1 671 17 is_stmt 0 view .LVU287
 1268 000a FFF7FEFF 		bl	USBD_Get_USB_Status
 1269              	.LVL131:
 673:USB_Device/Target/usbd_conf.c **** }
 1270              		.loc 1 673 3 is_stmt 1 view .LVU288
 674:USB_Device/Target/usbd_conf.c **** 
 1271              		.loc 1 674 1 is_stmt 0 view .LVU289
 1272 000e 08BD     		pop	{r3, pc}
 1273              		.cfi_endproc
 1274              	.LFE358:
 1276              		.section	.text.USBD_LL_GetRxDataSize,"ax",%progbits
 1277              		.align	1
 1278              		.global	USBD_LL_GetRxDataSize
 1279              		.syntax unified
 1280              		.thumb
 1281              		.thumb_func
 1283              	USBD_LL_GetRxDataSize:
 1284              	.LVL132:
 1285              	.LFB359:
 683:USB_Device/Target/usbd_conf.c ****   return HAL_PCD_EP_GetRxCount((PCD_HandleTypeDef*) pdev->pData, ep_addr);
 1286              		.loc 1 683 1 is_stmt 1 view -0
 1287              		.cfi_startproc
 1288              		@ args = 0, pretend = 0, frame = 0
 1289              		@ frame_needed = 0, uses_anonymous_args = 0
 683:USB_Device/Target/usbd_conf.c ****   return HAL_PCD_EP_GetRxCount((PCD_HandleTypeDef*) pdev->pData, ep_addr);
 1290              		.loc 1 683 1 is_stmt 0 view .LVU291
 1291 0000 08B5     		push	{r3, lr}
 1292              	.LCFI29:
 1293              		.cfi_def_cfa_offset 8
 1294              		.cfi_offset 3, -8
 1295              		.cfi_offset 14, -4
 684:USB_Device/Target/usbd_conf.c **** }
 1296              		.loc 1 684 3 is_stmt 1 view .LVU292
 684:USB_Device/Target/usbd_conf.c **** }
 1297              		.loc 1 684 10 is_stmt 0 view .LVU293
 1298 0002 D0F8C402 		ldr	r0, [r0, #708]
 1299              	.LVL133:
 684:USB_Device/Target/usbd_conf.c **** }
 1300              		.loc 1 684 10 view .LVU294
 1301 0006 FFF7FEFF 		bl	HAL_PCD_EP_GetRxCount
 1302              	.LVL134:
 685:USB_Device/Target/usbd_conf.c **** 
 1303              		.loc 1 685 1 view .LVU295
 1304 000a 08BD     		pop	{r3, pc}
 1305              		.cfi_endproc
 1306              	.LFE359:
 1308              		.section	.text.HAL_PCDEx_LPM_Callback,"ax",%progbits
 1309              		.align	1
ARM GAS  /tmp/ccBduf5I.s 			page 42


 1310              		.global	HAL_PCDEx_LPM_Callback
 1311              		.syntax unified
 1312              		.thumb
 1313              		.thumb_func
 1315              	HAL_PCDEx_LPM_Callback:
 1316              	.LVL135:
 1317              	.LFB360:
 698:USB_Device/Target/usbd_conf.c ****   /* USER CODE BEGIN LPM_Callback */
 1318              		.loc 1 698 1 is_stmt 1 view -0
 1319              		.cfi_startproc
 1320              		@ args = 0, pretend = 0, frame = 0
 1321              		@ frame_needed = 0, uses_anonymous_args = 0
 698:USB_Device/Target/usbd_conf.c ****   /* USER CODE BEGIN LPM_Callback */
 1322              		.loc 1 698 1 is_stmt 0 view .LVU297
 1323 0000 10B5     		push	{r4, lr}
 1324              	.LCFI30:
 1325              		.cfi_def_cfa_offset 8
 1326              		.cfi_offset 4, -8
 1327              		.cfi_offset 14, -4
 1328 0002 0446     		mov	r4, r0
 700:USB_Device/Target/usbd_conf.c ****   {
 1329              		.loc 1 700 3 is_stmt 1 view .LVU298
 1330 0004 11B1     		cbz	r1, .L90
 1331 0006 0129     		cmp	r1, #1
 1332 0008 0FD0     		beq	.L91
 1333              	.LVL136:
 1334              	.L89:
 725:USB_Device/Target/usbd_conf.c **** 
 1335              		.loc 1 725 1 is_stmt 0 view .LVU299
 1336 000a 10BD     		pop	{r4, pc}
 1337              	.LVL137:
 1338              	.L90:
 703:USB_Device/Target/usbd_conf.c ****     {
 1339              		.loc 1 703 5 is_stmt 1 view .LVU300
 703:USB_Device/Target/usbd_conf.c ****     {
 1340              		.loc 1 703 19 is_stmt 0 view .LVU301
 1341 000c 8369     		ldr	r3, [r0, #24]
 703:USB_Device/Target/usbd_conf.c ****     {
 1342              		.loc 1 703 8 view .LVU302
 1343 000e 23B9     		cbnz	r3, .L95
 1344              	.LVL138:
 1345              	.L93:
 710:USB_Device/Target/usbd_conf.c ****     break;
 1346              		.loc 1 710 5 is_stmt 1 view .LVU303
 1347 0010 D4F8F002 		ldr	r0, [r4, #752]
 1348 0014 FFF7FEFF 		bl	USBD_LL_Resume
 1349              	.LVL139:
 711:USB_Device/Target/usbd_conf.c **** 
 1350              		.loc 1 711 5 view .LVU304
 1351 0018 F7E7     		b	.L89
 1352              	.LVL140:
 1353              	.L95:
 705:USB_Device/Target/usbd_conf.c **** 
 1354              		.loc 1 705 7 view .LVU305
 1355 001a FFF7FEFF 		bl	SystemClockConfig_Resume
 1356              	.LVL141:
 708:USB_Device/Target/usbd_conf.c ****     }
ARM GAS  /tmp/ccBduf5I.s 			page 43


 1357              		.loc 1 708 7 view .LVU306
 708:USB_Device/Target/usbd_conf.c ****     }
 1358              		.loc 1 708 16 is_stmt 0 view .LVU307
 1359 001e 094A     		ldr	r2, .L96
 1360 0020 1369     		ldr	r3, [r2, #16]
 1361 0022 23F00603 		bic	r3, r3, #6
 1362 0026 1361     		str	r3, [r2, #16]
 1363 0028 F2E7     		b	.L93
 1364              	.LVL142:
 1365              	.L91:
 714:USB_Device/Target/usbd_conf.c **** 
 1366              		.loc 1 714 5 is_stmt 1 view .LVU308
 1367 002a D0F8F002 		ldr	r0, [r0, #752]
 1368              	.LVL143:
 714:USB_Device/Target/usbd_conf.c **** 
 1369              		.loc 1 714 5 is_stmt 0 view .LVU309
 1370 002e FFF7FEFF 		bl	USBD_LL_Suspend
 1371              	.LVL144:
 717:USB_Device/Target/usbd_conf.c ****     {
 1372              		.loc 1 717 5 is_stmt 1 view .LVU310
 717:USB_Device/Target/usbd_conf.c ****     {
 1373              		.loc 1 717 19 is_stmt 0 view .LVU311
 1374 0032 A369     		ldr	r3, [r4, #24]
 717:USB_Device/Target/usbd_conf.c ****     {
 1375              		.loc 1 717 8 view .LVU312
 1376 0034 002B     		cmp	r3, #0
 1377 0036 E8D0     		beq	.L89
 720:USB_Device/Target/usbd_conf.c ****     }
 1378              		.loc 1 720 7 is_stmt 1 view .LVU313
 720:USB_Device/Target/usbd_conf.c ****     }
 1379              		.loc 1 720 16 is_stmt 0 view .LVU314
 1380 0038 024A     		ldr	r2, .L96
 1381 003a 1369     		ldr	r3, [r2, #16]
 1382 003c 43F00603 		orr	r3, r3, #6
 1383 0040 1361     		str	r3, [r2, #16]
 725:USB_Device/Target/usbd_conf.c **** 
 1384              		.loc 1 725 1 view .LVU315
 1385 0042 E2E7     		b	.L89
 1386              	.L97:
 1387              		.align	2
 1388              	.L96:
 1389 0044 00ED00E0 		.word	-536810240
 1390              		.cfi_endproc
 1391              	.LFE360:
 1393              		.section	.text.USBD_LL_Delay,"ax",%progbits
 1394              		.align	1
 1395              		.global	USBD_LL_Delay
 1396              		.syntax unified
 1397              		.thumb
 1398              		.thumb_func
 1400              	USBD_LL_Delay:
 1401              	.LVL145:
 1402              	.LFB361:
 733:USB_Device/Target/usbd_conf.c ****   HAL_Delay(Delay);
 1403              		.loc 1 733 1 is_stmt 1 view -0
 1404              		.cfi_startproc
 1405              		@ args = 0, pretend = 0, frame = 0
ARM GAS  /tmp/ccBduf5I.s 			page 44


 1406              		@ frame_needed = 0, uses_anonymous_args = 0
 733:USB_Device/Target/usbd_conf.c ****   HAL_Delay(Delay);
 1407              		.loc 1 733 1 is_stmt 0 view .LVU317
 1408 0000 08B5     		push	{r3, lr}
 1409              	.LCFI31:
 1410              		.cfi_def_cfa_offset 8
 1411              		.cfi_offset 3, -8
 1412              		.cfi_offset 14, -4
 734:USB_Device/Target/usbd_conf.c **** }
 1413              		.loc 1 734 3 is_stmt 1 view .LVU318
 1414 0002 FFF7FEFF 		bl	HAL_Delay
 1415              	.LVL146:
 735:USB_Device/Target/usbd_conf.c **** 
 1416              		.loc 1 735 1 is_stmt 0 view .LVU319
 1417 0006 08BD     		pop	{r3, pc}
 1418              		.cfi_endproc
 1419              	.LFE361:
 1421              		.section	.text.USBD_static_malloc,"ax",%progbits
 1422              		.align	1
 1423              		.global	USBD_static_malloc
 1424              		.syntax unified
 1425              		.thumb
 1426              		.thumb_func
 1428              	USBD_static_malloc:
 1429              	.LVL147:
 1430              	.LFB362:
 743:USB_Device/Target/usbd_conf.c ****   static uint32_t mem[(sizeof(USBD_CDC_HandleTypeDef)/4)+1];/* On 32-bit boundary */
 1431              		.loc 1 743 1 is_stmt 1 view -0
 1432              		.cfi_startproc
 1433              		@ args = 0, pretend = 0, frame = 0
 1434              		@ frame_needed = 0, uses_anonymous_args = 0
 1435              		@ link register save eliminated.
 744:USB_Device/Target/usbd_conf.c ****   return mem;
 1436              		.loc 1 744 3 view .LVU321
 745:USB_Device/Target/usbd_conf.c **** }
 1437              		.loc 1 745 3 view .LVU322
 746:USB_Device/Target/usbd_conf.c **** 
 1438              		.loc 1 746 1 is_stmt 0 view .LVU323
 1439 0000 0048     		ldr	r0, .L101
 1440              	.LVL148:
 746:USB_Device/Target/usbd_conf.c **** 
 1441              		.loc 1 746 1 view .LVU324
 1442 0002 7047     		bx	lr
 1443              	.L102:
 1444              		.align	2
 1445              	.L101:
 1446 0004 00000000 		.word	.LANCHOR1
 1447              		.cfi_endproc
 1448              	.LFE362:
 1450              		.section	.text.USBD_static_free,"ax",%progbits
 1451              		.align	1
 1452              		.global	USBD_static_free
 1453              		.syntax unified
 1454              		.thumb
 1455              		.thumb_func
 1457              	USBD_static_free:
 1458              	.LVL149:
ARM GAS  /tmp/ccBduf5I.s 			page 45


 1459              	.LFB363:
 754:USB_Device/Target/usbd_conf.c **** 
 1460              		.loc 1 754 1 is_stmt 1 view -0
 1461              		.cfi_startproc
 1462              		@ args = 0, pretend = 0, frame = 0
 1463              		@ frame_needed = 0, uses_anonymous_args = 0
 1464              		@ link register save eliminated.
 756:USB_Device/Target/usbd_conf.c **** 
 1465              		.loc 1 756 1 view .LVU326
 1466 0000 7047     		bx	lr
 1467              		.cfi_endproc
 1468              	.LFE363:
 1470              		.global	hpcd_USB_FS
 1471              		.section	.bss.hpcd_USB_FS,"aw",%nobits
 1472              		.align	2
 1473              		.set	.LANCHOR0,. + 0
 1476              	hpcd_USB_FS:
 1477 0000 00000000 		.space	756
 1477      00000000 
 1477      00000000 
 1477      00000000 
 1477      00000000 
 1478              		.section	.bss.mem.0,"aw",%nobits
 1479              		.align	2
 1480              		.set	.LANCHOR1,. + 0
 1483              	mem.0:
 1484 0000 00000000 		.space	544
 1484      00000000 
 1484      00000000 
 1484      00000000 
 1484      00000000 
 1485              		.text
 1486              	.Letext0:
 1487              		.file 2 "/usr/share/gcc-arm-none-eabi-10.3-2021.10/arm-none-eabi/include/machine/_default_types.h"
 1488              		.file 3 "/usr/share/gcc-arm-none-eabi-10.3-2021.10/arm-none-eabi/include/sys/_stdint.h"
 1489              		.file 4 "Drivers/CMSIS/Include/core_cm4.h"
 1490              		.file 5 "Drivers/CMSIS/Device/ST/STM32G4xx/Include/stm32g474xx.h"
 1491              		.file 6 "Drivers/CMSIS/Device/ST/STM32G4xx/Include/stm32g4xx.h"
 1492              		.file 7 "Drivers/STM32G4xx_HAL_Driver/Inc/stm32g4xx_hal_def.h"
 1493              		.file 8 "Drivers/STM32G4xx_HAL_Driver/Inc/stm32g4xx_hal_rcc_ex.h"
 1494              		.file 9 "Drivers/STM32G4xx_HAL_Driver/Inc/stm32g4xx_ll_usb.h"
 1495              		.file 10 "Drivers/STM32G4xx_HAL_Driver/Inc/stm32g4xx_hal_pcd.h"
 1496              		.file 11 "Middlewares/ST/STM32_USB_Device_Library/Core/Inc/usbd_def.h"
 1497              		.file 12 "Drivers/STM32G4xx_HAL_Driver/Inc/stm32g4xx_hal.h"
 1498              		.file 13 "Middlewares/ST/STM32_USB_Device_Library/Core/Inc/usbd_core.h"
 1499              		.file 14 "Drivers/STM32G4xx_HAL_Driver/Inc/stm32g4xx_hal_pcd_ex.h"
 1500              		.file 15 "Drivers/STM32G4xx_HAL_Driver/Inc/stm32g4xx_hal_cortex.h"
 1501              		.file 16 "<built-in>"
ARM GAS  /tmp/ccBduf5I.s 			page 46

